
main:     file format elf64-x86-64


Disassembly of section .text:

0000000000401000 <enclave_main>:
  401000:	c4 43 fb f0 f5 3c    	rorx   $0x3c,%r13,%r14
  401006:	66 41 81 fe 80 0f    	cmp    $0xf80,%r14w
  40100c:	73 22                	jae    401030 <enclave_main+0x30>
  40100e:	49 c1 ee 10          	shr    $0x10,%r14
  401012:	67 4f 03 74 f7 f8    	add    -0x8(%r15d,%r14d,8),%r14
  401018:	49 c1 e6 0c          	shl    $0xc,%r14
  40101c:	49 8d 26             	lea    (%r14),%rsp
  40101f:	54                   	push   %rsp
  401020:	41 55                	push   %r13
  401022:	41 55                	push   %r13
  401024:	4d 23 2f             	and    (%r15),%r13
  401027:	49 81 ed f0 00 00 00 	sub    $0xf0,%r13
  40102e:	eb 0b                	jmp    40103b <enclave_main+0x3b>
  401030:	41 55                	push   %r13
  401032:	41 55                	push   %r13
  401034:	49 81 ed f0 00 00 00 	sub    $0xf0,%r13
  40103b:	55                   	push   %rbp
  40103c:	41 54                	push   %r12
  40103e:	53                   	push   %rbx
  40103f:	48 81 ec c0 00 00 00 	sub    $0xc0,%rsp
  401046:	48 b8 00 00 00 00 00 	movabs $0x3fd0000000000000,%rax
  40104d:	00 d0 3f 
  401050:	48 89 84 24 a8 00 00 	mov    %rax,0xa8(%rsp)
  401057:	00 
  401058:	f2 0f 10 84 24 a8 00 	movsd  0xa8(%rsp),%xmm0
  40105f:	00 00 
  401061:	f2 0f 11 44 24 58    	movsd  %xmm0,0x58(%rsp)
  401067:	48 b8 b5 2b 4c 55 55 	movabs $0x3fd55555554c2bb5,%rax
  40106e:	55 d5 3f 
  401071:	48 89 84 24 a0 00 00 	mov    %rax,0xa0(%rsp)
  401078:	00 
  401079:	f2 0f 10 84 24 a0 00 	movsd  0xa0(%rsp),%xmm0
  401080:	00 00 
  401082:	f2 0f 11 44 24 30    	movsd  %xmm0,0x30(%rsp)
  401088:	48 b8 be a4 31 5a 47 	movabs $0x3fd555475a31a4be,%rax
  40108f:	55 d5 3f 
  401092:	48 89 84 24 98 00 00 	mov    %rax,0x98(%rsp)
  401099:	00 
  40109a:	f2 0f 10 84 24 98 00 	movsd  0x98(%rsp),%xmm0
  4010a1:	00 00 
  4010a3:	f2 0f 11 44 24 50    	movsd  %xmm0,0x50(%rsp)
  4010a9:	48 b8 18 99 80 5f 23 	movabs $0x3fc249235f809918,%rax
  4010b0:	49 c2 3f 
  4010b3:	48 89 84 24 90 00 00 	mov    %rax,0x90(%rsp)
  4010ba:	00 
  4010bb:	f2 0f 10 84 24 90 00 	movsd  0x90(%rsp),%xmm0
  4010c2:	00 00 
  4010c4:	f2 0f 11 44 24 48    	movsd  %xmm0,0x48(%rsp)
  4010ca:	48 b8 00 00 00 00 00 	movabs $0x3ff0000000000000,%rax
  4010d1:	00 f0 3f 
  4010d4:	48 89 84 24 88 00 00 	mov    %rax,0x88(%rsp)
  4010db:	00 
  4010dc:	f2 0f 10 84 24 88 00 	movsd  0x88(%rsp),%xmm0
  4010e3:	00 00 
  4010e5:	f2 0f 11 44 24 20    	movsd  %xmm0,0x20(%rsp)
  4010eb:	b8 d0 4e f5 00       	mov    $0xf54ed0,%eax
  4010f0:	c4 63 fb f0 f0 0c    	rorx   $0xc,%rax,%r14
  4010f6:	67 4f 03 34 f7       	add    (%r15d,%r14d,8),%r14
  4010fb:	c4 c3 fb f0 c6 34    	rorx   $0x34,%r14,%rax
  401101:	b9 40 4f f5 00       	mov    $0xf54f40,%ecx
  401106:	c4 63 fb f0 f1 0c    	rorx   $0xc,%rcx,%r14
  40110c:	67 4f 03 34 f7       	add    (%r15d,%r14d,8),%r14
  401111:	c4 c3 fb f0 ce 34    	rorx   $0x34,%r14,%rcx
  401117:	48 89 4c 24 18       	mov    %rcx,0x18(%rsp)
  40111c:	b9 b0 44 f5 00       	mov    $0xf544b0,%ecx
  401121:	c4 63 fb f0 f1 0c    	rorx   $0xc,%rcx,%r14
  401127:	67 4f 03 34 f7       	add    (%r15d,%r14d,8),%r14
  40112c:	c4 c3 fb f0 ce 34    	rorx   $0x34,%r14,%rcx
  401132:	48 89 4c 24 28       	mov    %rcx,0x28(%rsp)
  401137:	b9 80 4f f5 00       	mov    $0xf54f80,%ecx
  40113c:	c4 63 fb f0 f1 0c    	rorx   $0xc,%rcx,%r14
  401142:	67 4f 03 34 f7       	add    (%r15d,%r14d,8),%r14
  401147:	c4 c3 fb f0 ce 34    	rorx   $0x34,%r14,%rcx
  40114d:	48 89 4c 24 10       	mov    %rcx,0x10(%rsp)
  401152:	b9 d8 4e f5 00       	mov    $0xf54ed8,%ecx
  401157:	c4 63 fb f0 f1 0c    	rorx   $0xc,%rcx,%r14
  40115d:	67 4f 03 34 f7       	add    (%r15d,%r14d,8),%r14
  401162:	c4 c3 fb f0 ce 34    	rorx   $0x34,%r14,%rcx
  401168:	48 89 0c 24          	mov    %rcx,(%rsp)
  40116c:	b9 10 4f f5 00       	mov    $0xf54f10,%ecx
  401171:	c4 63 fb f0 f1 0c    	rorx   $0xc,%rcx,%r14
  401177:	67 4f 03 34 f7       	add    (%r15d,%r14d,8),%r14
  40117c:	c4 c3 fb f0 f6 34    	rorx   $0x34,%r14,%rsi
  401182:	b9 e8 48 f5 00       	mov    $0xf548e8,%ecx
  401187:	c4 63 fb f0 f1 0c    	rorx   $0xc,%rcx,%r14
  40118d:	67 4f 03 34 f7       	add    (%r15d,%r14d,8),%r14
  401192:	c4 c3 fb f0 ce 34    	rorx   $0x34,%r14,%rcx
  401198:	48 89 4c 24 08       	mov    %rcx,0x8(%rsp)
  40119d:	b9 70 19 40 00       	mov    $0x401970,%ecx
  4011a2:	c4 63 fb f0 f1 0c    	rorx   $0xc,%rcx,%r14
  4011a8:	67 4f 03 34 f7       	add    (%r15d,%r14d,8),%r14
  4011ad:	c4 c3 fb f0 ce 34    	rorx   $0x34,%r14,%rcx
  4011b3:	ba 08 49 f5 00       	mov    $0xf54908,%edx
  4011b8:	c4 63 fb f0 f2 0c    	rorx   $0xc,%rdx,%r14
  4011be:	67 4f 03 34 f7       	add    (%r15d,%r14d,8),%r14
  4011c3:	c4 c3 fb f0 ee 34    	rorx   $0x34,%r14,%rbp
  4011c9:	ba a0 4e f5 00       	mov    $0xf54ea0,%edx
  4011ce:	c4 63 fb f0 f2 0c    	rorx   $0xc,%rdx,%r14
  4011d4:	67 4f 03 34 f7       	add    (%r15d,%r14d,8),%r14
  4011d9:	c4 c3 fb f0 d6 34    	rorx   $0x34,%r14,%rdx
  4011df:	48 89 54 24 68       	mov    %rdx,0x68(%rsp)
  4011e4:	ba 60 4f f5 00       	mov    $0xf54f60,%edx
  4011e9:	c4 63 fb f0 f2 0c    	rorx   $0xc,%rdx,%r14
  4011ef:	67 4f 03 34 f7       	add    (%r15d,%r14d,8),%r14
  4011f4:	c4 c3 fb f0 d6 34    	rorx   $0x34,%r14,%rdx
  4011fa:	48 89 54 24 60       	mov    %rdx,0x60(%rsp)
  4011ff:	ba 00 4f f5 00       	mov    $0xf54f00,%edx
  401204:	c4 63 fb f0 f2 0c    	rorx   $0xc,%rdx,%r14
  40120a:	67 4f 03 34 f7       	add    (%r15d,%r14d,8),%r14
  40120f:	c4 c3 fb f0 d6 34    	rorx   $0x34,%r14,%rdx
  401215:	48 c7 02 3c 00 00 00 	movq   $0x3c,(%rdx)
  40121c:	ba c8 4e f5 00       	mov    $0xf54ec8,%edx
  401221:	c4 63 fb f0 f2 0c    	rorx   $0xc,%rdx,%r14
  401227:	67 4f 03 34 f7       	add    (%r15d,%r14d,8),%r14
  40122c:	c4 c3 fb f0 d6 34    	rorx   $0x34,%r14,%rdx
  401232:	48 c7 02 05 00 00 00 	movq   $0x5,(%rdx)
  401239:	ba 30 49 f5 00       	mov    $0xf54930,%edx
  40123e:	c4 63 fb f0 f2 0c    	rorx   $0xc,%rdx,%r14
  401244:	67 4f 03 34 f7       	add    (%r15d,%r14d,8),%r14
  401249:	c4 43 fb f0 e6 34    	rorx   $0x34,%r14,%r12
  40124f:	c7 00 00 00 00 00    	movl   $0x0,(%rax)
  401255:	b8 3c 4f f5 00       	mov    $0xf54f3c,%eax
  40125a:	c4 63 fb f0 f0 0c    	rorx   $0xc,%rax,%r14
  401260:	67 4f 03 34 f7       	add    (%r15d,%r14d,8),%r14
  401265:	c4 c3 fb f0 c6 34    	rorx   $0x34,%r14,%rax
  40126b:	c7 00 00 00 00 00    	movl   $0x0,(%rax)
  401271:	b8 38 4f f5 00       	mov    $0xf54f38,%eax
  401276:	c4 63 fb f0 f0 0c    	rorx   $0xc,%rax,%r14
  40127c:	67 4f 03 34 f7       	add    (%r15d,%r14d,8),%r14
  401281:	c4 c3 fb f0 c6 34    	rorx   $0x34,%r14,%rax
  401287:	c7 00 08 00 00 00    	movl   $0x8,(%rax)
  40128d:	b8 0c 4f f5 00       	mov    $0xf54f0c,%eax
  401292:	c4 63 fb f0 f0 0c    	rorx   $0xc,%rax,%r14
  401298:	67 4f 03 34 f7       	add    (%r15d,%r14d,8),%r14
  40129d:	c4 c3 fb f0 c6 34    	rorx   $0x34,%r14,%rax
  4012a3:	c7 00 00 00 00 00    	movl   $0x0,(%rax)
  4012a9:	b8 a8 4f f5 00       	mov    $0xf54fa8,%eax
  4012ae:	c4 63 fb f0 f0 0c    	rorx   $0xc,%rax,%r14
  4012b4:	67 4f 03 34 f7       	add    (%r15d,%r14d,8),%r14
  4012b9:	c4 c3 fb f0 de 34    	rorx   $0x34,%r14,%rbx
  4012bf:	48 8d 44 24 40       	lea    0x40(%rsp),%rax
  4012c4:	49 8d 45 40          	lea    0x40(%r13),%rax
  4012c8:	48 89 84 24 80 00 00 	mov    %rax,0x80(%rsp)
  4012cf:	00 
  4012d0:	48 8d 84 24 b8 00 00 	lea    0xb8(%rsp),%rax
  4012d7:	00 
  4012d8:	49 8d 85 b8 00 00 00 	lea    0xb8(%r13),%rax
  4012df:	48 89 44 24 78       	mov    %rax,0x78(%rsp)
  4012e4:	48 8d 84 24 b0 00 00 	lea    0xb0(%rsp),%rax
  4012eb:	00 
  4012ec:	49 8d 85 b0 00 00 00 	lea    0xb0(%r13),%rax
  4012f3:	48 89 44 24 70       	mov    %rax,0x70(%rsp)
  4012f8:	31 c0                	xor    %eax,%eax
  4012fa:	c7 04 86 01 00 00 00 	movl   $0x1,(%rsi,%rax,4)
  401301:	48 ff c0             	inc    %rax
  401304:	48 83 f8 0a          	cmp    $0xa,%rax
  401308:	75 f0                	jne    4012fa <enclave_main+0x2fa>
  40130a:	48 89 74 24 38       	mov    %rsi,0x38(%rsp)
  40130f:	68 16 13 40 00       	pushq  $0x401316
  401314:	ff e1                	jmpq   *%rcx

0000000000401316 <.L00$pb>:
  401316:	c7 45 00 00 00 00 00 	movl   $0x0,0x0(%rbp)
  40131d:	48 c7 45 20 af 1f 00 	movq   $0x1faf,0x20(%rbp)
  401324:	00 
  401325:	48 8b 04 24          	mov    (%rsp),%rax
  401329:	c7 00 00 00 00 00    	movl   $0x0,(%rax)
  40132f:	48 c7 40 20 af 1f 00 	movq   $0x1faf,0x20(%rax)
  401336:	00 
  401337:	41 c7 04 24 00 00 00 	movl   $0x0,(%r12)
  40133e:	00 
  40133f:	49 c7 44 24 20 00 40 	movq   $0x4000,0x20(%r12)
  401346:	00 00 
  401348:	48 8b 44 24 28       	mov    0x28(%rsp),%rax
  40134d:	c7 00 00 00 00 00    	movl   $0x0,(%rax)
  401353:	48 c7 40 10 b8 0b 00 	movq   $0xbb8,0x10(%rax)
  40135a:	00 
  40135b:	c7 03 00 00 00 00    	movl   $0x0,(%rbx)
  401361:	48 8b 44 24 18       	mov    0x18(%rsp),%rax
  401366:	c7 00 00 00 00 00    	movl   $0x0,(%rax)
  40136c:	48 8b 44 24 10       	mov    0x10(%rsp),%rax
  401371:	c7 00 00 00 00 00    	movl   $0x0,(%rax)
  401377:	48 c7 40 10 a0 0f 00 	movq   $0xfa0,0x10(%rax)
  40137e:	00 
  40137f:	48 8b 44 24 68       	mov    0x68(%rsp),%rax
  401384:	c7 00 00 00 00 00    	movl   $0x0,(%rax)
  40138a:	48 c7 40 10 88 13 00 	movq   $0x1388,0x10(%rax)
  401391:	00 
  401392:	48 8b 44 24 60       	mov    0x60(%rsp),%rax
  401397:	c7 00 00 00 00 00    	movl   $0x0,(%rax)
  40139d:	48 8b 44 24 08       	mov    0x8(%rsp),%rax
  4013a2:	c7 00 00 00 00 00    	movl   $0x0,(%rax)
  4013a8:	bb e0 1a 40 00       	mov    $0x401ae0,%ebx
  4013ad:	c4 63 fb f0 f3 0c    	rorx   $0xc,%rbx,%r14
  4013b3:	67 4f 03 34 f7       	add    (%r15d,%r14d,8),%r14
  4013b8:	c4 c3 fb f0 c6 34    	rorx   $0x34,%r14,%rax
  4013be:	bf 4d 05 45 00       	mov    $0x45054d,%edi
  4013c3:	68 ca 13 40 00       	pushq  $0x4013ca
  4013c8:	ff e0                	jmpq   *%rax

00000000004013ca <.L10$pb>:
  4013ca:	c4 63 fb f0 f3 0c    	rorx   $0xc,%rbx,%r14
  4013d0:	67 4f 03 34 f7       	add    (%r15d,%r14d,8),%r14
  4013d5:	c4 c3 fb f0 c6 34    	rorx   $0x34,%r14,%rax
  4013db:	bf 7e 05 45 00       	mov    $0x45057e,%edi
  4013e0:	68 e7 13 40 00       	pushq  $0x4013e7
  4013e5:	ff e0                	jmpq   *%rax

00000000004013e7 <.L20$pb>:
  4013e7:	c4 63 fb f0 f3 0c    	rorx   $0xc,%rbx,%r14
  4013ed:	67 4f 03 34 f7       	add    (%r15d,%r14d,8),%r14
  4013f2:	c4 c3 fb f0 c6 34    	rorx   $0x34,%r14,%rax
  4013f8:	bf a6 05 45 00       	mov    $0x4505a6,%edi
  4013fd:	68 04 14 40 00       	pushq  $0x401404
  401402:	ff e0                	jmpq   *%rax

0000000000401404 <.L30$pb>:
  401404:	c4 63 fb f0 f3 0c    	rorx   $0xc,%rbx,%r14
  40140a:	67 4f 03 34 f7       	add    (%r15d,%r14d,8),%r14
  40140f:	c4 c3 fb f0 c6 34    	rorx   $0x34,%r14,%rax
  401415:	bf d6 05 45 00       	mov    $0x4505d6,%edi
  40141a:	68 21 14 40 00       	pushq  $0x401421
  40141f:	ff e0                	jmpq   *%rax

0000000000401421 <.L40$pb>:
  401421:	c4 63 fb f0 f3 0c    	rorx   $0xc,%rbx,%r14
  401427:	67 4f 03 34 f7       	add    (%r15d,%r14d,8),%r14
  40142c:	c4 c3 fb f0 c6 34    	rorx   $0x34,%r14,%rax
  401432:	bf 19 06 45 00       	mov    $0x450619,%edi
  401437:	68 3e 14 40 00       	pushq  $0x40143e
  40143c:	ff e0                	jmpq   *%rax

000000000040143e <.L50$pb>:
  40143e:	c4 63 fb f0 f3 0c    	rorx   $0xc,%rbx,%r14
  401444:	67 4f 03 34 f7       	add    (%r15d,%r14d,8),%r14
  401449:	c4 c3 fb f0 c6 34    	rorx   $0x34,%r14,%rax
  40144f:	bf 5d 06 45 00       	mov    $0x45065d,%edi
  401454:	68 5b 14 40 00       	pushq  $0x40145b
  401459:	ff e0                	jmpq   *%rax

000000000040145b <.L60$pb>:
  40145b:	48 8b 4c 24 38       	mov    0x38(%rsp),%rcx
  401460:	b8 50 26 65 00       	mov    $0x652650,%eax
  401465:	c4 63 fb f0 f0 0c    	rorx   $0xc,%rax,%r14
  40146b:	67 4f 03 34 f7       	add    (%r15d,%r14d,8),%r14
  401470:	c4 c3 fb f0 c6 34    	rorx   $0x34,%r14,%rax
  401476:	48 89 44 24 28       	mov    %rax,0x28(%rsp)
  40147b:	45 31 e4             	xor    %r12d,%r12d
  40147e:	f2 0f 10 44 24 20    	movsd  0x20(%rsp),%xmm0
  401484:	f2 0f 11 44 24 10    	movsd  %xmm0,0x10(%rsp)
  40148a:	f2 0f 11 44 24 18    	movsd  %xmm0,0x18(%rsp)
  401490:	f2 0f 11 44 24 08    	movsd  %xmm0,0x8(%rsp)
  401496:	f2 0f 11 04 24       	movsd  %xmm0,(%rsp)
  40149b:	eb 1a                	jmp    4014b7 <.L60$pb+0x5c>
  40149d:	f2 42 0f 5e 44 e5 00 	divsd  0x0(%rbp,%r12,8),%xmm0
  4014a4:	f2 0f 10 0c 24       	movsd  (%rsp),%xmm1
  4014a9:	f2 0f 59 c8          	mulsd  %xmm0,%xmm1
  4014ad:	f2 0f 11 0c 24       	movsd  %xmm1,(%rsp)
  4014b2:	e9 c1 01 00 00       	jmpq   401678 <.L120$pb+0x9f>
  4014b7:	42 83 3c a1 00       	cmpl   $0x0,(%rcx,%r12,4)
  4014bc:	0f 84 bb 01 00 00    	je     40167d <.L120$pb+0xa4>
  4014c2:	48 8b 44 24 28       	mov    0x28(%rsp),%rax
  4014c7:	4a 8b 14 e0          	mov    (%rax,%r12,8),%rdx
  4014cb:	b8 00 30 42 00       	mov    $0x423000,%eax
  4014d0:	c4 63 fb f0 f0 0c    	rorx   $0xc,%rax,%r14
  4014d6:	67 4f 03 34 f7       	add    (%r15d,%r14d,8),%r14
  4014db:	c4 c3 fb f0 ce 34    	rorx   $0x34,%r14,%rcx
  4014e1:	bf a0 4a f5 00       	mov    $0xf54aa0,%edi
  4014e6:	be a1 06 45 00       	mov    $0x4506a1,%esi
  4014eb:	31 c0                	xor    %eax,%eax
  4014ed:	68 f4 14 40 00       	pushq  $0x4014f4
  4014f2:	ff e1                	jmpq   *%rcx

00000000004014f4 <.L70$pb>:
  4014f4:	c4 63 fb f0 f3 0c    	rorx   $0xc,%rbx,%r14
  4014fa:	67 4f 03 34 f7       	add    (%r15d,%r14d,8),%r14
  4014ff:	c4 c3 fb f0 c6 34    	rorx   $0x34,%r14,%rax
  401505:	bf a0 4a f5 00       	mov    $0xf54aa0,%edi
  40150a:	68 11 15 40 00       	pushq  $0x401511
  40150f:	ff e0                	jmpq   *%rax

0000000000401511 <.L80$pb>:
  401511:	b8 10 1b 40 00       	mov    $0x401b10,%eax
  401516:	c4 63 fb f0 f0 0c    	rorx   $0xc,%rax,%r14
  40151c:	67 4f 03 34 f7       	add    (%r15d,%r14d,8),%r14
  401521:	c4 c3 fb f0 c6 34    	rorx   $0x34,%r14,%rax
  401527:	44 89 e7             	mov    %r12d,%edi
  40152a:	48 8b b4 24 80 00 00 	mov    0x80(%rsp),%rsi
  401531:	00 
  401532:	48 8b 54 24 78       	mov    0x78(%rsp),%rdx
  401537:	48 8b 4c 24 70       	mov    0x70(%rsp),%rcx
  40153c:	68 43 15 40 00       	pushq  $0x401543
  401541:	ff e0                	jmpq   *%rax

0000000000401543 <.L90$pb>:
  401543:	b9 a0 26 65 00       	mov    $0x6526a0,%ecx
  401548:	c4 63 fb f0 f1 0c    	rorx   $0xc,%rcx,%r14
  40154e:	67 4f 03 34 f7       	add    (%r15d,%r14d,8),%r14
  401553:	c4 c3 fb f0 de 34    	rorx   $0x34,%r14,%rbx
  401559:	bf e0 1a 40 00       	mov    $0x401ae0,%edi
  40155e:	b9 f0 26 65 00       	mov    $0x6526f0,%ecx
  401563:	c4 63 fb f0 f1 0c    	rorx   $0xc,%rcx,%r14
  401569:	67 4f 03 34 f7       	add    (%r15d,%r14d,8),%r14
  40156e:	c4 c3 fb f0 ee 34    	rorx   $0x34,%r14,%rbp
  401574:	85 c0                	test   %eax,%eax
  401576:	74 61                	je     4015d9 <.L120$pb>
  401578:	c4 63 fb f0 f7 0c    	rorx   $0xc,%rdi,%r14
  40157e:	67 4f 03 34 f7       	add    (%r15d,%r14d,8),%r14
  401583:	c4 c3 fb f0 c6 34    	rorx   $0x34,%r14,%rax
  401589:	bf a9 06 45 00       	mov    $0x4506a9,%edi
  40158e:	68 95 15 40 00       	pushq  $0x401595
  401593:	ff e0                	jmpq   *%rax

0000000000401595 <.L100$pb>:
  401595:	b8 e0 1a 40 00       	mov    $0x401ae0,%eax
  40159a:	c4 63 fb f0 f0 0c    	rorx   $0xc,%rax,%r14
  4015a0:	67 4f 03 34 f7       	add    (%r15d,%r14d,8),%r14
  4015a5:	c4 c3 fb f0 c6 34    	rorx   $0x34,%r14,%rax
  4015ab:	bf f2 06 45 00       	mov    $0x4506f2,%edi
  4015b0:	68 b7 15 40 00       	pushq  $0x4015b7
  4015b5:	ff e0                	jmpq   *%rax

00000000004015b7 <.L110$pb>:
  4015b7:	b8 e0 1a 40 00       	mov    $0x401ae0,%eax
  4015bc:	c4 63 fb f0 f0 0c    	rorx   $0xc,%rax,%r14
  4015c2:	67 4f 03 34 f7       	add    (%r15d,%r14d,8),%r14
  4015c7:	c4 c3 fb f0 c6 34    	rorx   $0x34,%r14,%rax
  4015cd:	bf 38 07 45 00       	mov    $0x450738,%edi
  4015d2:	68 d9 15 40 00       	pushq  $0x4015d9
  4015d7:	ff e0                	jmpq   *%rax

00000000004015d9 <.L120$pb>:
  4015d9:	41 83 fc 09          	cmp    $0x9,%r12d
  4015dd:	48 8b 4c 24 38       	mov    0x38(%rsp),%rcx
  4015e2:	77 44                	ja     401628 <.L120$pb+0x4f>
  4015e4:	b8 10 03 00 00       	mov    $0x310,%eax
  4015e9:	44 0f a3 e0          	bt     %r12d,%eax
  4015ed:	73 39                	jae    401628 <.L120$pb+0x4f>
  4015ef:	f2 0f 10 44 24 40    	movsd  0x40(%rsp),%xmm0
  4015f5:	66 0f 28 c8          	movapd %xmm0,%xmm1
  4015f9:	f2 42 0f 5e 0c e3    	divsd  (%rbx,%r12,8),%xmm1
  4015ff:	f2 0f 10 54 24 20    	movsd  0x20(%rsp),%xmm2
  401605:	f2 0f 59 d1          	mulsd  %xmm1,%xmm2
  401609:	f2 0f 11 54 24 20    	movsd  %xmm2,0x20(%rsp)
  40160f:	f2 42 0f 5e 44 e5 00 	divsd  0x0(%rbp,%r12,8),%xmm0
  401616:	f2 0f 10 4c 24 18    	movsd  0x18(%rsp),%xmm1
  40161c:	f2 0f 59 c8          	mulsd  %xmm0,%xmm1
  401620:	f2 0f 11 4c 24 18    	movsd  %xmm1,0x18(%rsp)
  401626:	eb 50                	jmp    401678 <.L120$pb+0x9f>
  401628:	f2 0f 10 44 24 40    	movsd  0x40(%rsp),%xmm0
  40162e:	66 0f 28 c8          	movapd %xmm0,%xmm1
  401632:	f2 42 0f 5e 0c e3    	divsd  (%rbx,%r12,8),%xmm1
  401638:	f2 0f 10 54 24 10    	movsd  0x10(%rsp),%xmm2
  40163e:	f2 0f 59 d1          	mulsd  %xmm1,%xmm2
  401642:	f2 0f 11 54 24 10    	movsd  %xmm2,0x10(%rsp)
  401648:	41 83 fc 07          	cmp    $0x7,%r12d
  40164c:	0f 87 4b fe ff ff    	ja     40149d <.L60$pb+0x42>
  401652:	b8 c9 00 00 00       	mov    $0xc9,%eax
  401657:	44 0f a3 e0          	bt     %r12d,%eax
  40165b:	0f 83 3c fe ff ff    	jae    40149d <.L60$pb+0x42>
  401661:	f2 42 0f 5e 44 e5 00 	divsd  0x0(%rbp,%r12,8),%xmm0
  401668:	f2 0f 10 4c 24 08    	movsd  0x8(%rsp),%xmm1
  40166e:	f2 0f 59 c8          	mulsd  %xmm0,%xmm1
  401672:	f2 0f 11 4c 24 08    	movsd  %xmm1,0x8(%rsp)
  401678:	bb e0 1a 40 00       	mov    $0x401ae0,%ebx
  40167d:	49 ff c4             	inc    %r12
  401680:	49 83 fc 0a          	cmp    $0xa,%r12
  401684:	0f 85 2d fe ff ff    	jne    4014b7 <.L60$pb+0x5c>
  40168a:	b8 3c 4f f5 00       	mov    $0xf54f3c,%eax
  40168f:	c4 63 fb f0 f0 0c    	rorx   $0xc,%rax,%r14
  401695:	67 4f 03 34 f7       	add    (%r15d,%r14d,8),%r14
  40169a:	c4 c3 fb f0 c6 34    	rorx   $0x34,%r14,%rax
  4016a0:	83 38 00             	cmpl   $0x0,(%rax)
  4016a3:	0f 85 99 02 00 00    	jne    401942 <.L320$pb>
  4016a9:	bb e0 1a 40 00       	mov    $0x401ae0,%ebx
  4016ae:	c4 63 fb f0 f3 0c    	rorx   $0xc,%rbx,%r14
  4016b4:	67 4f 03 34 f7       	add    (%r15d,%r14d,8),%r14
  4016b9:	c4 c3 fb f0 c6 34    	rorx   $0x34,%r14,%rax
  4016bf:	bf 4e 07 45 00       	mov    $0x45074e,%edi
  4016c4:	68 cb 16 40 00       	pushq  $0x4016cb
  4016c9:	ff e0                	jmpq   *%rax

00000000004016cb <.L130$pb>:
  4016cb:	41 bc 00 00 42 00    	mov    $0x420000,%r12d
  4016d1:	c4 43 fb f0 f4 0c    	rorx   $0xc,%r12,%r14
  4016d7:	67 4f 03 34 f7       	add    (%r15d,%r14d,8),%r14
  4016dc:	c4 c3 fb f0 c6 34    	rorx   $0x34,%r14,%rax
  4016e2:	f2 0f 10 44 24 10    	movsd  0x10(%rsp),%xmm0
  4016e8:	f2 0f 10 4c 24 48    	movsd  0x48(%rsp),%xmm1
  4016ee:	68 f5 16 40 00       	pushq  $0x4016f5
  4016f3:	ff e0                	jmpq   *%rax

00000000004016f5 <.L140$pb>:
  4016f5:	bd 00 30 42 00       	mov    $0x423000,%ebp
  4016fa:	c4 63 fb f0 f5 0c    	rorx   $0xc,%rbp,%r14
  401700:	67 4f 03 34 f7       	add    (%r15d,%r14d,8),%r14
  401705:	c4 c3 fb f0 ce 34    	rorx   $0x34,%r14,%rcx
  40170b:	bf a0 4a f5 00       	mov    $0xf54aa0,%edi
  401710:	be 9d 07 45 00       	mov    $0x45079d,%esi
  401715:	b0 01                	mov    $0x1,%al
  401717:	68 1e 17 40 00       	pushq  $0x40171e
  40171c:	ff e1                	jmpq   *%rcx

000000000040171e <.L150$pb>:
  40171e:	c4 63 fb f0 f3 0c    	rorx   $0xc,%rbx,%r14
  401724:	67 4f 03 34 f7       	add    (%r15d,%r14d,8),%r14
  401729:	c4 c3 fb f0 c6 34    	rorx   $0x34,%r14,%rax
  40172f:	bf a0 4a f5 00       	mov    $0xf54aa0,%edi
  401734:	68 3b 17 40 00       	pushq  $0x40173b
  401739:	ff e0                	jmpq   *%rax

000000000040173b <.L160$pb>:
  40173b:	c4 43 fb f0 f4 0c    	rorx   $0xc,%r12,%r14
  401741:	67 4f 03 34 f7       	add    (%r15d,%r14d,8),%r14
  401746:	c4 c3 fb f0 c6 34    	rorx   $0x34,%r14,%rax
  40174c:	f2 0f 10 44 24 20    	movsd  0x20(%rsp),%xmm0
  401752:	f2 0f 10 4c 24 50    	movsd  0x50(%rsp),%xmm1
  401758:	68 5f 17 40 00       	pushq  $0x40175f
  40175d:	ff e0                	jmpq   *%rax

000000000040175f <.L170$pb>:
  40175f:	c4 63 fb f0 f5 0c    	rorx   $0xc,%rbp,%r14
  401765:	67 4f 03 34 f7       	add    (%r15d,%r14d,8),%r14
  40176a:	c4 c3 fb f0 ce 34    	rorx   $0x34,%r14,%rcx
  401770:	bf a0 4a f5 00       	mov    $0xf54aa0,%edi
  401775:	be b9 07 45 00       	mov    $0x4507b9,%esi
  40177a:	b0 01                	mov    $0x1,%al
  40177c:	68 83 17 40 00       	pushq  $0x401783
  401781:	ff e1                	jmpq   *%rcx

0000000000401783 <.L180$pb>:
  401783:	c4 63 fb f0 f3 0c    	rorx   $0xc,%rbx,%r14
  401789:	67 4f 03 34 f7       	add    (%r15d,%r14d,8),%r14
  40178e:	c4 c3 fb f0 c6 34    	rorx   $0x34,%r14,%rax
  401794:	bf a0 4a f5 00       	mov    $0xf54aa0,%edi
  401799:	68 a0 17 40 00       	pushq  $0x4017a0
  40179e:	ff e0                	jmpq   *%rax

00000000004017a0 <.L190$pb>:
  4017a0:	c4 63 fb f0 f3 0c    	rorx   $0xc,%rbx,%r14
  4017a6:	67 4f 03 34 f7       	add    (%r15d,%r14d,8),%r14
  4017ab:	c4 c3 fb f0 c6 34    	rorx   $0x34,%r14,%rax
  4017b1:	bf d5 07 45 00       	mov    $0x4507d5,%edi
  4017b6:	68 bd 17 40 00       	pushq  $0x4017bd
  4017bb:	ff e0                	jmpq   *%rax

00000000004017bd <.L200$pb>:
  4017bd:	c4 63 fb f0 f3 0c    	rorx   $0xc,%rbx,%r14
  4017c3:	67 4f 03 34 f7       	add    (%r15d,%r14d,8),%r14
  4017c8:	c4 c3 fb f0 c6 34    	rorx   $0x34,%r14,%rax
  4017ce:	bf 20 08 45 00       	mov    $0x450820,%edi
  4017d3:	68 da 17 40 00       	pushq  $0x4017da
  4017d8:	ff e0                	jmpq   *%rax

00000000004017da <.L210$pb>:
  4017da:	c4 43 fb f0 f4 0c    	rorx   $0xc,%r12,%r14
  4017e0:	67 4f 03 34 f7       	add    (%r15d,%r14d,8),%r14
  4017e5:	c4 c3 fb f0 c6 34    	rorx   $0x34,%r14,%rax
  4017eb:	f2 0f 10 04 24       	movsd  (%rsp),%xmm0
  4017f0:	f2 0f 10 4c 24 30    	movsd  0x30(%rsp),%xmm1
  4017f6:	68 fd 17 40 00       	pushq  $0x4017fd
  4017fb:	ff e0                	jmpq   *%rax

00000000004017fd <.L220$pb>:
  4017fd:	c4 63 fb f0 f5 0c    	rorx   $0xc,%rbp,%r14
  401803:	67 4f 03 34 f7       	add    (%r15d,%r14d,8),%r14
  401808:	c4 c3 fb f0 ce 34    	rorx   $0x34,%r14,%rcx
  40180e:	bf a0 4a f5 00       	mov    $0xf54aa0,%edi
  401813:	be 6f 08 45 00       	mov    $0x45086f,%esi
  401818:	b0 01                	mov    $0x1,%al
  40181a:	68 21 18 40 00       	pushq  $0x401821
  40181f:	ff e1                	jmpq   *%rcx

0000000000401821 <.L230$pb>:
  401821:	c4 63 fb f0 f3 0c    	rorx   $0xc,%rbx,%r14
  401827:	67 4f 03 34 f7       	add    (%r15d,%r14d,8),%r14
  40182c:	c4 c3 fb f0 c6 34    	rorx   $0x34,%r14,%rax
  401832:	bf a0 4a f5 00       	mov    $0xf54aa0,%edi
  401837:	68 3e 18 40 00       	pushq  $0x40183e
  40183c:	ff e0                	jmpq   *%rax

000000000040183e <.L240$pb>:
  40183e:	c4 43 fb f0 f4 0c    	rorx   $0xc,%r12,%r14
  401844:	67 4f 03 34 f7       	add    (%r15d,%r14d,8),%r14
  401849:	c4 c3 fb f0 c6 34    	rorx   $0x34,%r14,%rax
  40184f:	f2 0f 10 44 24 08    	movsd  0x8(%rsp),%xmm0
  401855:	f2 0f 10 4c 24 58    	movsd  0x58(%rsp),%xmm1
  40185b:	68 62 18 40 00       	pushq  $0x401862
  401860:	ff e0                	jmpq   *%rax

0000000000401862 <.L250$pb>:
  401862:	c4 63 fb f0 f5 0c    	rorx   $0xc,%rbp,%r14
  401868:	67 4f 03 34 f7       	add    (%r15d,%r14d,8),%r14
  40186d:	c4 c3 fb f0 ce 34    	rorx   $0x34,%r14,%rcx
  401873:	bf a0 4a f5 00       	mov    $0xf54aa0,%edi
  401878:	be 9d 07 45 00       	mov    $0x45079d,%esi
  40187d:	b0 01                	mov    $0x1,%al
  40187f:	68 86 18 40 00       	pushq  $0x401886
  401884:	ff e1                	jmpq   *%rcx

0000000000401886 <.L260$pb>:
  401886:	c4 63 fb f0 f3 0c    	rorx   $0xc,%rbx,%r14
  40188c:	67 4f 03 34 f7       	add    (%r15d,%r14d,8),%r14
  401891:	c4 c3 fb f0 c6 34    	rorx   $0x34,%r14,%rax
  401897:	bf a0 4a f5 00       	mov    $0xf54aa0,%edi
  40189c:	68 a3 18 40 00       	pushq  $0x4018a3
  4018a1:	ff e0                	jmpq   *%rax

00000000004018a3 <.L270$pb>:
  4018a3:	c4 43 fb f0 f4 0c    	rorx   $0xc,%r12,%r14
  4018a9:	67 4f 03 34 f7       	add    (%r15d,%r14d,8),%r14
  4018ae:	c4 c3 fb f0 c6 34    	rorx   $0x34,%r14,%rax
  4018b4:	f2 0f 10 44 24 18    	movsd  0x18(%rsp),%xmm0
  4018ba:	f2 0f 10 4c 24 30    	movsd  0x30(%rsp),%xmm1
  4018c0:	68 c7 18 40 00       	pushq  $0x4018c7
  4018c5:	ff e0                	jmpq   *%rax

00000000004018c7 <.L280$pb>:
  4018c7:	c4 63 fb f0 f5 0c    	rorx   $0xc,%rbp,%r14
  4018cd:	67 4f 03 34 f7       	add    (%r15d,%r14d,8),%r14
  4018d2:	c4 c3 fb f0 ce 34    	rorx   $0x34,%r14,%rcx
  4018d8:	bf a0 4a f5 00       	mov    $0xf54aa0,%edi
  4018dd:	be b9 07 45 00       	mov    $0x4507b9,%esi
  4018e2:	b0 01                	mov    $0x1,%al
  4018e4:	68 eb 18 40 00       	pushq  $0x4018eb
  4018e9:	ff e1                	jmpq   *%rcx

00000000004018eb <.L290$pb>:
  4018eb:	c4 63 fb f0 f3 0c    	rorx   $0xc,%rbx,%r14
  4018f1:	67 4f 03 34 f7       	add    (%r15d,%r14d,8),%r14
  4018f6:	c4 c3 fb f0 c6 34    	rorx   $0x34,%r14,%rax
  4018fc:	bf a0 4a f5 00       	mov    $0xf54aa0,%edi
  401901:	68 08 19 40 00       	pushq  $0x401908
  401906:	ff e0                	jmpq   *%rax

0000000000401908 <.L300$pb>:
  401908:	c4 63 fb f0 f3 0c    	rorx   $0xc,%rbx,%r14
  40190e:	67 4f 03 34 f7       	add    (%r15d,%r14d,8),%r14
  401913:	c4 c3 fb f0 c6 34    	rorx   $0x34,%r14,%rax
  401919:	bf 8b 08 45 00       	mov    $0x45088b,%edi
  40191e:	68 25 19 40 00       	pushq  $0x401925
  401923:	ff e0                	jmpq   *%rax

0000000000401925 <.L310$pb>:
  401925:	c4 63 fb f0 f3 0c    	rorx   $0xc,%rbx,%r14
  40192b:	67 4f 03 34 f7       	add    (%r15d,%r14d,8),%r14
  401930:	c4 c3 fb f0 c6 34    	rorx   $0x34,%r14,%rax
  401936:	bf d9 08 45 00       	mov    $0x4508d9,%edi
  40193b:	68 42 19 40 00       	pushq  $0x401942
  401940:	ff e0                	jmpq   *%rax

0000000000401942 <.L320$pb>:
  401942:	b8 00 60 41 00       	mov    $0x416000,%eax
  401947:	c4 63 fb f0 f0 0c    	rorx   $0xc,%rax,%r14
  40194d:	67 4f 03 34 f7       	add    (%r15d,%r14d,8),%r14
  401952:	c4 c3 fb f0 c6 34    	rorx   $0x34,%r14,%rax
  401958:	31 ff                	xor    %edi,%edi
  40195a:	68 61 19 40 00       	pushq  $0x401961
  40195f:	ff e0                	jmpq   *%rax

0000000000401961 <.L330$pb>:
  401961:	66 66 66 66 66 66 2e 	data32 data32 data32 data32 data32 nopw %cs:0x0(%rax,%rax,1)
  401968:	0f 1f 84 00 00 00 00 
  40196f:	00 

0000000000401970 <set_request_secs>:
  401970:	49 81 ed 20 00 00 00 	sub    $0x20,%r13
  401977:	55                   	push   %rbp
  401978:	41 54                	push   %r12
  40197a:	53                   	push   %rbx
  40197b:	b8 d8 4e f5 00       	mov    $0xf54ed8,%eax
  401980:	c4 63 fb f0 f0 0c    	rorx   $0xc,%rax,%r14
  401986:	67 4f 03 34 f7       	add    (%r15d,%r14d,8),%r14
  40198b:	c4 43 fb f0 d6 34    	rorx   $0x34,%r14,%r10
  401991:	b8 80 4f f5 00       	mov    $0xf54f80,%eax
  401996:	c4 63 fb f0 f0 0c    	rorx   $0xc,%rax,%r14
  40199c:	67 4f 03 34 f7       	add    (%r15d,%r14d,8),%r14
  4019a1:	c4 43 fb f0 c6 34    	rorx   $0x34,%r14,%r8
  4019a7:	b9 40 4f f5 00       	mov    $0xf54f40,%ecx
  4019ac:	c4 63 fb f0 f1 0c    	rorx   $0xc,%rcx,%r14
  4019b2:	67 4f 03 34 f7       	add    (%r15d,%r14d,8),%r14
  4019b7:	c4 43 fb f0 ce 34    	rorx   $0x34,%r14,%r9
  4019bd:	be b0 44 f5 00       	mov    $0xf544b0,%esi
  4019c2:	c4 63 fb f0 f6 0c    	rorx   $0xc,%rsi,%r14
  4019c8:	67 4f 03 34 f7       	add    (%r15d,%r14d,8),%r14
  4019cd:	c4 43 fb f0 e6 34    	rorx   $0x34,%r14,%r12
  4019d3:	bf a8 4f f5 00       	mov    $0xf54fa8,%edi
  4019d8:	c4 63 fb f0 f7 0c    	rorx   $0xc,%rdi,%r14
  4019de:	67 4f 03 34 f7       	add    (%r15d,%r14d,8),%r14
  4019e3:	c4 c3 fb f0 fe 34    	rorx   $0x34,%r14,%rdi
  4019e9:	b8 30 49 f5 00       	mov    $0xf54930,%eax
  4019ee:	c4 63 fb f0 f0 0c    	rorx   $0xc,%rax,%r14
  4019f4:	67 4f 03 34 f7       	add    (%r15d,%r14d,8),%r14
  4019f9:	c4 c3 fb f0 c6 34    	rorx   $0x34,%r14,%rax
  4019ff:	b9 60 4f f5 00       	mov    $0xf54f60,%ecx
  401a04:	c4 63 fb f0 f1 0c    	rorx   $0xc,%rcx,%r14
  401a0a:	67 4f 03 34 f7       	add    (%r15d,%r14d,8),%r14
  401a0f:	c4 43 fb f0 de 34    	rorx   $0x34,%r14,%r11
  401a15:	ba a0 4e f5 00       	mov    $0xf54ea0,%edx
  401a1a:	c4 63 fb f0 f2 0c    	rorx   $0xc,%rdx,%r14
  401a20:	67 4f 03 34 f7       	add    (%r15d,%r14d,8),%r14
  401a25:	c4 c3 fb f0 d6 34    	rorx   $0x34,%r14,%rdx
  401a2b:	b9 08 49 f5 00       	mov    $0xf54908,%ecx
  401a30:	c4 63 fb f0 f1 0c    	rorx   $0xc,%rcx,%r14
  401a36:	67 4f 03 34 f7       	add    (%r15d,%r14d,8),%r14
  401a3b:	c4 c3 fb f0 ce 34    	rorx   $0x34,%r14,%rcx
  401a41:	bb c8 4e f5 00       	mov    $0xf54ec8,%ebx
  401a46:	c4 63 fb f0 f3 0c    	rorx   $0xc,%rbx,%r14
  401a4c:	67 4f 03 34 f7       	add    (%r15d,%r14d,8),%r14
  401a51:	c4 c3 fb f0 de 34    	rorx   $0x34,%r14,%rbx
  401a57:	be e8 48 f5 00       	mov    $0xf548e8,%esi
  401a5c:	c4 63 fb f0 f6 0c    	rorx   $0xc,%rsi,%r14
  401a62:	67 4f 03 34 f7       	add    (%r15d,%r14d,8),%r14
  401a67:	c4 c3 fb f0 f6 34    	rorx   $0x34,%r14,%rsi
  401a6d:	48 8b 2b             	mov    (%rbx),%rbp
  401a70:	48 89 69 08          	mov    %rbp,0x8(%rcx)
  401a74:	48 8b 0b             	mov    (%rbx),%rcx
  401a77:	49 89 4a 08          	mov    %rcx,0x8(%r10)
  401a7b:	48 8b 0b             	mov    (%rbx),%rcx
  401a7e:	48 89 48 08          	mov    %rcx,0x8(%rax)
  401a82:	48 8b 03             	mov    (%rbx),%rax
  401a85:	49 89 44 24 08       	mov    %rax,0x8(%r12)
  401a8a:	48 8b 03             	mov    (%rbx),%rax
  401a8d:	48 89 47 08          	mov    %rax,0x8(%rdi)
  401a91:	48 8b 03             	mov    (%rbx),%rax
  401a94:	49 89 41 08          	mov    %rax,0x8(%r9)
  401a98:	48 8b 03             	mov    (%rbx),%rax
  401a9b:	49 89 40 08          	mov    %rax,0x8(%r8)
  401a9f:	48 8b 03             	mov    (%rbx),%rax
  401aa2:	48 89 42 08          	mov    %rax,0x8(%rdx)
  401aa6:	48 8b 03             	mov    (%rbx),%rax
  401aa9:	49 89 43 08          	mov    %rax,0x8(%r11)
  401aad:	48 8b 03             	mov    (%rbx),%rax
  401ab0:	48 89 46 08          	mov    %rax,0x8(%rsi)
  401ab4:	5b                   	pop    %rbx
  401ab5:	41 5c                	pop    %r12
  401ab7:	5d                   	pop    %rbp
  401ab8:	49 81 c5 20 00 00 00 	add    $0x20,%r13
  401abf:	41 5e                	pop    %r14
  401ac1:	c4 43 fb f0 f6 0c    	rorx   $0xc,%r14,%r14
  401ac7:	67 4f 03 34 f7       	add    (%r15d,%r14d,8),%r14
  401acc:	c4 43 fb f0 f6 34    	rorx   $0x34,%r14,%r14
  401ad2:	41 ff e6             	jmpq   *%r14
  401ad5:	66 66 2e 0f 1f 84 00 	data32 nopw %cs:0x0(%rax,%rax,1)
  401adc:	00 00 00 00 

0000000000401ae0 <output_string>:
  401ae0:	49 81 ed 08 00 00 00 	sub    $0x8,%r13
  401ae7:	b8 80 63 42 00       	mov    $0x426380,%eax
  401aec:	c4 63 fb f0 f0 0c    	rorx   $0xc,%rax,%r14
  401af2:	67 4f 03 34 f7       	add    (%r15d,%r14d,8),%r14
  401af7:	c4 c3 fb f0 c6 34    	rorx   $0x34,%r14,%rax
  401afd:	49 81 c5 08 00 00 00 	add    $0x8,%r13
  401b04:	ff e0                	jmpq   *%rax
  401b06:	66 2e 0f 1f 84 00 00 	nopw   %cs:0x0(%rax,%rax,1)
  401b0d:	00 00 00 

0000000000401b10 <bench_with_confidence>:
  401b10:	c4 43 fb f0 f5 3c    	rorx   $0x3c,%r13,%r14
  401b16:	66 41 81 fe 80 16    	cmp    $0x1680,%r14w
  401b1c:	73 22                	jae    401b40 <bench_with_confidence+0x30>
  401b1e:	49 c1 ee 10          	shr    $0x10,%r14
  401b22:	67 4f 03 74 f7 f8    	add    -0x8(%r15d,%r14d,8),%r14
  401b28:	49 c1 e6 0c          	shl    $0xc,%r14
  401b2c:	49 8d 26             	lea    (%r14),%rsp
  401b2f:	54                   	push   %rsp
  401b30:	41 55                	push   %r13
  401b32:	41 55                	push   %r13
  401b34:	4d 23 2f             	and    (%r15),%r13
  401b37:	49 81 ed 60 01 00 00 	sub    $0x160,%r13
  401b3e:	eb 0b                	jmp    401b4b <bench_with_confidence+0x3b>
  401b40:	41 55                	push   %r13
  401b42:	41 55                	push   %r13
  401b44:	49 81 ed 60 01 00 00 	sub    $0x160,%r13
  401b4b:	55                   	push   %rbp
  401b4c:	41 54                	push   %r12
  401b4e:	53                   	push   %rbx
  401b4f:	48 81 ec 30 01 00 00 	sub    $0x130,%rsp
  401b56:	48 89 4c 24 08       	mov    %rcx,0x8(%rsp)
  401b5b:	48 89 54 24 28       	mov    %rdx,0x28(%rsp)
  401b60:	48 89 74 24 20       	mov    %rsi,0x20(%rsp)
  401b65:	48 b8 9a 99 99 99 99 	movabs $0x3fa999999999999a,%rax
  401b6c:	99 a9 3f 
  401b6f:	48 89 44 24 38       	mov    %rax,0x38(%rsp)
  401b74:	f2 0f 10 44 24 38    	movsd  0x38(%rsp),%xmm0
  401b7a:	f2 0f 11 44 24 10    	movsd  %xmm0,0x10(%rsp)
  401b80:	b8 e0 28 65 00       	mov    $0x6528e0,%eax
  401b85:	c4 63 fb f0 f0 0c    	rorx   $0xc,%rax,%r14
  401b8b:	67 4f 03 34 f7       	add    (%r15d,%r14d,8),%r14
  401b90:	c4 c3 fb f0 de 34    	rorx   $0x34,%r14,%rbx
  401b96:	48 8d 44 24 30       	lea    0x30(%rsp),%rax
  401b9b:	49 8d 45 30          	lea    0x30(%r13),%rax
  401b9f:	48 89 44 24 18       	mov    %rax,0x18(%rsp)
  401ba4:	4c 63 e7             	movslq %edi,%r12
  401ba7:	31 ed                	xor    %ebp,%ebp
  401ba9:	4a 8b 04 e3          	mov    (%rbx,%r12,8),%rax
  401bad:	c4 63 fb f0 f0 0c    	rorx   $0xc,%rax,%r14
  401bb3:	67 4f 03 34 f7       	add    (%r15d,%r14d,8),%r14
  401bb8:	c4 c3 fb f0 c6 34    	rorx   $0x34,%r14,%rax
  401bbe:	68 c5 1b 40 00       	pushq  $0x401bc5
  401bc3:	ff e0                	jmpq   *%rax

0000000000401bc5 <.L343$pb>:
  401bc5:	b8 00 20 40 00       	mov    $0x402000,%eax
  401bca:	c4 63 fb f0 f0 0c    	rorx   $0xc,%rax,%r14
  401bd0:	67 4f 03 34 f7       	add    (%r15d,%r14d,8),%r14
  401bd5:	c4 c3 fb f0 c6 34    	rorx   $0x34,%r14,%rax
  401bdb:	44 89 e7             	mov    %r12d,%edi
  401bde:	68 e5 1b 40 00       	pushq  $0x401be5
  401be3:	ff e0                	jmpq   *%rax

0000000000401be5 <.L353$pb>:
  401be5:	f2 0f 11 44 ec 40    	movsd  %xmm0,0x40(%rsp,%rbp,8)
  401beb:	48 ff c5             	inc    %rbp
  401bee:	48 83 fd 05          	cmp    $0x5,%rbp
  401bf2:	75 b5                	jne    401ba9 <bench_with_confidence+0x99>
  401bf4:	48 8b 5c 24 08       	mov    0x8(%rsp),%rbx
  401bf9:	c4 63 fb f0 f3 0c    	rorx   $0xc,%rbx,%r14
  401bff:	67 4f 03 34 f7       	add    (%r15d,%r14d,8),%r14
  401c04:	c4 c3 fb f0 c6 34    	rorx   $0x34,%r14,%rax
  401c0a:	48 c7 00 05 00 00 00 	movq   $0x5,(%rax)
  401c11:	48 8b 6c 24 20       	mov    0x20(%rsp),%rbp
  401c16:	eb 59                	jmp    401c71 <.L373$pb+0x1d>
  401c18:	4a 8b 04 e1          	mov    (%rcx,%r12,8),%rax
  401c1c:	c4 63 fb f0 f0 0c    	rorx   $0xc,%rax,%r14
  401c22:	67 4f 03 34 f7       	add    (%r15d,%r14d,8),%r14
  401c27:	c4 c3 fb f0 c6 34    	rorx   $0x34,%r14,%rax
  401c2d:	68 34 1c 40 00       	pushq  $0x401c34
  401c32:	ff e0                	jmpq   *%rax

0000000000401c34 <.L363$pb>:
  401c34:	b8 00 20 40 00       	mov    $0x402000,%eax
  401c39:	c4 63 fb f0 f0 0c    	rorx   $0xc,%rax,%r14
  401c3f:	67 4f 03 34 f7       	add    (%r15d,%r14d,8),%r14
  401c44:	c4 c3 fb f0 c6 34    	rorx   $0x34,%r14,%rax
  401c4a:	44 89 e7             	mov    %r12d,%edi
  401c4d:	68 54 1c 40 00       	pushq  $0x401c54
  401c52:	ff e0                	jmpq   *%rax

0000000000401c54 <.L373$pb>:
  401c54:	c4 63 fb f0 f3 0c    	rorx   $0xc,%rbx,%r14
  401c5a:	67 4f 03 34 f7       	add    (%r15d,%r14d,8),%r14
  401c5f:	c4 c3 fb f0 c6 34    	rorx   $0x34,%r14,%rax
  401c65:	48 8b 08             	mov    (%rax),%rcx
  401c68:	f2 0f 11 44 cc 40    	movsd  %xmm0,0x40(%rsp,%rcx,8)
  401c6e:	48 ff 00             	incq   (%rax)
  401c71:	48 8d 4c 24 40       	lea    0x40(%rsp),%rcx
  401c76:	49 8d 7d 40          	lea    0x40(%r13),%rdi
  401c7a:	8b 30                	mov    (%rax),%esi
  401c7c:	b8 c0 21 40 00       	mov    $0x4021c0,%eax
  401c81:	c4 63 fb f0 f0 0c    	rorx   $0xc,%rax,%r14
  401c87:	67 4f 03 34 f7       	add    (%r15d,%r14d,8),%r14
  401c8c:	c4 c3 fb f0 c6 34    	rorx   $0x34,%r14,%rax
  401c92:	48 8b 54 24 18       	mov    0x18(%rsp),%rdx
  401c97:	48 89 e9             	mov    %rbp,%rcx
  401c9a:	4c 8b 44 24 28       	mov    0x28(%rsp),%r8
  401c9f:	68 a6 1c 40 00       	pushq  $0x401ca6
  401ca4:	ff e0                	jmpq   *%rax

0000000000401ca6 <.L383$pb>:
  401ca6:	c4 63 fb f0 f3 0c    	rorx   $0xc,%rbx,%r14
  401cac:	67 4f 03 34 f7       	add    (%r15d,%r14d,8),%r14
  401cb1:	c4 c3 fb f0 d6 34    	rorx   $0x34,%r14,%rdx
  401cb7:	b9 e0 28 65 00       	mov    $0x6528e0,%ecx
  401cbc:	c4 63 fb f0 f1 0c    	rorx   $0xc,%rcx,%r14
  401cc2:	67 4f 03 34 f7       	add    (%r15d,%r14d,8),%r14
  401cc7:	c4 c3 fb f0 ce 34    	rorx   $0x34,%r14,%rcx
  401ccd:	c4 63 fb f0 f5 0c    	rorx   $0xc,%rbp,%r14
  401cd3:	67 4f 03 34 f7       	add    (%r15d,%r14d,8),%r14
  401cd8:	c4 c3 fb f0 f6 34    	rorx   $0x34,%r14,%rsi
  401cde:	85 c0                	test   %eax,%eax
  401ce0:	b8 ff ff ff ff       	mov    $0xffffffff,%eax
  401ce5:	75 24                	jne    401d0b <.L383$pb+0x65>
  401ce7:	f2 0f 10 44 24 30    	movsd  0x30(%rsp),%xmm0
  401ced:	f2 0f 5e 06          	divsd  (%rsi),%xmm0
  401cf1:	f2 0f 10 4c 24 10    	movsd  0x10(%rsp),%xmm1
  401cf7:	66 0f 2e c8          	ucomisd %xmm0,%xmm1
  401cfb:	73 0c                	jae    401d09 <.L383$pb+0x63>
  401cfd:	48 83 3a 1e          	cmpq   $0x1e,(%rdx)
  401d01:	0f 85 11 ff ff ff    	jne    401c18 <.L353$pb+0x33>
  401d07:	eb 02                	jmp    401d0b <.L383$pb+0x65>
  401d09:	31 c0                	xor    %eax,%eax
  401d0b:	48 8b 9c 24 30 01 00 	mov    0x130(%rsp),%rbx
  401d12:	00 
  401d13:	4c 8b a4 24 38 01 00 	mov    0x138(%rsp),%r12
  401d1a:	00 
  401d1b:	48 8b ac 24 40 01 00 	mov    0x140(%rsp),%rbp
  401d22:	00 
  401d23:	4c 8b ac 24 48 01 00 	mov    0x148(%rsp),%r13
  401d2a:	00 
  401d2b:	c4 43 fb f0 f5 0c    	rorx   $0xc,%r13,%r14
  401d31:	67 4f 03 34 f7       	add    (%r15d,%r14d,8),%r14
  401d36:	c4 c3 fb f0 e6 34    	rorx   $0x34,%r14,%rsp
  401d3c:	c4 63 fb f0 74 24 f8 	rorx   $0xc,-0x8(%rsp),%r14
  401d43:	0c 
  401d44:	67 4f 03 34 f7       	add    (%r15d,%r14d,8),%r14
  401d49:	c4 43 fb f0 f6 34    	rorx   $0x34,%r14,%r14
  401d4f:	41 ff e6             	jmpq   *%r14
  401d52:	66 66 66 66 66 66 2e 	data32 data32 data32 data32 data32 nopw %cs:0x0(%rax,%rax,1)
  401d59:	0f 1f 84 00 00 00 00 
  401d60:	00 
  401d61:	66 66 66 66 66 66 2e 	data32 data32 data32 data32 data32 nopw %cs:0x0(%rax,%rax,1)
  401d68:	0f 1f 84 00 00 00 00 
  401d6f:	00 
  401d70:	66 66 66 66 66 66 2e 	data32 data32 data32 data32 data32 nopw %cs:0x0(%rax,%rax,1)
  401d77:	0f 1f 84 00 00 00 00 
  401d7e:	00 
  401d7f:	66 66 66 66 66 66 2e 	data32 data32 data32 data32 data32 nopw %cs:0x0(%rax,%rax,1)
  401d86:	0f 1f 84 00 00 00 00 
  401d8d:	00 
  401d8e:	66 66 66 66 66 66 2e 	data32 data32 data32 data32 data32 nopw %cs:0x0(%rax,%rax,1)
  401d95:	0f 1f 84 00 00 00 00 
  401d9c:	00 
  401d9d:	66 66 66 66 66 66 2e 	data32 data32 data32 data32 data32 nopw %cs:0x0(%rax,%rax,1)
  401da4:	0f 1f 84 00 00 00 00 
  401dab:	00 
  401dac:	66 66 66 66 66 66 2e 	data32 data32 data32 data32 data32 nopw %cs:0x0(%rax,%rax,1)
  401db3:	0f 1f 84 00 00 00 00 
  401dba:	00 
  401dbb:	66 66 66 66 66 66 2e 	data32 data32 data32 data32 data32 nopw %cs:0x0(%rax,%rax,1)
  401dc2:	0f 1f 84 00 00 00 00 
  401dc9:	00 
  401dca:	66 66 66 66 66 66 2e 	data32 data32 data32 data32 data32 nopw %cs:0x0(%rax,%rax,1)
  401dd1:	0f 1f 84 00 00 00 00 
  401dd8:	00 
  401dd9:	66 66 66 66 66 66 2e 	data32 data32 data32 data32 data32 nopw %cs:0x0(%rax,%rax,1)
  401de0:	0f 1f 84 00 00 00 00 
  401de7:	00 
  401de8:	66 66 66 66 66 66 2e 	data32 data32 data32 data32 data32 nopw %cs:0x0(%rax,%rax,1)
  401def:	0f 1f 84 00 00 00 00 
  401df6:	00 
  401df7:	66 66 66 66 66 66 2e 	data32 data32 data32 data32 data32 nopw %cs:0x0(%rax,%rax,1)
  401dfe:	0f 1f 84 00 00 00 00 
  401e05:	00 
  401e06:	66 66 66 66 66 66 2e 	data32 data32 data32 data32 data32 nopw %cs:0x0(%rax,%rax,1)
  401e0d:	0f 1f 84 00 00 00 00 
  401e14:	00 
  401e15:	66 66 66 66 66 66 2e 	data32 data32 data32 data32 data32 nopw %cs:0x0(%rax,%rax,1)
  401e1c:	0f 1f 84 00 00 00 00 
  401e23:	00 
  401e24:	66 66 66 66 66 66 2e 	data32 data32 data32 data32 data32 nopw %cs:0x0(%rax,%rax,1)
  401e2b:	0f 1f 84 00 00 00 00 
  401e32:	00 
  401e33:	66 66 66 66 66 66 2e 	data32 data32 data32 data32 data32 nopw %cs:0x0(%rax,%rax,1)
  401e3a:	0f 1f 84 00 00 00 00 
  401e41:	00 
  401e42:	66 66 66 66 66 66 2e 	data32 data32 data32 data32 data32 nopw %cs:0x0(%rax,%rax,1)
  401e49:	0f 1f 84 00 00 00 00 
  401e50:	00 
  401e51:	66 66 66 66 66 66 2e 	data32 data32 data32 data32 data32 nopw %cs:0x0(%rax,%rax,1)
  401e58:	0f 1f 84 00 00 00 00 
  401e5f:	00 
  401e60:	66 66 66 66 66 66 2e 	data32 data32 data32 data32 data32 nopw %cs:0x0(%rax,%rax,1)
  401e67:	0f 1f 84 00 00 00 00 
  401e6e:	00 
  401e6f:	66 66 66 66 66 66 2e 	data32 data32 data32 data32 data32 nopw %cs:0x0(%rax,%rax,1)
  401e76:	0f 1f 84 00 00 00 00 
  401e7d:	00 
  401e7e:	66 66 66 66 66 66 2e 	data32 data32 data32 data32 data32 nopw %cs:0x0(%rax,%rax,1)
  401e85:	0f 1f 84 00 00 00 00 
  401e8c:	00 
  401e8d:	66 66 66 66 66 66 2e 	data32 data32 data32 data32 data32 nopw %cs:0x0(%rax,%rax,1)
  401e94:	0f 1f 84 00 00 00 00 
  401e9b:	00 
  401e9c:	66 66 66 66 66 66 2e 	data32 data32 data32 data32 data32 nopw %cs:0x0(%rax,%rax,1)
  401ea3:	0f 1f 84 00 00 00 00 
  401eaa:	00 
  401eab:	66 66 66 66 66 66 2e 	data32 data32 data32 data32 data32 nopw %cs:0x0(%rax,%rax,1)
  401eb2:	0f 1f 84 00 00 00 00 
  401eb9:	00 
  401eba:	66 66 66 66 66 66 2e 	data32 data32 data32 data32 data32 nopw %cs:0x0(%rax,%rax,1)
  401ec1:	0f 1f 84 00 00 00 00 
  401ec8:	00 
  401ec9:	66 66 66 66 66 66 2e 	data32 data32 data32 data32 data32 nopw %cs:0x0(%rax,%rax,1)
  401ed0:	0f 1f 84 00 00 00 00 
  401ed7:	00 
  401ed8:	66 66 66 66 66 66 2e 	data32 data32 data32 data32 data32 nopw %cs:0x0(%rax,%rax,1)
  401edf:	0f 1f 84 00 00 00 00 
  401ee6:	00 
  401ee7:	66 66 66 66 66 66 2e 	data32 data32 data32 data32 data32 nopw %cs:0x0(%rax,%rax,1)
  401eee:	0f 1f 84 00 00 00 00 
  401ef5:	00 
  401ef6:	66 66 66 66 66 66 2e 	data32 data32 data32 data32 data32 nopw %cs:0x0(%rax,%rax,1)
  401efd:	0f 1f 84 00 00 00 00 
  401f04:	00 
  401f05:	66 66 66 66 66 66 2e 	data32 data32 data32 data32 data32 nopw %cs:0x0(%rax,%rax,1)
  401f0c:	0f 1f 84 00 00 00 00 
  401f13:	00 
  401f14:	66 66 66 66 66 66 2e 	data32 data32 data32 data32 data32 nopw %cs:0x0(%rax,%rax,1)
  401f1b:	0f 1f 84 00 00 00 00 
  401f22:	00 
  401f23:	66 66 66 66 66 66 2e 	data32 data32 data32 data32 data32 nopw %cs:0x0(%rax,%rax,1)
  401f2a:	0f 1f 84 00 00 00 00 
  401f31:	00 
  401f32:	66 66 66 66 66 66 2e 	data32 data32 data32 data32 data32 nopw %cs:0x0(%rax,%rax,1)
  401f39:	0f 1f 84 00 00 00 00 
  401f40:	00 
  401f41:	66 66 66 66 66 66 2e 	data32 data32 data32 data32 data32 nopw %cs:0x0(%rax,%rax,1)
  401f48:	0f 1f 84 00 00 00 00 
  401f4f:	00 
  401f50:	66 66 66 66 66 66 2e 	data32 data32 data32 data32 data32 nopw %cs:0x0(%rax,%rax,1)
  401f57:	0f 1f 84 00 00 00 00 
  401f5e:	00 
  401f5f:	66 66 66 66 66 66 2e 	data32 data32 data32 data32 data32 nopw %cs:0x0(%rax,%rax,1)
  401f66:	0f 1f 84 00 00 00 00 
  401f6d:	00 
  401f6e:	66 66 66 66 66 66 2e 	data32 data32 data32 data32 data32 nopw %cs:0x0(%rax,%rax,1)
  401f75:	0f 1f 84 00 00 00 00 
  401f7c:	00 
  401f7d:	66 66 66 66 66 66 2e 	data32 data32 data32 data32 data32 nopw %cs:0x0(%rax,%rax,1)
  401f84:	0f 1f 84 00 00 00 00 
  401f8b:	00 
  401f8c:	66 66 66 66 66 66 2e 	data32 data32 data32 data32 data32 nopw %cs:0x0(%rax,%rax,1)
  401f93:	0f 1f 84 00 00 00 00 
  401f9a:	00 
  401f9b:	66 66 66 66 66 66 2e 	data32 data32 data32 data32 data32 nopw %cs:0x0(%rax,%rax,1)
  401fa2:	0f 1f 84 00 00 00 00 
  401fa9:	00 
  401faa:	66 66 66 66 66 66 2e 	data32 data32 data32 data32 data32 nopw %cs:0x0(%rax,%rax,1)
  401fb1:	0f 1f 84 00 00 00 00 
  401fb8:	00 
  401fb9:	66 66 66 66 66 66 2e 	data32 data32 data32 data32 data32 nopw %cs:0x0(%rax,%rax,1)
  401fc0:	0f 1f 84 00 00 00 00 
  401fc7:	00 
  401fc8:	66 66 66 66 66 66 2e 	data32 data32 data32 data32 data32 nopw %cs:0x0(%rax,%rax,1)
  401fcf:	0f 1f 84 00 00 00 00 
  401fd6:	00 
  401fd7:	66 66 66 66 66 66 2e 	data32 data32 data32 data32 data32 nopw %cs:0x0(%rax,%rax,1)
  401fde:	0f 1f 84 00 00 00 00 
  401fe5:	00 
  401fe6:	66 66 66 66 66 66 2e 	data32 data32 data32 data32 data32 nopw %cs:0x0(%rax,%rax,1)
  401fed:	0f 1f 84 00 00 00 00 
  401ff4:	00 
  401ff5:	66 66 2e 0f 1f 84 00 	data32 nopw %cs:0x0(%rax,%rax,1)
  401ffc:	00 00 00 00 

0000000000402000 <getscore>:
  402000:	49 81 ed 20 00 00 00 	sub    $0x20,%r13
  402007:	41 54                	push   %r12
  402009:	53                   	push   %rbx
  40200a:	50                   	push   %rax
  40200b:	48 c7 04 24 00 00 00 	movq   $0x0,(%rsp)
  402012:	00 
  402013:	f2 0f 10 04 24       	movsd  (%rsp),%xmm0
  402018:	b8 08 49 f5 00       	mov    $0xf54908,%eax
  40201d:	c4 63 fb f0 f0 0c    	rorx   $0xc,%rax,%r14
  402023:	67 4f 03 34 f7       	add    (%r15d,%r14d,8),%r14
  402028:	c4 c3 fb f0 c6 34    	rorx   $0x34,%r14,%rax
  40202e:	b9 a0 4e f5 00       	mov    $0xf54ea0,%ecx
  402033:	c4 63 fb f0 f1 0c    	rorx   $0xc,%rcx,%r14
  402039:	67 4f 03 34 f7       	add    (%r15d,%r14d,8),%r14
  40203e:	c4 43 fb f0 ce 34    	rorx   $0x34,%r14,%r9
  402044:	b9 60 4f f5 00       	mov    $0xf54f60,%ecx
  402049:	c4 63 fb f0 f1 0c    	rorx   $0xc,%rcx,%r14
  40204f:	67 4f 03 34 f7       	add    (%r15d,%r14d,8),%r14
  402054:	c4 43 fb f0 c6 34    	rorx   $0x34,%r14,%r8
  40205a:	b9 d8 4e f5 00       	mov    $0xf54ed8,%ecx
  40205f:	c4 63 fb f0 f1 0c    	rorx   $0xc,%rcx,%r14
  402065:	67 4f 03 34 f7       	add    (%r15d,%r14d,8),%r14
  40206a:	c4 43 fb f0 d6 34    	rorx   $0x34,%r14,%r10
  402070:	b9 30 49 f5 00       	mov    $0xf54930,%ecx
  402075:	c4 63 fb f0 f1 0c    	rorx   $0xc,%rcx,%r14
  40207b:	67 4f 03 34 f7       	add    (%r15d,%r14d,8),%r14
  402080:	c4 c3 fb f0 f6 34    	rorx   $0x34,%r14,%rsi
  402086:	b9 b0 44 f5 00       	mov    $0xf544b0,%ecx
  40208b:	c4 63 fb f0 f1 0c    	rorx   $0xc,%rcx,%r14
  402091:	67 4f 03 34 f7       	add    (%r15d,%r14d,8),%r14
  402096:	c4 43 fb f0 e6 34    	rorx   $0x34,%r14,%r12
  40209c:	b9 a8 4f f5 00       	mov    $0xf54fa8,%ecx
  4020a1:	c4 63 fb f0 f1 0c    	rorx   $0xc,%rcx,%r14
  4020a7:	67 4f 03 34 f7       	add    (%r15d,%r14d,8),%r14
  4020ac:	c4 43 fb f0 de 34    	rorx   $0x34,%r14,%r11
  4020b2:	b9 40 4f f5 00       	mov    $0xf54f40,%ecx
  4020b7:	c4 63 fb f0 f1 0c    	rorx   $0xc,%rcx,%r14
  4020bd:	67 4f 03 34 f7       	add    (%r15d,%r14d,8),%r14
  4020c2:	c4 c3 fb f0 d6 34    	rorx   $0x34,%r14,%rdx
  4020c8:	b9 80 4f f5 00       	mov    $0xf54f80,%ecx
  4020cd:	c4 63 fb f0 f1 0c    	rorx   $0xc,%rcx,%r14
  4020d3:	67 4f 03 34 f7       	add    (%r15d,%r14d,8),%r14
  4020d8:	c4 c3 fb f0 de 34    	rorx   $0x34,%r14,%rbx
  4020de:	b9 e8 48 f5 00       	mov    $0xf548e8,%ecx
  4020e3:	c4 63 fb f0 f1 0c    	rorx   $0xc,%rcx,%r14
  4020e9:	67 4f 03 34 f7       	add    (%r15d,%r14d,8),%r14
  4020ee:	c4 c3 fb f0 ce 34    	rorx   $0x34,%r14,%rcx
  4020f4:	83 ff 04             	cmp    $0x4,%edi
  4020f7:	7f 21                	jg     40211a <getscore+0x11a>
  4020f9:	83 ff 01             	cmp    $0x1,%edi
  4020fc:	7e 39                	jle    402137 <getscore+0x137>
  4020fe:	83 ff 02             	cmp    $0x2,%edi
  402101:	74 59                	je     40215c <getscore+0x15c>
  402103:	83 ff 03             	cmp    $0x3,%edi
  402106:	74 5d                	je     402165 <getscore+0x165>
  402108:	83 ff 04             	cmp    $0x4,%edi
  40210b:	0f 85 80 00 00 00    	jne    402191 <getscore+0x191>
  402111:	49 83 c3 18          	add    $0x18,%r11
  402115:	4c 89 d8             	mov    %r11,%rax
  402118:	eb 73                	jmp    40218d <getscore+0x18d>
  40211a:	83 ff 06             	cmp    $0x6,%edi
  40211d:	7e 2a                	jle    402149 <getscore+0x149>
  40211f:	83 ff 07             	cmp    $0x7,%edi
  402122:	74 4a                	je     40216e <getscore+0x16e>
  402124:	83 ff 08             	cmp    $0x8,%edi
  402127:	74 4e                	je     402177 <getscore+0x177>
  402129:	83 ff 09             	cmp    $0x9,%edi
  40212c:	75 63                	jne    402191 <getscore+0x191>
  40212e:	48 83 c1 18          	add    $0x18,%rcx
  402132:	48 89 c8             	mov    %rcx,%rax
  402135:	eb 56                	jmp    40218d <getscore+0x18d>
  402137:	85 ff                	test   %edi,%edi
  402139:	74 45                	je     402180 <getscore+0x180>
  40213b:	83 ff 01             	cmp    $0x1,%edi
  40213e:	75 51                	jne    402191 <getscore+0x191>
  402140:	49 83 c2 10          	add    $0x10,%r10
  402144:	4c 89 d0             	mov    %r10,%rax
  402147:	eb 44                	jmp    40218d <getscore+0x18d>
  402149:	83 ff 05             	cmp    $0x5,%edi
  40214c:	74 38                	je     402186 <getscore+0x186>
  40214e:	83 ff 06             	cmp    $0x6,%edi
  402151:	75 3e                	jne    402191 <getscore+0x191>
  402153:	48 83 c3 20          	add    $0x20,%rbx
  402157:	48 89 d8             	mov    %rbx,%rax
  40215a:	eb 31                	jmp    40218d <getscore+0x18d>
  40215c:	48 83 c6 10          	add    $0x10,%rsi
  402160:	48 89 f0             	mov    %rsi,%rax
  402163:	eb 28                	jmp    40218d <getscore+0x18d>
  402165:	49 83 c4 20          	add    $0x20,%r12
  402169:	4c 89 e0             	mov    %r12,%rax
  40216c:	eb 1f                	jmp    40218d <getscore+0x18d>
  40216e:	49 83 c1 20          	add    $0x20,%r9
  402172:	4c 89 c8             	mov    %r9,%rax
  402175:	eb 16                	jmp    40218d <getscore+0x18d>
  402177:	49 83 c0 18          	add    $0x18,%r8
  40217b:	4c 89 c0             	mov    %r8,%rax
  40217e:	eb 0d                	jmp    40218d <getscore+0x18d>
  402180:	48 83 c0 10          	add    $0x10,%rax
  402184:	eb 07                	jmp    40218d <getscore+0x18d>
  402186:	48 83 c2 18          	add    $0x18,%rdx
  40218a:	48 89 d0             	mov    %rdx,%rax
  40218d:	f2 0f 10 00          	movsd  (%rax),%xmm0
  402191:	48 83 c4 08          	add    $0x8,%rsp
  402195:	5b                   	pop    %rbx
  402196:	41 5c                	pop    %r12
  402198:	49 81 c5 20 00 00 00 	add    $0x20,%r13
  40219f:	41 5e                	pop    %r14
  4021a1:	c4 43 fb f0 f6 0c    	rorx   $0xc,%r14,%r14
  4021a7:	67 4f 03 34 f7       	add    (%r15d,%r14d,8),%r14
  4021ac:	c4 43 fb f0 f6 34    	rorx   $0x34,%r14,%r14
  4021b2:	41 ff e6             	jmpq   *%r14
  4021b5:	66 66 2e 0f 1f 84 00 	data32 nopw %cs:0x0(%rax,%rax,1)
  4021bc:	00 00 00 00 

00000000004021c0 <calc_confidence>:
  4021c0:	c4 43 fb f0 f5 3c    	rorx   $0x3c,%r13,%r14
  4021c6:	66 41 81 fe 80 14    	cmp    $0x1480,%r14w
  4021cc:	73 22                	jae    4021f0 <calc_confidence+0x30>
  4021ce:	49 c1 ee 10          	shr    $0x10,%r14
  4021d2:	67 4f 03 74 f7 f8    	add    -0x8(%r15d,%r14d,8),%r14
  4021d8:	49 c1 e6 0c          	shl    $0xc,%r14
  4021dc:	49 8d 26             	lea    (%r14),%rsp
  4021df:	54                   	push   %rsp
  4021e0:	41 55                	push   %r13
  4021e2:	41 55                	push   %r13
  4021e4:	4d 23 2f             	and    (%r15),%r13
  4021e7:	49 81 ed 40 01 00 00 	sub    $0x140,%r13
  4021ee:	eb 0b                	jmp    4021fb <calc_confidence+0x3b>
  4021f0:	41 55                	push   %r13
  4021f2:	41 55                	push   %r13
  4021f4:	49 81 ed 40 01 00 00 	sub    $0x140,%r13
  4021fb:	55                   	push   %rbp
  4021fc:	41 54                	push   %r12
  4021fe:	53                   	push   %rbx
  4021ff:	48 81 ec 10 01 00 00 	sub    $0x110,%rsp
  402206:	48 89 54 24 18       	mov    %rdx,0x18(%rsp)
  40220b:	48 89 34 24          	mov    %rsi,(%rsp)
  40220f:	c4 63 fb f0 f7 0c    	rorx   $0xc,%rdi,%r14
  402215:	67 4f 03 34 f7       	add    (%r15d,%r14d,8),%r14
  40221a:	c4 c3 fb f0 de 34    	rorx   $0x34,%r14,%rbx
  402220:	4c 89 44 24 10       	mov    %r8,0x10(%rsp)
  402225:	c4 43 fb f0 f0 0c    	rorx   $0xc,%r8,%r14
  40222b:	67 4f 03 34 f7       	add    (%r15d,%r14d,8),%r14
  402230:	c4 43 fb f0 e6 34    	rorx   $0x34,%r14,%r12
  402236:	c4 63 fb f0 f1 0c    	rorx   $0xc,%rcx,%r14
  40223c:	67 4f 03 34 f7       	add    (%r15d,%r14d,8),%r14
  402241:	c4 c3 fb f0 ee 34    	rorx   $0x34,%r14,%rbp
  402247:	b8 60 09 45 00       	mov    $0x450960,%eax
  40224c:	c4 63 fb f0 f0 0c    	rorx   $0xc,%rax,%r14
  402252:	67 4f 03 34 f7       	add    (%r15d,%r14d,8),%r14
  402257:	c4 c3 fb f0 f6 34    	rorx   $0x34,%r14,%rsi
  40225d:	48 8d 7c 24 20       	lea    0x20(%rsp),%rdi
  402262:	ba f0 00 00 00       	mov    $0xf0,%edx
  402267:	49 be 60 fc 41 00 00 	movabs $0x41fc60,%r14
  40226e:	00 00 00 
  402271:	c4 43 fb f0 f6 0c    	rorx   $0xc,%r14,%r14
  402277:	67 4f 03 34 f7       	add    (%r15d,%r14d,8),%r14
  40227c:	c4 43 fb f0 f6 34    	rorx   $0x34,%r14,%r14
  402282:	68 8a 22 40 00       	pushq  $0x40228a
  402287:	41 ff e6             	jmpq   *%r14

000000000040228a <.L395$pb>:
  40228a:	48 8b 34 24          	mov    (%rsp),%rsi
  40228e:	8d 46 fe             	lea    -0x2(%rsi),%eax
  402291:	83 f8 1d             	cmp    $0x1d,%eax
  402294:	72 2c                	jb     4022c2 <.L405$pb+0xa>
  402296:	b8 e0 1a 40 00       	mov    $0x401ae0,%eax
  40229b:	c4 63 fb f0 f0 0c    	rorx   $0xc,%rax,%r14
  4022a1:	67 4f 03 34 f7       	add    (%r15d,%r14d,8),%r14
  4022a6:	c4 c3 fb f0 c6 34    	rorx   $0x34,%r14,%rax
  4022ac:	bf 10 09 45 00       	mov    $0x450910,%edi
  4022b1:	68 b8 22 40 00       	pushq  $0x4022b8
  4022b6:	ff e0                	jmpq   *%rax

00000000004022b8 <.L405$pb>:
  4022b8:	b8 ff ff ff ff       	mov    $0xffffffff,%eax
  4022bd:	e9 12 01 00 00       	jmpq   4023d4 <.L425$pb+0x25>
  4022c2:	48 c7 45 00 00 00 00 	movq   $0x0,0x0(%rbp)
  4022c9:	00 
  4022ca:	89 f0                	mov    %esi,%eax
  4022cc:	48 89 c1             	mov    %rax,%rcx
  4022cf:	48 89 da             	mov    %rbx,%rdx
  4022d2:	f2 0f 10 02          	movsd  (%rdx),%xmm0
  4022d6:	f2 0f 58 45 00       	addsd  0x0(%rbp),%xmm0
  4022db:	f2 0f 11 45 00       	movsd  %xmm0,0x0(%rbp)
  4022e0:	48 83 c2 08          	add    $0x8,%rdx
  4022e4:	48 ff c9             	dec    %rcx
  4022e7:	75 e9                	jne    4022d2 <.L405$pb+0x1a>
  4022e9:	f2 0f 2a ce          	cvtsi2sd %esi,%xmm1
  4022ed:	f2 0f 10 45 00       	movsd  0x0(%rbp),%xmm0
  4022f2:	f2 0f 11 4c 24 08    	movsd  %xmm1,0x8(%rsp)
  4022f8:	f2 0f 5e c1          	divsd  %xmm1,%xmm0
  4022fc:	f2 0f 11 45 00       	movsd  %xmm0,0x0(%rbp)
  402301:	49 c7 04 24 00 00 00 	movq   $0x0,(%r12)
  402308:	00 
  402309:	85 f6                	test   %esi,%esi
  40230b:	7e 22                	jle    40232f <.L405$pb+0x77>
  40230d:	f2 0f 10 03          	movsd  (%rbx),%xmm0
  402311:	f2 0f 5c 45 00       	subsd  0x0(%rbp),%xmm0
  402316:	f2 0f 59 c0          	mulsd  %xmm0,%xmm0
  40231a:	f2 41 0f 58 04 24    	addsd  (%r12),%xmm0
  402320:	f2 41 0f 11 04 24    	movsd  %xmm0,(%r12)
  402326:	48 83 c3 08          	add    $0x8,%rbx
  40232a:	48 ff c8             	dec    %rax
  40232d:	75 de                	jne    40230d <.L405$pb+0x55>
  40232f:	8d 46 ff             	lea    -0x1(%rsi),%eax
  402332:	0f 57 c9             	xorps  %xmm1,%xmm1
  402335:	f2 0f 2a c8          	cvtsi2sd %eax,%xmm1
  402339:	f2 41 0f 10 04 24    	movsd  (%r12),%xmm0
  40233f:	f2 0f 5e c1          	divsd  %xmm1,%xmm0
  402343:	f2 41 0f 11 04 24    	movsd  %xmm0,(%r12)
  402349:	bb 00 40 42 00       	mov    $0x424000,%ebx
  40234e:	c4 63 fb f0 f3 0c    	rorx   $0xc,%rbx,%r14
  402354:	67 4f 03 34 f7       	add    (%r15d,%r14d,8),%r14
  402359:	c4 c3 fb f0 c6 34    	rorx   $0x34,%r14,%rax
  40235f:	48 89 f5             	mov    %rsi,%rbp
  402362:	68 69 23 40 00       	pushq  $0x402369
  402367:	ff e0                	jmpq   *%rax

0000000000402369 <.L415$pb>:
  402369:	48 8b 44 24 10       	mov    0x10(%rsp),%rax
  40236e:	c4 63 fb f0 f0 0c    	rorx   $0xc,%rax,%r14
  402374:	67 4f 03 34 f7       	add    (%r15d,%r14d,8),%r14
  402379:	c4 c3 fb f0 c6 34    	rorx   $0x34,%r14,%rax
  40237f:	f2 0f 11 00          	movsd  %xmm0,(%rax)
  402383:	48 63 c5             	movslq %ebp,%rax
  402386:	f2 0f 59 44 c4 18    	mulsd  0x18(%rsp,%rax,8),%xmm0
  40238c:	f2 0f 11 04 24       	movsd  %xmm0,(%rsp)
  402391:	c4 63 fb f0 f3 0c    	rorx   $0xc,%rbx,%r14
  402397:	67 4f 03 34 f7       	add    (%r15d,%r14d,8),%r14
  40239c:	c4 c3 fb f0 c6 34    	rorx   $0x34,%r14,%rax
  4023a2:	f2 0f 10 44 24 08    	movsd  0x8(%rsp),%xmm0
  4023a8:	68 af 23 40 00       	pushq  $0x4023af
  4023ad:	ff e0                	jmpq   *%rax

00000000004023af <.L425$pb>:
  4023af:	f2 0f 10 0c 24       	movsd  (%rsp),%xmm1
  4023b4:	f2 0f 5e c8          	divsd  %xmm0,%xmm1
  4023b8:	48 8b 44 24 18       	mov    0x18(%rsp),%rax
  4023bd:	c4 63 fb f0 f0 0c    	rorx   $0xc,%rax,%r14
  4023c3:	67 4f 03 34 f7       	add    (%r15d,%r14d,8),%r14
  4023c8:	c4 c3 fb f0 c6 34    	rorx   $0x34,%r14,%rax
  4023ce:	f2 0f 11 08          	movsd  %xmm1,(%rax)
  4023d2:	31 c0                	xor    %eax,%eax
  4023d4:	48 8b 9c 24 10 01 00 	mov    0x110(%rsp),%rbx
  4023db:	00 
  4023dc:	4c 8b a4 24 18 01 00 	mov    0x118(%rsp),%r12
  4023e3:	00 
  4023e4:	48 8b ac 24 20 01 00 	mov    0x120(%rsp),%rbp
  4023eb:	00 
  4023ec:	4c 8b ac 24 28 01 00 	mov    0x128(%rsp),%r13
  4023f3:	00 
  4023f4:	c4 43 fb f0 f5 0c    	rorx   $0xc,%r13,%r14
  4023fa:	67 4f 03 34 f7       	add    (%r15d,%r14d,8),%r14
  4023ff:	c4 c3 fb f0 e6 34    	rorx   $0x34,%r14,%rsp
  402405:	c4 63 fb f0 74 24 f8 	rorx   $0xc,-0x8(%rsp),%r14
  40240c:	0c 
  40240d:	67 4f 03 34 f7       	add    (%r15d,%r14d,8),%r14
  402412:	c4 43 fb f0 f6 34    	rorx   $0x34,%r14,%r14
  402418:	41 ff e6             	jmpq   *%r14
  40241b:	66 2e 0f 1f 84 00 00 	nopw   %cs:0x0(%rax,%rax,1)
  402422:	00 00 00 
  402425:	66 2e 0f 1f 84 00 00 	nopw   %cs:0x0(%rax,%rax,1)
  40242c:	00 00 00 
  40242f:	66 2e 0f 1f 84 00 00 	nopw   %cs:0x0(%rax,%rax,1)
  402436:	00 00 00 
  402439:	66 2e 0f 1f 84 00 00 	nopw   %cs:0x0(%rax,%rax,1)
  402440:	00 00 00 
  402443:	66 2e 0f 1f 84 00 00 	nopw   %cs:0x0(%rax,%rax,1)
  40244a:	00 00 00 
  40244d:	66 2e 0f 1f 84 00 00 	nopw   %cs:0x0(%rax,%rax,1)
  402454:	00 00 00 
  402457:	66 2e 0f 1f 84 00 00 	nopw   %cs:0x0(%rax,%rax,1)
  40245e:	00 00 00 
  402461:	66 2e 0f 1f 84 00 00 	nopw   %cs:0x0(%rax,%rax,1)
  402468:	00 00 00 
  40246b:	66 2e 0f 1f 84 00 00 	nopw   %cs:0x0(%rax,%rax,1)
  402472:	00 00 00 
  402475:	66 2e 0f 1f 84 00 00 	nopw   %cs:0x0(%rax,%rax,1)
  40247c:	00 00 00 
  40247f:	66 2e 0f 1f 84 00 00 	nopw   %cs:0x0(%rax,%rax,1)
  402486:	00 00 00 
  402489:	66 2e 0f 1f 84 00 00 	nopw   %cs:0x0(%rax,%rax,1)
  402490:	00 00 00 
  402493:	66 2e 0f 1f 84 00 00 	nopw   %cs:0x0(%rax,%rax,1)
  40249a:	00 00 00 
  40249d:	66 2e 0f 1f 84 00 00 	nopw   %cs:0x0(%rax,%rax,1)
  4024a4:	00 00 00 
  4024a7:	66 2e 0f 1f 84 00 00 	nopw   %cs:0x0(%rax,%rax,1)
  4024ae:	00 00 00 
  4024b1:	66 2e 0f 1f 84 00 00 	nopw   %cs:0x0(%rax,%rax,1)
  4024b8:	00 00 00 
  4024bb:	66 2e 0f 1f 84 00 00 	nopw   %cs:0x0(%rax,%rax,1)
  4024c2:	00 00 00 
  4024c5:	66 2e 0f 1f 84 00 00 	nopw   %cs:0x0(%rax,%rax,1)
  4024cc:	00 00 00 
  4024cf:	66 2e 0f 1f 84 00 00 	nopw   %cs:0x0(%rax,%rax,1)
  4024d6:	00 00 00 
  4024d9:	66 2e 0f 1f 84 00 00 	nopw   %cs:0x0(%rax,%rax,1)
  4024e0:	00 00 00 
  4024e3:	66 2e 0f 1f 84 00 00 	nopw   %cs:0x0(%rax,%rax,1)
  4024ea:	00 00 00 
  4024ed:	66 2e 0f 1f 84 00 00 	nopw   %cs:0x0(%rax,%rax,1)
  4024f4:	00 00 00 
  4024f7:	66 2e 0f 1f 84 00 00 	nopw   %cs:0x0(%rax,%rax,1)
  4024fe:	00 00 00 
  402501:	66 2e 0f 1f 84 00 00 	nopw   %cs:0x0(%rax,%rax,1)
  402508:	00 00 00 
  40250b:	66 2e 0f 1f 84 00 00 	nopw   %cs:0x0(%rax,%rax,1)
  402512:	00 00 00 
  402515:	66 2e 0f 1f 84 00 00 	nopw   %cs:0x0(%rax,%rax,1)
  40251c:	00 00 00 
  40251f:	66 2e 0f 1f 84 00 00 	nopw   %cs:0x0(%rax,%rax,1)
  402526:	00 00 00 
  402529:	66 2e 0f 1f 84 00 00 	nopw   %cs:0x0(%rax,%rax,1)
  402530:	00 00 00 
  402533:	66 2e 0f 1f 84 00 00 	nopw   %cs:0x0(%rax,%rax,1)
  40253a:	00 00 00 
  40253d:	66 2e 0f 1f 84 00 00 	nopw   %cs:0x0(%rax,%rax,1)
  402544:	00 00 00 
  402547:	66 2e 0f 1f 84 00 00 	nopw   %cs:0x0(%rax,%rax,1)
  40254e:	00 00 00 
  402551:	66 2e 0f 1f 84 00 00 	nopw   %cs:0x0(%rax,%rax,1)
  402558:	00 00 00 
  40255b:	66 2e 0f 1f 84 00 00 	nopw   %cs:0x0(%rax,%rax,1)
  402562:	00 00 00 
  402565:	66 2e 0f 1f 84 00 00 	nopw   %cs:0x0(%rax,%rax,1)
  40256c:	00 00 00 
  40256f:	66 2e 0f 1f 84 00 00 	nopw   %cs:0x0(%rax,%rax,1)
  402576:	00 00 00 
  402579:	66 2e 0f 1f 84 00 00 	nopw   %cs:0x0(%rax,%rax,1)
  402580:	00 00 00 
  402583:	66 2e 0f 1f 84 00 00 	nopw   %cs:0x0(%rax,%rax,1)
  40258a:	00 00 00 
  40258d:	66 2e 0f 1f 84 00 00 	nopw   %cs:0x0(%rax,%rax,1)
  402594:	00 00 00 
  402597:	66 2e 0f 1f 84 00 00 	nopw   %cs:0x0(%rax,%rax,1)
  40259e:	00 00 00 
  4025a1:	66 2e 0f 1f 84 00 00 	nopw   %cs:0x0(%rax,%rax,1)
  4025a8:	00 00 00 
  4025ab:	66 2e 0f 1f 84 00 00 	nopw   %cs:0x0(%rax,%rax,1)
  4025b2:	00 00 00 
  4025b5:	66 2e 0f 1f 84 00 00 	nopw   %cs:0x0(%rax,%rax,1)
  4025bc:	00 00 00 
  4025bf:	66 2e 0f 1f 84 00 00 	nopw   %cs:0x0(%rax,%rax,1)
  4025c6:	00 00 00 
  4025c9:	66 2e 0f 1f 84 00 00 	nopw   %cs:0x0(%rax,%rax,1)
  4025d0:	00 00 00 
  4025d3:	66 2e 0f 1f 84 00 00 	nopw   %cs:0x0(%rax,%rax,1)
  4025da:	00 00 00 
  4025dd:	66 2e 0f 1f 84 00 00 	nopw   %cs:0x0(%rax,%rax,1)
  4025e4:	00 00 00 
  4025e7:	66 2e 0f 1f 84 00 00 	nopw   %cs:0x0(%rax,%rax,1)
  4025ee:	00 00 00 
  4025f1:	66 2e 0f 1f 84 00 00 	nopw   %cs:0x0(%rax,%rax,1)
  4025f8:	00 00 00 
  4025fb:	66 2e 0f 1f 84 00 00 	nopw   %cs:0x0(%rax,%rax,1)
  402602:	00 00 00 
  402605:	66 2e 0f 1f 84 00 00 	nopw   %cs:0x0(%rax,%rax,1)
  40260c:	00 00 00 
  40260f:	66 2e 0f 1f 84 00 00 	nopw   %cs:0x0(%rax,%rax,1)
  402616:	00 00 00 
  402619:	66 2e 0f 1f 84 00 00 	nopw   %cs:0x0(%rax,%rax,1)
  402620:	00 00 00 
  402623:	66 2e 0f 1f 84 00 00 	nopw   %cs:0x0(%rax,%rax,1)
  40262a:	00 00 00 
  40262d:	66 2e 0f 1f 84 00 00 	nopw   %cs:0x0(%rax,%rax,1)
  402634:	00 00 00 
  402637:	66 2e 0f 1f 84 00 00 	nopw   %cs:0x0(%rax,%rax,1)
  40263e:	00 00 00 
  402641:	66 2e 0f 1f 84 00 00 	nopw   %cs:0x0(%rax,%rax,1)
  402648:	00 00 00 
  40264b:	66 2e 0f 1f 84 00 00 	nopw   %cs:0x0(%rax,%rax,1)
  402652:	00 00 00 
  402655:	66 2e 0f 1f 84 00 00 	nopw   %cs:0x0(%rax,%rax,1)
  40265c:	00 00 00 
  40265f:	66 2e 0f 1f 84 00 00 	nopw   %cs:0x0(%rax,%rax,1)
  402666:	00 00 00 
  402669:	66 2e 0f 1f 84 00 00 	nopw   %cs:0x0(%rax,%rax,1)
  402670:	00 00 00 
  402673:	66 2e 0f 1f 84 00 00 	nopw   %cs:0x0(%rax,%rax,1)
  40267a:	00 00 00 
  40267d:	66 2e 0f 1f 84 00 00 	nopw   %cs:0x0(%rax,%rax,1)
  402684:	00 00 00 
  402687:	66 2e 0f 1f 84 00 00 	nopw   %cs:0x0(%rax,%rax,1)
  40268e:	00 00 00 
  402691:	66 2e 0f 1f 84 00 00 	nopw   %cs:0x0(%rax,%rax,1)
  402698:	00 00 00 
  40269b:	66 2e 0f 1f 84 00 00 	nopw   %cs:0x0(%rax,%rax,1)
  4026a2:	00 00 00 
  4026a5:	66 2e 0f 1f 84 00 00 	nopw   %cs:0x0(%rax,%rax,1)
  4026ac:	00 00 00 
  4026af:	66 2e 0f 1f 84 00 00 	nopw   %cs:0x0(%rax,%rax,1)
  4026b6:	00 00 00 
  4026b9:	66 2e 0f 1f 84 00 00 	nopw   %cs:0x0(%rax,%rax,1)
  4026c0:	00 00 00 
  4026c3:	66 2e 0f 1f 84 00 00 	nopw   %cs:0x0(%rax,%rax,1)
  4026ca:	00 00 00 
  4026cd:	66 2e 0f 1f 84 00 00 	nopw   %cs:0x0(%rax,%rax,1)
  4026d4:	00 00 00 
  4026d7:	66 2e 0f 1f 84 00 00 	nopw   %cs:0x0(%rax,%rax,1)
  4026de:	00 00 00 
  4026e1:	66 2e 0f 1f 84 00 00 	nopw   %cs:0x0(%rax,%rax,1)
  4026e8:	00 00 00 
  4026eb:	66 2e 0f 1f 84 00 00 	nopw   %cs:0x0(%rax,%rax,1)
  4026f2:	00 00 00 
  4026f5:	66 2e 0f 1f 84 00 00 	nopw   %cs:0x0(%rax,%rax,1)
  4026fc:	00 00 00 
  4026ff:	66 2e 0f 1f 84 00 00 	nopw   %cs:0x0(%rax,%rax,1)
  402706:	00 00 00 
  402709:	66 2e 0f 1f 84 00 00 	nopw   %cs:0x0(%rax,%rax,1)
  402710:	00 00 00 
  402713:	66 2e 0f 1f 84 00 00 	nopw   %cs:0x0(%rax,%rax,1)
  40271a:	00 00 00 
  40271d:	66 2e 0f 1f 84 00 00 	nopw   %cs:0x0(%rax,%rax,1)
  402724:	00 00 00 
  402727:	66 2e 0f 1f 84 00 00 	nopw   %cs:0x0(%rax,%rax,1)
  40272e:	00 00 00 
  402731:	66 2e 0f 1f 84 00 00 	nopw   %cs:0x0(%rax,%rax,1)
  402738:	00 00 00 
  40273b:	66 2e 0f 1f 84 00 00 	nopw   %cs:0x0(%rax,%rax,1)
  402742:	00 00 00 
  402745:	66 2e 0f 1f 84 00 00 	nopw   %cs:0x0(%rax,%rax,1)
  40274c:	00 00 00 
  40274f:	66 2e 0f 1f 84 00 00 	nopw   %cs:0x0(%rax,%rax,1)
  402756:	00 00 00 
  402759:	66 2e 0f 1f 84 00 00 	nopw   %cs:0x0(%rax,%rax,1)
  402760:	00 00 00 
  402763:	66 2e 0f 1f 84 00 00 	nopw   %cs:0x0(%rax,%rax,1)
  40276a:	00 00 00 
  40276d:	66 2e 0f 1f 84 00 00 	nopw   %cs:0x0(%rax,%rax,1)
  402774:	00 00 00 
  402777:	66 2e 0f 1f 84 00 00 	nopw   %cs:0x0(%rax,%rax,1)
  40277e:	00 00 00 
  402781:	66 2e 0f 1f 84 00 00 	nopw   %cs:0x0(%rax,%rax,1)
  402788:	00 00 00 
  40278b:	66 2e 0f 1f 84 00 00 	nopw   %cs:0x0(%rax,%rax,1)
  402792:	00 00 00 
  402795:	66 2e 0f 1f 84 00 00 	nopw   %cs:0x0(%rax,%rax,1)
  40279c:	00 00 00 
  40279f:	66 2e 0f 1f 84 00 00 	nopw   %cs:0x0(%rax,%rax,1)
  4027a6:	00 00 00 
  4027a9:	66 2e 0f 1f 84 00 00 	nopw   %cs:0x0(%rax,%rax,1)
  4027b0:	00 00 00 
  4027b3:	66 2e 0f 1f 84 00 00 	nopw   %cs:0x0(%rax,%rax,1)
  4027ba:	00 00 00 
  4027bd:	66 2e 0f 1f 84 00 00 	nopw   %cs:0x0(%rax,%rax,1)
  4027c4:	00 00 00 
  4027c7:	66 2e 0f 1f 84 00 00 	nopw   %cs:0x0(%rax,%rax,1)
  4027ce:	00 00 00 
  4027d1:	66 2e 0f 1f 84 00 00 	nopw   %cs:0x0(%rax,%rax,1)
  4027d8:	00 00 00 
  4027db:	66 2e 0f 1f 84 00 00 	nopw   %cs:0x0(%rax,%rax,1)
  4027e2:	00 00 00 
  4027e5:	66 2e 0f 1f 84 00 00 	nopw   %cs:0x0(%rax,%rax,1)
  4027ec:	00 00 00 
  4027ef:	66 2e 0f 1f 84 00 00 	nopw   %cs:0x0(%rax,%rax,1)
  4027f6:	00 00 00 
  4027f9:	66 2e 0f 1f 84 00 00 	nopw   %cs:0x0(%rax,%rax,1)
  402800:	00 00 00 
  402803:	66 2e 0f 1f 84 00 00 	nopw   %cs:0x0(%rax,%rax,1)
  40280a:	00 00 00 
  40280d:	66 2e 0f 1f 84 00 00 	nopw   %cs:0x0(%rax,%rax,1)
  402814:	00 00 00 
  402817:	66 2e 0f 1f 84 00 00 	nopw   %cs:0x0(%rax,%rax,1)
  40281e:	00 00 00 
  402821:	66 2e 0f 1f 84 00 00 	nopw   %cs:0x0(%rax,%rax,1)
  402828:	00 00 00 
  40282b:	66 2e 0f 1f 84 00 00 	nopw   %cs:0x0(%rax,%rax,1)
  402832:	00 00 00 
  402835:	66 2e 0f 1f 84 00 00 	nopw   %cs:0x0(%rax,%rax,1)
  40283c:	00 00 00 
  40283f:	66 2e 0f 1f 84 00 00 	nopw   %cs:0x0(%rax,%rax,1)
  402846:	00 00 00 
  402849:	66 2e 0f 1f 84 00 00 	nopw   %cs:0x0(%rax,%rax,1)
  402850:	00 00 00 
  402853:	66 2e 0f 1f 84 00 00 	nopw   %cs:0x0(%rax,%rax,1)
  40285a:	00 00 00 
  40285d:	66 2e 0f 1f 84 00 00 	nopw   %cs:0x0(%rax,%rax,1)
  402864:	00 00 00 
  402867:	66 2e 0f 1f 84 00 00 	nopw   %cs:0x0(%rax,%rax,1)
  40286e:	00 00 00 
  402871:	66 2e 0f 1f 84 00 00 	nopw   %cs:0x0(%rax,%rax,1)
  402878:	00 00 00 
  40287b:	66 2e 0f 1f 84 00 00 	nopw   %cs:0x0(%rax,%rax,1)
  402882:	00 00 00 
  402885:	66 2e 0f 1f 84 00 00 	nopw   %cs:0x0(%rax,%rax,1)
  40288c:	00 00 00 
  40288f:	66 2e 0f 1f 84 00 00 	nopw   %cs:0x0(%rax,%rax,1)
  402896:	00 00 00 
  402899:	66 2e 0f 1f 84 00 00 	nopw   %cs:0x0(%rax,%rax,1)
  4028a0:	00 00 00 
  4028a3:	66 2e 0f 1f 84 00 00 	nopw   %cs:0x0(%rax,%rax,1)
  4028aa:	00 00 00 
  4028ad:	66 2e 0f 1f 84 00 00 	nopw   %cs:0x0(%rax,%rax,1)
  4028b4:	00 00 00 
  4028b7:	66 2e 0f 1f 84 00 00 	nopw   %cs:0x0(%rax,%rax,1)
  4028be:	00 00 00 
  4028c1:	66 2e 0f 1f 84 00 00 	nopw   %cs:0x0(%rax,%rax,1)
  4028c8:	00 00 00 
  4028cb:	66 2e 0f 1f 84 00 00 	nopw   %cs:0x0(%rax,%rax,1)
  4028d2:	00 00 00 
  4028d5:	66 2e 0f 1f 84 00 00 	nopw   %cs:0x0(%rax,%rax,1)
  4028dc:	00 00 00 
  4028df:	66 2e 0f 1f 84 00 00 	nopw   %cs:0x0(%rax,%rax,1)
  4028e6:	00 00 00 
  4028e9:	66 2e 0f 1f 84 00 00 	nopw   %cs:0x0(%rax,%rax,1)
  4028f0:	00 00 00 
  4028f3:	66 2e 0f 1f 84 00 00 	nopw   %cs:0x0(%rax,%rax,1)
  4028fa:	00 00 00 
  4028fd:	66 2e 0f 1f 84 00 00 	nopw   %cs:0x0(%rax,%rax,1)
  402904:	00 00 00 
  402907:	66 2e 0f 1f 84 00 00 	nopw   %cs:0x0(%rax,%rax,1)
  40290e:	00 00 00 
  402911:	66 2e 0f 1f 84 00 00 	nopw   %cs:0x0(%rax,%rax,1)
  402918:	00 00 00 
  40291b:	66 2e 0f 1f 84 00 00 	nopw   %cs:0x0(%rax,%rax,1)
  402922:	00 00 00 
  402925:	66 2e 0f 1f 84 00 00 	nopw   %cs:0x0(%rax,%rax,1)
  40292c:	00 00 00 
  40292f:	66 2e 0f 1f 84 00 00 	nopw   %cs:0x0(%rax,%rax,1)
  402936:	00 00 00 
  402939:	66 2e 0f 1f 84 00 00 	nopw   %cs:0x0(%rax,%rax,1)
  402940:	00 00 00 
  402943:	66 2e 0f 1f 84 00 00 	nopw   %cs:0x0(%rax,%rax,1)
  40294a:	00 00 00 
  40294d:	66 2e 0f 1f 84 00 00 	nopw   %cs:0x0(%rax,%rax,1)
  402954:	00 00 00 
  402957:	66 2e 0f 1f 84 00 00 	nopw   %cs:0x0(%rax,%rax,1)
  40295e:	00 00 00 
  402961:	66 2e 0f 1f 84 00 00 	nopw   %cs:0x0(%rax,%rax,1)
  402968:	00 00 00 
  40296b:	66 2e 0f 1f 84 00 00 	nopw   %cs:0x0(%rax,%rax,1)
  402972:	00 00 00 
  402975:	66 2e 0f 1f 84 00 00 	nopw   %cs:0x0(%rax,%rax,1)
  40297c:	00 00 00 
  40297f:	66 2e 0f 1f 84 00 00 	nopw   %cs:0x0(%rax,%rax,1)
  402986:	00 00 00 
  402989:	66 2e 0f 1f 84 00 00 	nopw   %cs:0x0(%rax,%rax,1)
  402990:	00 00 00 
  402993:	66 2e 0f 1f 84 00 00 	nopw   %cs:0x0(%rax,%rax,1)
  40299a:	00 00 00 
  40299d:	66 2e 0f 1f 84 00 00 	nopw   %cs:0x0(%rax,%rax,1)
  4029a4:	00 00 00 
  4029a7:	66 2e 0f 1f 84 00 00 	nopw   %cs:0x0(%rax,%rax,1)
  4029ae:	00 00 00 
  4029b1:	66 2e 0f 1f 84 00 00 	nopw   %cs:0x0(%rax,%rax,1)
  4029b8:	00 00 00 
  4029bb:	66 2e 0f 1f 84 00 00 	nopw   %cs:0x0(%rax,%rax,1)
  4029c2:	00 00 00 
  4029c5:	66 2e 0f 1f 84 00 00 	nopw   %cs:0x0(%rax,%rax,1)
  4029cc:	00 00 00 
  4029cf:	66 2e 0f 1f 84 00 00 	nopw   %cs:0x0(%rax,%rax,1)
  4029d6:	00 00 00 
  4029d9:	66 2e 0f 1f 84 00 00 	nopw   %cs:0x0(%rax,%rax,1)
  4029e0:	00 00 00 
  4029e3:	66 2e 0f 1f 84 00 00 	nopw   %cs:0x0(%rax,%rax,1)
  4029ea:	00 00 00 
  4029ed:	66 2e 0f 1f 84 00 00 	nopw   %cs:0x0(%rax,%rax,1)
  4029f4:	00 00 00 
  4029f7:	66 2e 0f 1f 84 00 00 	nopw   %cs:0x0(%rax,%rax,1)
  4029fe:	00 00 00 
  402a01:	66 2e 0f 1f 84 00 00 	nopw   %cs:0x0(%rax,%rax,1)
  402a08:	00 00 00 
  402a0b:	66 2e 0f 1f 84 00 00 	nopw   %cs:0x0(%rax,%rax,1)
  402a12:	00 00 00 
  402a15:	66 2e 0f 1f 84 00 00 	nopw   %cs:0x0(%rax,%rax,1)
  402a1c:	00 00 00 
  402a1f:	66 2e 0f 1f 84 00 00 	nopw   %cs:0x0(%rax,%rax,1)
  402a26:	00 00 00 
  402a29:	66 2e 0f 1f 84 00 00 	nopw   %cs:0x0(%rax,%rax,1)
  402a30:	00 00 00 
  402a33:	66 2e 0f 1f 84 00 00 	nopw   %cs:0x0(%rax,%rax,1)
  402a3a:	00 00 00 
  402a3d:	66 2e 0f 1f 84 00 00 	nopw   %cs:0x0(%rax,%rax,1)
  402a44:	00 00 00 
  402a47:	66 2e 0f 1f 84 00 00 	nopw   %cs:0x0(%rax,%rax,1)
  402a4e:	00 00 00 
  402a51:	66 2e 0f 1f 84 00 00 	nopw   %cs:0x0(%rax,%rax,1)
  402a58:	00 00 00 
  402a5b:	66 2e 0f 1f 84 00 00 	nopw   %cs:0x0(%rax,%rax,1)
  402a62:	00 00 00 
  402a65:	66 2e 0f 1f 84 00 00 	nopw   %cs:0x0(%rax,%rax,1)
  402a6c:	00 00 00 
  402a6f:	66 2e 0f 1f 84 00 00 	nopw   %cs:0x0(%rax,%rax,1)
  402a76:	00 00 00 
  402a79:	66 2e 0f 1f 84 00 00 	nopw   %cs:0x0(%rax,%rax,1)
  402a80:	00 00 00 
  402a83:	66 2e 0f 1f 84 00 00 	nopw   %cs:0x0(%rax,%rax,1)
  402a8a:	00 00 00 
  402a8d:	66 2e 0f 1f 84 00 00 	nopw   %cs:0x0(%rax,%rax,1)
  402a94:	00 00 00 
  402a97:	66 2e 0f 1f 84 00 00 	nopw   %cs:0x0(%rax,%rax,1)
  402a9e:	00 00 00 
  402aa1:	66 2e 0f 1f 84 00 00 	nopw   %cs:0x0(%rax,%rax,1)
  402aa8:	00 00 00 
  402aab:	66 2e 0f 1f 84 00 00 	nopw   %cs:0x0(%rax,%rax,1)
  402ab2:	00 00 00 
  402ab5:	66 2e 0f 1f 84 00 00 	nopw   %cs:0x0(%rax,%rax,1)
  402abc:	00 00 00 
  402abf:	66 2e 0f 1f 84 00 00 	nopw   %cs:0x0(%rax,%rax,1)
  402ac6:	00 00 00 
  402ac9:	66 2e 0f 1f 84 00 00 	nopw   %cs:0x0(%rax,%rax,1)
  402ad0:	00 00 00 
  402ad3:	66 2e 0f 1f 84 00 00 	nopw   %cs:0x0(%rax,%rax,1)
  402ada:	00 00 00 
  402add:	66 2e 0f 1f 84 00 00 	nopw   %cs:0x0(%rax,%rax,1)
  402ae4:	00 00 00 
  402ae7:	66 2e 0f 1f 84 00 00 	nopw   %cs:0x0(%rax,%rax,1)
  402aee:	00 00 00 
  402af1:	66 2e 0f 1f 84 00 00 	nopw   %cs:0x0(%rax,%rax,1)
  402af8:	00 00 00 
  402afb:	66 2e 0f 1f 84 00 00 	nopw   %cs:0x0(%rax,%rax,1)
  402b02:	00 00 00 
  402b05:	66 2e 0f 1f 84 00 00 	nopw   %cs:0x0(%rax,%rax,1)
  402b0c:	00 00 00 
  402b0f:	66 2e 0f 1f 84 00 00 	nopw   %cs:0x0(%rax,%rax,1)
  402b16:	00 00 00 
  402b19:	66 2e 0f 1f 84 00 00 	nopw   %cs:0x0(%rax,%rax,1)
  402b20:	00 00 00 
  402b23:	66 2e 0f 1f 84 00 00 	nopw   %cs:0x0(%rax,%rax,1)
  402b2a:	00 00 00 
  402b2d:	66 2e 0f 1f 84 00 00 	nopw   %cs:0x0(%rax,%rax,1)
  402b34:	00 00 00 
  402b37:	66 2e 0f 1f 84 00 00 	nopw   %cs:0x0(%rax,%rax,1)
  402b3e:	00 00 00 
  402b41:	66 2e 0f 1f 84 00 00 	nopw   %cs:0x0(%rax,%rax,1)
  402b48:	00 00 00 
  402b4b:	66 2e 0f 1f 84 00 00 	nopw   %cs:0x0(%rax,%rax,1)
  402b52:	00 00 00 
  402b55:	66 2e 0f 1f 84 00 00 	nopw   %cs:0x0(%rax,%rax,1)
  402b5c:	00 00 00 
  402b5f:	66 2e 0f 1f 84 00 00 	nopw   %cs:0x0(%rax,%rax,1)
  402b66:	00 00 00 
  402b69:	66 2e 0f 1f 84 00 00 	nopw   %cs:0x0(%rax,%rax,1)
  402b70:	00 00 00 
  402b73:	66 2e 0f 1f 84 00 00 	nopw   %cs:0x0(%rax,%rax,1)
  402b7a:	00 00 00 
  402b7d:	66 2e 0f 1f 84 00 00 	nopw   %cs:0x0(%rax,%rax,1)
  402b84:	00 00 00 
  402b87:	66 2e 0f 1f 84 00 00 	nopw   %cs:0x0(%rax,%rax,1)
  402b8e:	00 00 00 
  402b91:	66 2e 0f 1f 84 00 00 	nopw   %cs:0x0(%rax,%rax,1)
  402b98:	00 00 00 
  402b9b:	66 2e 0f 1f 84 00 00 	nopw   %cs:0x0(%rax,%rax,1)
  402ba2:	00 00 00 
  402ba5:	66 2e 0f 1f 84 00 00 	nopw   %cs:0x0(%rax,%rax,1)
  402bac:	00 00 00 
  402baf:	66 2e 0f 1f 84 00 00 	nopw   %cs:0x0(%rax,%rax,1)
  402bb6:	00 00 00 
  402bb9:	66 2e 0f 1f 84 00 00 	nopw   %cs:0x0(%rax,%rax,1)
  402bc0:	00 00 00 
  402bc3:	66 2e 0f 1f 84 00 00 	nopw   %cs:0x0(%rax,%rax,1)
  402bca:	00 00 00 
  402bcd:	66 2e 0f 1f 84 00 00 	nopw   %cs:0x0(%rax,%rax,1)
  402bd4:	00 00 00 
  402bd7:	66 2e 0f 1f 84 00 00 	nopw   %cs:0x0(%rax,%rax,1)
  402bde:	00 00 00 
  402be1:	66 2e 0f 1f 84 00 00 	nopw   %cs:0x0(%rax,%rax,1)
  402be8:	00 00 00 
  402beb:	66 2e 0f 1f 84 00 00 	nopw   %cs:0x0(%rax,%rax,1)
  402bf2:	00 00 00 
  402bf5:	66 2e 0f 1f 84 00 00 	nopw   %cs:0x0(%rax,%rax,1)
  402bfc:	00 00 00 
  402bff:	66 2e 0f 1f 84 00 00 	nopw   %cs:0x0(%rax,%rax,1)
  402c06:	00 00 00 
  402c09:	66 2e 0f 1f 84 00 00 	nopw   %cs:0x0(%rax,%rax,1)
  402c10:	00 00 00 
  402c13:	66 2e 0f 1f 84 00 00 	nopw   %cs:0x0(%rax,%rax,1)
  402c1a:	00 00 00 
  402c1d:	66 2e 0f 1f 84 00 00 	nopw   %cs:0x0(%rax,%rax,1)
  402c24:	00 00 00 
  402c27:	66 2e 0f 1f 84 00 00 	nopw   %cs:0x0(%rax,%rax,1)
  402c2e:	00 00 00 
  402c31:	66 2e 0f 1f 84 00 00 	nopw   %cs:0x0(%rax,%rax,1)
  402c38:	00 00 00 
  402c3b:	66 2e 0f 1f 84 00 00 	nopw   %cs:0x0(%rax,%rax,1)
  402c42:	00 00 00 
  402c45:	66 2e 0f 1f 84 00 00 	nopw   %cs:0x0(%rax,%rax,1)
  402c4c:	00 00 00 
  402c4f:	66 2e 0f 1f 84 00 00 	nopw   %cs:0x0(%rax,%rax,1)
  402c56:	00 00 00 
  402c59:	66 2e 0f 1f 84 00 00 	nopw   %cs:0x0(%rax,%rax,1)
  402c60:	00 00 00 
  402c63:	66 2e 0f 1f 84 00 00 	nopw   %cs:0x0(%rax,%rax,1)
  402c6a:	00 00 00 
  402c6d:	66 2e 0f 1f 84 00 00 	nopw   %cs:0x0(%rax,%rax,1)
  402c74:	00 00 00 
  402c77:	66 2e 0f 1f 84 00 00 	nopw   %cs:0x0(%rax,%rax,1)
  402c7e:	00 00 00 
  402c81:	66 2e 0f 1f 84 00 00 	nopw   %cs:0x0(%rax,%rax,1)
  402c88:	00 00 00 
  402c8b:	66 2e 0f 1f 84 00 00 	nopw   %cs:0x0(%rax,%rax,1)
  402c92:	00 00 00 
  402c95:	66 2e 0f 1f 84 00 00 	nopw   %cs:0x0(%rax,%rax,1)
  402c9c:	00 00 00 
  402c9f:	66 2e 0f 1f 84 00 00 	nopw   %cs:0x0(%rax,%rax,1)
  402ca6:	00 00 00 
  402ca9:	66 2e 0f 1f 84 00 00 	nopw   %cs:0x0(%rax,%rax,1)
  402cb0:	00 00 00 
  402cb3:	66 2e 0f 1f 84 00 00 	nopw   %cs:0x0(%rax,%rax,1)
  402cba:	00 00 00 
  402cbd:	66 2e 0f 1f 84 00 00 	nopw   %cs:0x0(%rax,%rax,1)
  402cc4:	00 00 00 
  402cc7:	66 2e 0f 1f 84 00 00 	nopw   %cs:0x0(%rax,%rax,1)
  402cce:	00 00 00 
  402cd1:	66 2e 0f 1f 84 00 00 	nopw   %cs:0x0(%rax,%rax,1)
  402cd8:	00 00 00 
  402cdb:	66 2e 0f 1f 84 00 00 	nopw   %cs:0x0(%rax,%rax,1)
  402ce2:	00 00 00 
  402ce5:	66 2e 0f 1f 84 00 00 	nopw   %cs:0x0(%rax,%rax,1)
  402cec:	00 00 00 
  402cef:	66 2e 0f 1f 84 00 00 	nopw   %cs:0x0(%rax,%rax,1)
  402cf6:	00 00 00 
  402cf9:	66 2e 0f 1f 84 00 00 	nopw   %cs:0x0(%rax,%rax,1)
  402d00:	00 00 00 
  402d03:	66 2e 0f 1f 84 00 00 	nopw   %cs:0x0(%rax,%rax,1)
  402d0a:	00 00 00 
  402d0d:	66 2e 0f 1f 84 00 00 	nopw   %cs:0x0(%rax,%rax,1)
  402d14:	00 00 00 
  402d17:	66 2e 0f 1f 84 00 00 	nopw   %cs:0x0(%rax,%rax,1)
  402d1e:	00 00 00 
  402d21:	66 2e 0f 1f 84 00 00 	nopw   %cs:0x0(%rax,%rax,1)
  402d28:	00 00 00 
  402d2b:	66 2e 0f 1f 84 00 00 	nopw   %cs:0x0(%rax,%rax,1)
  402d32:	00 00 00 
  402d35:	66 2e 0f 1f 84 00 00 	nopw   %cs:0x0(%rax,%rax,1)
  402d3c:	00 00 00 
  402d3f:	66 2e 0f 1f 84 00 00 	nopw   %cs:0x0(%rax,%rax,1)
  402d46:	00 00 00 
  402d49:	66 2e 0f 1f 84 00 00 	nopw   %cs:0x0(%rax,%rax,1)
  402d50:	00 00 00 
  402d53:	66 2e 0f 1f 84 00 00 	nopw   %cs:0x0(%rax,%rax,1)
  402d5a:	00 00 00 
  402d5d:	66 2e 0f 1f 84 00 00 	nopw   %cs:0x0(%rax,%rax,1)
  402d64:	00 00 00 
  402d67:	66 2e 0f 1f 84 00 00 	nopw   %cs:0x0(%rax,%rax,1)
  402d6e:	00 00 00 
  402d71:	66 2e 0f 1f 84 00 00 	nopw   %cs:0x0(%rax,%rax,1)
  402d78:	00 00 00 
  402d7b:	66 2e 0f 1f 84 00 00 	nopw   %cs:0x0(%rax,%rax,1)
  402d82:	00 00 00 
  402d85:	66 2e 0f 1f 84 00 00 	nopw   %cs:0x0(%rax,%rax,1)
  402d8c:	00 00 00 
  402d8f:	66 2e 0f 1f 84 00 00 	nopw   %cs:0x0(%rax,%rax,1)
  402d96:	00 00 00 
  402d99:	66 2e 0f 1f 84 00 00 	nopw   %cs:0x0(%rax,%rax,1)
  402da0:	00 00 00 
  402da3:	66 2e 0f 1f 84 00 00 	nopw   %cs:0x0(%rax,%rax,1)
  402daa:	00 00 00 
  402dad:	66 2e 0f 1f 84 00 00 	nopw   %cs:0x0(%rax,%rax,1)
  402db4:	00 00 00 
  402db7:	66 2e 0f 1f 84 00 00 	nopw   %cs:0x0(%rax,%rax,1)
  402dbe:	00 00 00 
  402dc1:	66 2e 0f 1f 84 00 00 	nopw   %cs:0x0(%rax,%rax,1)
  402dc8:	00 00 00 
  402dcb:	66 2e 0f 1f 84 00 00 	nopw   %cs:0x0(%rax,%rax,1)
  402dd2:	00 00 00 
  402dd5:	66 2e 0f 1f 84 00 00 	nopw   %cs:0x0(%rax,%rax,1)
  402ddc:	00 00 00 
  402ddf:	66 2e 0f 1f 84 00 00 	nopw   %cs:0x0(%rax,%rax,1)
  402de6:	00 00 00 
  402de9:	66 2e 0f 1f 84 00 00 	nopw   %cs:0x0(%rax,%rax,1)
  402df0:	00 00 00 
  402df3:	66 2e 0f 1f 84 00 00 	nopw   %cs:0x0(%rax,%rax,1)
  402dfa:	00 00 00 
  402dfd:	66 2e 0f 1f 84 00 00 	nopw   %cs:0x0(%rax,%rax,1)
  402e04:	00 00 00 
  402e07:	66 2e 0f 1f 84 00 00 	nopw   %cs:0x0(%rax,%rax,1)
  402e0e:	00 00 00 
  402e11:	66 2e 0f 1f 84 00 00 	nopw   %cs:0x0(%rax,%rax,1)
  402e18:	00 00 00 
  402e1b:	66 2e 0f 1f 84 00 00 	nopw   %cs:0x0(%rax,%rax,1)
  402e22:	00 00 00 
  402e25:	66 2e 0f 1f 84 00 00 	nopw   %cs:0x0(%rax,%rax,1)
  402e2c:	00 00 00 
  402e2f:	66 2e 0f 1f 84 00 00 	nopw   %cs:0x0(%rax,%rax,1)
  402e36:	00 00 00 
  402e39:	66 2e 0f 1f 84 00 00 	nopw   %cs:0x0(%rax,%rax,1)
  402e40:	00 00 00 
  402e43:	66 2e 0f 1f 84 00 00 	nopw   %cs:0x0(%rax,%rax,1)
  402e4a:	00 00 00 
  402e4d:	66 2e 0f 1f 84 00 00 	nopw   %cs:0x0(%rax,%rax,1)
  402e54:	00 00 00 
  402e57:	66 2e 0f 1f 84 00 00 	nopw   %cs:0x0(%rax,%rax,1)
  402e5e:	00 00 00 
  402e61:	66 2e 0f 1f 84 00 00 	nopw   %cs:0x0(%rax,%rax,1)
  402e68:	00 00 00 
  402e6b:	66 2e 0f 1f 84 00 00 	nopw   %cs:0x0(%rax,%rax,1)
  402e72:	00 00 00 
  402e75:	66 2e 0f 1f 84 00 00 	nopw   %cs:0x0(%rax,%rax,1)
  402e7c:	00 00 00 
  402e7f:	66 2e 0f 1f 84 00 00 	nopw   %cs:0x0(%rax,%rax,1)
  402e86:	00 00 00 
  402e89:	66 2e 0f 1f 84 00 00 	nopw   %cs:0x0(%rax,%rax,1)
  402e90:	00 00 00 
  402e93:	66 2e 0f 1f 84 00 00 	nopw   %cs:0x0(%rax,%rax,1)
  402e9a:	00 00 00 
  402e9d:	66 2e 0f 1f 84 00 00 	nopw   %cs:0x0(%rax,%rax,1)
  402ea4:	00 00 00 
  402ea7:	66 2e 0f 1f 84 00 00 	nopw   %cs:0x0(%rax,%rax,1)
  402eae:	00 00 00 
  402eb1:	66 2e 0f 1f 84 00 00 	nopw   %cs:0x0(%rax,%rax,1)
  402eb8:	00 00 00 
  402ebb:	66 2e 0f 1f 84 00 00 	nopw   %cs:0x0(%rax,%rax,1)
  402ec2:	00 00 00 
  402ec5:	66 2e 0f 1f 84 00 00 	nopw   %cs:0x0(%rax,%rax,1)
  402ecc:	00 00 00 
  402ecf:	66 2e 0f 1f 84 00 00 	nopw   %cs:0x0(%rax,%rax,1)
  402ed6:	00 00 00 
  402ed9:	66 2e 0f 1f 84 00 00 	nopw   %cs:0x0(%rax,%rax,1)
  402ee0:	00 00 00 
  402ee3:	66 2e 0f 1f 84 00 00 	nopw   %cs:0x0(%rax,%rax,1)
  402eea:	00 00 00 
  402eed:	66 2e 0f 1f 84 00 00 	nopw   %cs:0x0(%rax,%rax,1)
  402ef4:	00 00 00 
  402ef7:	66 2e 0f 1f 84 00 00 	nopw   %cs:0x0(%rax,%rax,1)
  402efe:	00 00 00 
  402f01:	66 2e 0f 1f 84 00 00 	nopw   %cs:0x0(%rax,%rax,1)
  402f08:	00 00 00 
  402f0b:	66 2e 0f 1f 84 00 00 	nopw   %cs:0x0(%rax,%rax,1)
  402f12:	00 00 00 
  402f15:	66 2e 0f 1f 84 00 00 	nopw   %cs:0x0(%rax,%rax,1)
  402f1c:	00 00 00 
  402f1f:	66 2e 0f 1f 84 00 00 	nopw   %cs:0x0(%rax,%rax,1)
  402f26:	00 00 00 
  402f29:	66 2e 0f 1f 84 00 00 	nopw   %cs:0x0(%rax,%rax,1)
  402f30:	00 00 00 
  402f33:	66 2e 0f 1f 84 00 00 	nopw   %cs:0x0(%rax,%rax,1)
  402f3a:	00 00 00 
  402f3d:	66 2e 0f 1f 84 00 00 	nopw   %cs:0x0(%rax,%rax,1)
  402f44:	00 00 00 
  402f47:	66 2e 0f 1f 84 00 00 	nopw   %cs:0x0(%rax,%rax,1)
  402f4e:	00 00 00 
  402f51:	66 2e 0f 1f 84 00 00 	nopw   %cs:0x0(%rax,%rax,1)
  402f58:	00 00 00 
  402f5b:	66 2e 0f 1f 84 00 00 	nopw   %cs:0x0(%rax,%rax,1)
  402f62:	00 00 00 
  402f65:	66 2e 0f 1f 84 00 00 	nopw   %cs:0x0(%rax,%rax,1)
  402f6c:	00 00 00 
  402f6f:	66 2e 0f 1f 84 00 00 	nopw   %cs:0x0(%rax,%rax,1)
  402f76:	00 00 00 
  402f79:	66 2e 0f 1f 84 00 00 	nopw   %cs:0x0(%rax,%rax,1)
  402f80:	00 00 00 
  402f83:	66 2e 0f 1f 84 00 00 	nopw   %cs:0x0(%rax,%rax,1)
  402f8a:	00 00 00 
  402f8d:	66 2e 0f 1f 84 00 00 	nopw   %cs:0x0(%rax,%rax,1)
  402f94:	00 00 00 
  402f97:	66 2e 0f 1f 84 00 00 	nopw   %cs:0x0(%rax,%rax,1)
  402f9e:	00 00 00 
  402fa1:	66 2e 0f 1f 84 00 00 	nopw   %cs:0x0(%rax,%rax,1)
  402fa8:	00 00 00 
  402fab:	66 2e 0f 1f 84 00 00 	nopw   %cs:0x0(%rax,%rax,1)
  402fb2:	00 00 00 
  402fb5:	66 2e 0f 1f 84 00 00 	nopw   %cs:0x0(%rax,%rax,1)
  402fbc:	00 00 00 
  402fbf:	66 2e 0f 1f 84 00 00 	nopw   %cs:0x0(%rax,%rax,1)
  402fc6:	00 00 00 
  402fc9:	66 2e 0f 1f 84 00 00 	nopw   %cs:0x0(%rax,%rax,1)
  402fd0:	00 00 00 
  402fd3:	66 2e 0f 1f 84 00 00 	nopw   %cs:0x0(%rax,%rax,1)
  402fda:	00 00 00 
  402fdd:	66 2e 0f 1f 84 00 00 	nopw   %cs:0x0(%rax,%rax,1)
  402fe4:	00 00 00 
  402fe7:	66 2e 0f 1f 84 00 00 	nopw   %cs:0x0(%rax,%rax,1)
  402fee:	00 00 00 
  402ff1:	66 2e 0f 1f 84 00 00 	nopw   %cs:0x0(%rax,%rax,1)
  402ff8:	00 00 00 
  402ffb:	0f 1f 44 00 00       	nopl   0x0(%rax,%rax,1)

0000000000403000 <DoNumSort>:
  403000:	c4 43 fb f0 f5 3c    	rorx   $0x3c,%r13,%r14
  403006:	66 41 81 fe 80 0c    	cmp    $0xc80,%r14w
  40300c:	73 22                	jae    403030 <DoNumSort+0x30>
  40300e:	49 c1 ee 10          	shr    $0x10,%r14
  403012:	67 4f 03 74 f7 f8    	add    -0x8(%r15d,%r14d,8),%r14
  403018:	49 c1 e6 0c          	shl    $0xc,%r14
  40301c:	49 8d 26             	lea    (%r14),%rsp
  40301f:	54                   	push   %rsp
  403020:	41 55                	push   %r13
  403022:	41 55                	push   %r13
  403024:	4d 23 2f             	and    (%r15),%r13
  403027:	49 81 ed c0 00 00 00 	sub    $0xc0,%r13
  40302e:	eb 0b                	jmp    40303b <DoNumSort+0x3b>
  403030:	41 55                	push   %r13
  403032:	41 55                	push   %r13
  403034:	49 81 ed c0 00 00 00 	sub    $0xc0,%r13
  40303b:	55                   	push   %rbp
  40303c:	41 54                	push   %r12
  40303e:	53                   	push   %rbx
  40303f:	48 81 ec 90 00 00 00 	sub    $0x90,%rsp
  403046:	48 b8 00 00 00 00 00 	movabs $0x3ff0000000000000,%rax
  40304d:	00 f0 3f 
  403050:	48 89 44 24 48       	mov    %rax,0x48(%rsp)
  403055:	f2 0f 10 44 24 48    	movsd  0x48(%rsp),%xmm0
  40305b:	f2 0f 11 44 24 30    	movsd  %xmm0,0x30(%rsp)
  403061:	48 c7 44 24 40 00 00 	movq   $0x0,0x40(%rsp)
  403068:	00 00 
  40306a:	f2 0f 10 44 24 40    	movsd  0x40(%rsp),%xmm0
  403070:	f2 0f 11 44 24 10    	movsd  %xmm0,0x10(%rsp)
  403076:	b8 00 20 41 00       	mov    $0x412000,%eax
  40307b:	c4 63 fb f0 f0 0c    	rorx   $0xc,%rax,%r14
  403081:	67 4f 03 34 f7       	add    (%r15d,%r14d,8),%r14
  403086:	c4 c3 fb f0 ee 34    	rorx   $0x34,%r14,%rbp
  40308c:	b8 08 49 f5 00       	mov    $0xf54908,%eax
  403091:	c4 63 fb f0 f0 0c    	rorx   $0xc,%rax,%r14
  403097:	67 4f 03 34 f7       	add    (%r15d,%r14d,8),%r14
  40309c:	c4 43 fb f0 e6 34    	rorx   $0x34,%r14,%r12
  4030a2:	48 8d 44 24 24       	lea    0x24(%rsp),%rax
  4030a7:	49 8d 5d 24          	lea    0x24(%r13),%rbx
  4030ab:	41 83 3c 24 00       	cmpl   $0x0,(%r12)
  4030b0:	48 89 5c 24 38       	mov    %rbx,0x38(%rsp)
  4030b5:	0f 84 97 00 00 00    	je     403152 <.L30$pb+0x5>
  4030bb:	41 0f b7 7c 24 18    	movzwl 0x18(%r12),%edi
  4030c1:	49 0f af 7c 24 20    	imul   0x20(%r12),%rdi
  4030c7:	48 c1 e7 03          	shl    $0x3,%rdi
  4030cb:	48 89 de             	mov    %rbx,%rsi
  4030ce:	68 d5 30 40 00       	pushq  $0x4030d5
  4030d3:	ff e5                	jmpq   *%rbp

00000000004030d5 <.L00$pb>:
  4030d5:	48 89 c5             	mov    %rax,%rbp
  4030d8:	8b 74 24 24          	mov    0x24(%rsp),%esi
  4030dc:	85 f6                	test   %esi,%esi
  4030de:	48 89 6c 24 28       	mov    %rbp,0x28(%rsp)
  4030e3:	0f 84 f6 01 00 00    	je     4032df <.L110$pb+0x24>
  4030e9:	b8 90 24 41 00       	mov    $0x412490,%eax
  4030ee:	c4 63 fb f0 f0 0c    	rorx   $0xc,%rax,%r14
  4030f4:	67 4f 03 34 f7       	add    (%r15d,%r14d,8),%r14
  4030f9:	c4 c3 fb f0 c6 34    	rorx   $0x34,%r14,%rax
  4030ff:	bf 8f 0b 45 00       	mov    $0x450b8f,%edi
  403104:	68 0b 31 40 00       	pushq  $0x40310b
  403109:	ff e0                	jmpq   *%rax

000000000040310b <.L10$pb>:
  40310b:	b8 10 22 41 00       	mov    $0x412210,%eax
  403110:	c4 63 fb f0 f0 0c    	rorx   $0xc,%rax,%r14
  403116:	67 4f 03 34 f7       	add    (%r15d,%r14d,8),%r14
  40311b:	c4 c3 fb f0 c6 34    	rorx   $0x34,%r14,%rax
  403121:	48 89 ef             	mov    %rbp,%rdi
  403124:	48 89 de             	mov    %rbx,%rsi
  403127:	68 2e 31 40 00       	pushq  $0x40312e
  40312c:	ff e0                	jmpq   *%rax

000000000040312e <.L20$pb>:
  40312e:	b8 20 26 41 00       	mov    $0x412620,%eax
  403133:	c4 63 fb f0 f0 0c    	rorx   $0xc,%rax,%r14
  403139:	67 4f 03 34 f7       	add    (%r15d,%r14d,8),%r14
  40313e:	c4 c3 fb f0 ce 34    	rorx   $0x34,%r14,%rcx
  403144:	31 c0                	xor    %eax,%eax
  403146:	68 4d 31 40 00       	pushq  $0x40314d
  40314b:	ff e1                	jmpq   *%rcx

000000000040314d <.L30$pb>:
  40314d:	e9 8d 01 00 00       	jmpq   4032df <.L110$pb+0x24>
  403152:	66 41 c7 44 24 18 01 	movw   $0x1,0x18(%r12)
  403159:	00 
  40315a:	eb 41                	jmp    40319d <.L50$pb>
  40315c:	b8 80 63 42 00       	mov    $0x426380,%eax
  403161:	c4 63 fb f0 f0 0c    	rorx   $0xc,%rax,%r14
  403167:	67 4f 03 34 f7       	add    (%r15d,%r14d,8),%r14
  40316c:	c4 c3 fb f0 c6 34    	rorx   $0x34,%r14,%rax
  403172:	bf a0 0b 45 00       	mov    $0x450ba0,%edi
  403177:	68 7e 31 40 00       	pushq  $0x40317e
  40317c:	ff e0                	jmpq   *%rax

000000000040317e <.L40$pb>:
  40317e:	b8 20 26 41 00       	mov    $0x412620,%eax
  403183:	c4 63 fb f0 f0 0c    	rorx   $0xc,%rax,%r14
  403189:	67 4f 03 34 f7       	add    (%r15d,%r14d,8),%r14
  40318e:	c4 c3 fb f0 ce 34    	rorx   $0x34,%r14,%rcx
  403194:	31 c0                	xor    %eax,%eax
  403196:	68 9d 31 40 00       	pushq  $0x40319d
  40319b:	ff e1                	jmpq   *%rcx

000000000040319d <.L50$pb>:
  40319d:	41 0f b7 7c 24 18    	movzwl 0x18(%r12),%edi
  4031a3:	49 0f af 7c 24 20    	imul   0x20(%r12),%rdi
  4031a9:	48 c1 e7 03          	shl    $0x3,%rdi
  4031ad:	48 89 de             	mov    %rbx,%rsi
  4031b0:	68 b7 31 40 00       	pushq  $0x4031b7
  4031b5:	ff e5                	jmpq   *%rbp

00000000004031b7 <.L60$pb>:
  4031b7:	48 89 c5             	mov    %rax,%rbp
  4031ba:	8b 74 24 24          	mov    0x24(%rsp),%esi
  4031be:	85 f6                	test   %esi,%esi
  4031c0:	74 64                	je     403226 <.L90$pb>
  4031c2:	b8 90 24 41 00       	mov    $0x412490,%eax
  4031c7:	c4 63 fb f0 f0 0c    	rorx   $0xc,%rax,%r14
  4031cd:	67 4f 03 34 f7       	add    (%r15d,%r14d,8),%r14
  4031d2:	c4 c3 fb f0 c6 34    	rorx   $0x34,%r14,%rax
  4031d8:	bf 8f 0b 45 00       	mov    $0x450b8f,%edi
  4031dd:	68 e4 31 40 00       	pushq  $0x4031e4
  4031e2:	ff e0                	jmpq   *%rax

00000000004031e4 <.L70$pb>:
  4031e4:	b8 10 22 41 00       	mov    $0x412210,%eax
  4031e9:	c4 63 fb f0 f0 0c    	rorx   $0xc,%rax,%r14
  4031ef:	67 4f 03 34 f7       	add    (%r15d,%r14d,8),%r14
  4031f4:	c4 c3 fb f0 c6 34    	rorx   $0x34,%r14,%rax
  4031fa:	48 89 ef             	mov    %rbp,%rdi
  4031fd:	48 89 de             	mov    %rbx,%rsi
  403200:	68 07 32 40 00       	pushq  $0x403207
  403205:	ff e0                	jmpq   *%rax

0000000000403207 <.L80$pb>:
  403207:	b8 20 26 41 00       	mov    $0x412620,%eax
  40320c:	c4 63 fb f0 f0 0c    	rorx   $0xc,%rax,%r14
  403212:	67 4f 03 34 f7       	add    (%r15d,%r14d,8),%r14
  403217:	c4 c3 fb f0 ce 34    	rorx   $0x34,%r14,%rcx
  40321d:	31 c0                	xor    %eax,%eax
  40321f:	68 26 32 40 00       	pushq  $0x403226
  403224:	ff e1                	jmpq   *%rcx

0000000000403226 <.L90$pb>:
  403226:	49 8b 74 24 20       	mov    0x20(%r12),%rsi
  40322b:	41 0f b7 54 24 18    	movzwl 0x18(%r12),%edx
  403231:	b8 d0 36 40 00       	mov    $0x4036d0,%eax
  403236:	c4 63 fb f0 f0 0c    	rorx   $0xc,%rax,%r14
  40323c:	67 4f 03 34 f7       	add    (%r15d,%r14d,8),%r14
  403241:	c4 c3 fb f0 c6 34    	rorx   $0x34,%r14,%rax
  403247:	48 89 ef             	mov    %rbp,%rdi
  40324a:	68 51 32 40 00       	pushq  $0x403251
  40324f:	ff e0                	jmpq   *%rax

0000000000403251 <.L100$pb>:
  403251:	b9 00 4f f5 00       	mov    $0xf54f00,%ecx
  403256:	c4 63 fb f0 f1 0c    	rorx   $0xc,%rcx,%r14
  40325c:	67 4f 03 34 f7       	add    (%r15d,%r14d,8),%r14
  403261:	c4 c3 fb f0 d6 34    	rorx   $0x34,%r14,%rdx
  403267:	48 89 ef             	mov    %rbp,%rdi
  40326a:	b9 00 20 41 00       	mov    $0x412000,%ecx
  40326f:	c4 63 fb f0 f1 0c    	rorx   $0xc,%rcx,%r14
  403275:	67 4f 03 34 f7       	add    (%r15d,%r14d,8),%r14
  40327a:	c4 c3 fb f0 ee 34    	rorx   $0x34,%r14,%rbp
  403280:	b9 10 22 41 00       	mov    $0x412210,%ecx
  403285:	c4 63 fb f0 f1 0c    	rorx   $0xc,%rcx,%r14
  40328b:	67 4f 03 34 f7       	add    (%r15d,%r14d,8),%r14
  403290:	c4 c3 fb f0 ce 34    	rorx   $0x34,%r14,%rcx
  403296:	be 08 49 f5 00       	mov    $0xf54908,%esi
  40329b:	c4 63 fb f0 f6 0c    	rorx   $0xc,%rsi,%r14
  4032a1:	67 4f 03 34 f7       	add    (%r15d,%r14d,8),%r14
  4032a6:	c4 43 fb f0 e6 34    	rorx   $0x34,%r14,%r12
  4032ac:	48 3b 02             	cmp    (%rdx),%rax
  4032af:	77 29                	ja     4032da <.L110$pb+0x1f>
  4032b1:	48 89 de             	mov    %rbx,%rsi
  4032b4:	68 bb 32 40 00       	pushq  $0x4032bb
  4032b9:	ff e1                	jmpq   *%rcx

00000000004032bb <.L110$pb>:
  4032bb:	41 0f b7 44 24 18    	movzwl 0x18(%r12),%eax
  4032c1:	8d 48 01             	lea    0x1(%rax),%ecx
  4032c4:	66 41 89 4c 24 18    	mov    %cx,0x18(%r12)
  4032ca:	3d 11 27 00 00       	cmp    $0x2711,%eax
  4032cf:	0f 82 c8 fe ff ff    	jb     40319d <.L50$pb>
  4032d5:	e9 82 fe ff ff       	jmpq   40315c <.L30$pb+0xf>
  4032da:	48 89 7c 24 28       	mov    %rdi,0x28(%rsp)
  4032df:	f2 0f 10 44 24 10    	movsd  0x10(%rsp),%xmm0
  4032e5:	31 ed                	xor    %ebp,%ebp
  4032e7:	f2 0f 11 44 24 08    	movsd  %xmm0,0x8(%rsp)
  4032ed:	48 8b 5c 24 28       	mov    0x28(%rsp),%rbx
  4032f2:	49 8b 74 24 20       	mov    0x20(%r12),%rsi
  4032f7:	41 0f b7 54 24 18    	movzwl 0x18(%r12),%edx
  4032fd:	b8 d0 36 40 00       	mov    $0x4036d0,%eax
  403302:	c4 63 fb f0 f0 0c    	rorx   $0xc,%rax,%r14
  403308:	67 4f 03 34 f7       	add    (%r15d,%r14d,8),%r14
  40330d:	c4 c3 fb f0 c6 34    	rorx   $0x34,%r14,%rax
  403313:	48 89 df             	mov    %rbx,%rdi
  403316:	68 1d 33 40 00       	pushq  $0x40331d
  40331b:	ff e0                	jmpq   *%rax

000000000040331d <.L120$pb>:
  40331d:	48 01 c5             	add    %rax,%rbp
  403320:	f2 0f 10 44 24 08    	movsd  0x8(%rsp),%xmm0
  403326:	f2 0f 58 44 24 30    	addsd  0x30(%rsp),%xmm0
  40332c:	f2 0f 11 44 24 08    	movsd  %xmm0,0x8(%rsp)
  403332:	b8 40 27 41 00       	mov    $0x412740,%eax
  403337:	c4 63 fb f0 f0 0c    	rorx   $0xc,%rax,%r14
  40333d:	67 4f 03 34 f7       	add    (%r15d,%r14d,8),%r14
  403342:	c4 c3 fb f0 c6 34    	rorx   $0x34,%r14,%rax
  403348:	48 89 ef             	mov    %rbp,%rdi
  40334b:	68 52 33 40 00       	pushq  $0x403352
  403350:	ff e0                	jmpq   *%rax

0000000000403352 <.L130$pb>:
  403352:	b9 08 49 f5 00       	mov    $0xf54908,%ecx
  403357:	c4 63 fb f0 f1 0c    	rorx   $0xc,%rcx,%r14
  40335d:	67 4f 03 34 f7       	add    (%r15d,%r14d,8),%r14
  403362:	c4 43 fb f0 e6 34    	rorx   $0x34,%r14,%r12
  403368:	49 3b 44 24 08       	cmp    0x8(%r12),%rax
  40336d:	72 83                	jb     4032f2 <.L110$pb+0x37>
  40336f:	f2 0f 10 44 24 10    	movsd  0x10(%rsp),%xmm0
  403375:	f2 0f 10 4c 24 08    	movsd  0x8(%rsp),%xmm1
  40337b:	66 0f 2e c8          	ucomisd %xmm0,%xmm1
  40337f:	76 65                	jbe    4033e6 <.L150$pb+0x1d>
  403381:	41 bc b0 26 41 00    	mov    $0x4126b0,%r12d
  403387:	31 db                	xor    %ebx,%ebx
  403389:	f2 0f 11 44 24 18    	movsd  %xmm0,0x18(%rsp)
  40338f:	b8 80 26 41 00       	mov    $0x412680,%eax
  403394:	c4 63 fb f0 f0 0c    	rorx   $0xc,%rax,%r14
  40339a:	67 4f 03 34 f7       	add    (%r15d,%r14d,8),%r14
  40339f:	c4 c3 fb f0 ce 34    	rorx   $0x34,%r14,%rcx
  4033a5:	31 c0                	xor    %eax,%eax
  4033a7:	68 ae 33 40 00       	pushq  $0x4033ae
  4033ac:	ff e1                	jmpq   *%rcx

00000000004033ae <.L140$pb>:
  4033ae:	c4 43 fb f0 f4 0c    	rorx   $0xc,%r12,%r14
  4033b4:	67 4f 03 34 f7       	add    (%r15d,%r14d,8),%r14
  4033b9:	c4 c3 fb f0 ce 34    	rorx   $0x34,%r14,%rcx
  4033bf:	48 89 c7             	mov    %rax,%rdi
  4033c2:	68 c9 33 40 00       	pushq  $0x4033c9
  4033c7:	ff e1                	jmpq   *%rcx

00000000004033c9 <.L150$pb>:
  4033c9:	f2 0f 10 44 24 18    	movsd  0x18(%rsp),%xmm0
  4033cf:	f2 0f 10 4c 24 08    	movsd  0x8(%rsp),%xmm1
  4033d5:	48 01 c3             	add    %rax,%rbx
  4033d8:	f2 0f 58 44 24 30    	addsd  0x30(%rsp),%xmm0
  4033de:	66 0f 2e c8          	ucomisd %xmm0,%xmm1
  4033e2:	77 a5                	ja     403389 <.L130$pb+0x37>
  4033e4:	eb 02                	jmp    4033e8 <.L150$pb+0x1f>
  4033e6:	31 db                	xor    %ebx,%ebx
  4033e8:	b8 80 27 41 00       	mov    $0x412780,%eax
  4033ed:	c4 63 fb f0 f0 0c    	rorx   $0xc,%rax,%r14
  4033f3:	67 4f 03 34 f7       	add    (%r15d,%r14d,8),%r14
  4033f8:	c4 43 fb f0 e6 34    	rorx   $0x34,%r14,%r12
  4033fe:	b8 08 49 f5 00       	mov    $0xf54908,%eax
  403403:	c4 63 fb f0 f0 0c    	rorx   $0xc,%rax,%r14
  403409:	67 4f 03 34 f7       	add    (%r15d,%r14d,8),%r14
  40340e:	c4 c3 fb f0 ce 34    	rorx   $0x34,%r14,%rcx
  403414:	48 29 dd             	sub    %rbx,%rbp
  403417:	0f b7 41 18          	movzwl 0x18(%rcx),%eax
  40341b:	48 89 cb             	mov    %rcx,%rbx
  40341e:	0f 57 c0             	xorps  %xmm0,%xmm0
  403421:	f2 0f 2a c0          	cvtsi2sd %eax,%xmm0
  403425:	f2 0f 59 c1          	mulsd  %xmm1,%xmm0
  403429:	f2 0f 11 44 24 18    	movsd  %xmm0,0x18(%rsp)
  40342f:	48 89 ef             	mov    %rbp,%rdi
  403432:	68 3a 34 40 00       	pushq  $0x40343a
  403437:	41 ff e4             	jmpq   *%r12

000000000040343a <.L160$pb>:
  40343a:	f2 0f 10 4c 24 18    	movsd  0x18(%rsp),%xmm1
  403440:	f2 0f 5e c8          	divsd  %xmm0,%xmm1
  403444:	f2 0f 11 4b 10       	movsd  %xmm1,0x10(%rbx)
  403449:	48 8d 44 24 50       	lea    0x50(%rsp),%rax
  40344e:	49 8d 5d 50          	lea    0x50(%r13),%rbx
  403452:	48 89 ef             	mov    %rbp,%rdi
  403455:	68 5d 34 40 00       	pushq  $0x40345d
  40345a:	41 ff e4             	jmpq   *%r12

000000000040345d <.L170$pb>:
  40345d:	f2 0f 5e 44 24 08    	divsd  0x8(%rsp),%xmm0
  403463:	b8 00 30 42 00       	mov    $0x423000,%eax
  403468:	c4 63 fb f0 f0 0c    	rorx   $0xc,%rax,%r14
  40346e:	67 4f 03 34 f7       	add    (%r15d,%r14d,8),%r14
  403473:	c4 c3 fb f0 ce 34    	rorx   $0x34,%r14,%rcx
  403479:	be c0 0b 45 00       	mov    $0x450bc0,%esi
  40347e:	b0 01                	mov    $0x1,%al
  403480:	48 89 df             	mov    %rbx,%rdi
  403483:	68 8a 34 40 00       	pushq  $0x40348a
  403488:	ff e1                	jmpq   *%rcx

000000000040348a <.L180$pb>:
  40348a:	b8 80 63 42 00       	mov    $0x426380,%eax
  40348f:	c4 63 fb f0 f0 0c    	rorx   $0xc,%rax,%r14
  403495:	67 4f 03 34 f7       	add    (%r15d,%r14d,8),%r14
  40349a:	c4 c3 fb f0 c6 34    	rorx   $0x34,%r14,%rax
  4034a0:	48 89 5c 24 18       	mov    %rbx,0x18(%rsp)
  4034a5:	48 89 df             	mov    %rbx,%rdi
  4034a8:	68 af 34 40 00       	pushq  $0x4034af
  4034ad:	ff e0                	jmpq   *%rax

00000000004034af <.L190$pb>:
  4034af:	b8 08 49 f5 00       	mov    $0xf54908,%eax
  4034b4:	c4 63 fb f0 f0 0c    	rorx   $0xc,%rax,%r14
  4034ba:	67 4f 03 34 f7       	add    (%r15d,%r14d,8),%r14
  4034bf:	c4 c3 fb f0 ce 34    	rorx   $0x34,%r14,%rcx
  4034c5:	31 ed                	xor    %ebp,%ebp
  4034c7:	bb 40 27 41 00       	mov    $0x412740,%ebx
  4034cc:	f2 0f 10 44 24 10    	movsd  0x10(%rsp),%xmm0
  4034d2:	f2 0f 11 44 24 08    	movsd  %xmm0,0x8(%rsp)
  4034d8:	4c 8b 64 24 28       	mov    0x28(%rsp),%r12
  4034dd:	48 8b 71 20          	mov    0x20(%rcx),%rsi
  4034e1:	0f b7 51 18          	movzwl 0x18(%rcx),%edx
  4034e5:	b8 00 38 40 00       	mov    $0x403800,%eax
  4034ea:	c4 63 fb f0 f0 0c    	rorx   $0xc,%rax,%r14
  4034f0:	67 4f 03 34 f7       	add    (%r15d,%r14d,8),%r14
  4034f5:	c4 c3 fb f0 c6 34    	rorx   $0x34,%r14,%rax
  4034fb:	4c 89 e7             	mov    %r12,%rdi
  4034fe:	68 05 35 40 00       	pushq  $0x403505
  403503:	ff e0                	jmpq   *%rax

0000000000403505 <.L200$pb>:
  403505:	48 01 c5             	add    %rax,%rbp
  403508:	f2 0f 10 44 24 08    	movsd  0x8(%rsp),%xmm0
  40350e:	f2 0f 58 44 24 30    	addsd  0x30(%rsp),%xmm0
  403514:	f2 0f 11 44 24 08    	movsd  %xmm0,0x8(%rsp)
  40351a:	c4 63 fb f0 f3 0c    	rorx   $0xc,%rbx,%r14
  403520:	67 4f 03 34 f7       	add    (%r15d,%r14d,8),%r14
  403525:	c4 c3 fb f0 c6 34    	rorx   $0x34,%r14,%rax
  40352b:	48 89 ef             	mov    %rbp,%rdi
  40352e:	68 35 35 40 00       	pushq  $0x403535
  403533:	ff e0                	jmpq   *%rax

0000000000403535 <.L210$pb>:
  403535:	b9 08 49 f5 00       	mov    $0xf54908,%ecx
  40353a:	c4 63 fb f0 f1 0c    	rorx   $0xc,%rcx,%r14
  403540:	67 4f 03 34 f7       	add    (%r15d,%r14d,8),%r14
  403545:	c4 c3 fb f0 ce 34    	rorx   $0x34,%r14,%rcx
  40354b:	48 3b 41 08          	cmp    0x8(%rcx),%rax
  40354f:	72 8c                	jb     4034dd <.L190$pb+0x2e>
  403551:	f2 0f 10 44 24 10    	movsd  0x10(%rsp),%xmm0
  403557:	f2 0f 10 4c 24 08    	movsd  0x8(%rsp),%xmm1
  40355d:	66 0f 2e c8          	ucomisd %xmm0,%xmm1
  403561:	76 65                	jbe    4035c8 <.L230$pb+0x1d>
  403563:	41 bc b0 26 41 00    	mov    $0x4126b0,%r12d
  403569:	31 db                	xor    %ebx,%ebx
  40356b:	f2 0f 11 44 24 10    	movsd  %xmm0,0x10(%rsp)
  403571:	b8 80 26 41 00       	mov    $0x412680,%eax
  403576:	c4 63 fb f0 f0 0c    	rorx   $0xc,%rax,%r14
  40357c:	67 4f 03 34 f7       	add    (%r15d,%r14d,8),%r14
  403581:	c4 c3 fb f0 ce 34    	rorx   $0x34,%r14,%rcx
  403587:	31 c0                	xor    %eax,%eax
  403589:	68 90 35 40 00       	pushq  $0x403590
  40358e:	ff e1                	jmpq   *%rcx

0000000000403590 <.L220$pb>:
  403590:	c4 43 fb f0 f4 0c    	rorx   $0xc,%r12,%r14
  403596:	67 4f 03 34 f7       	add    (%r15d,%r14d,8),%r14
  40359b:	c4 c3 fb f0 ce 34    	rorx   $0x34,%r14,%rcx
  4035a1:	48 89 c7             	mov    %rax,%rdi
  4035a4:	68 ab 35 40 00       	pushq  $0x4035ab
  4035a9:	ff e1                	jmpq   *%rcx

00000000004035ab <.L230$pb>:
  4035ab:	f2 0f 10 44 24 10    	movsd  0x10(%rsp),%xmm0
  4035b1:	48 01 c3             	add    %rax,%rbx
  4035b4:	f2 0f 58 44 24 30    	addsd  0x30(%rsp),%xmm0
  4035ba:	f2 0f 10 4c 24 08    	movsd  0x8(%rsp),%xmm1
  4035c0:	66 0f 2e c8          	ucomisd %xmm0,%xmm1
  4035c4:	77 a5                	ja     40356b <.L210$pb+0x36>
  4035c6:	eb 02                	jmp    4035ca <.L230$pb+0x1f>
  4035c8:	31 db                	xor    %ebx,%ebx
  4035ca:	b8 80 27 41 00       	mov    $0x412780,%eax
  4035cf:	c4 63 fb f0 f0 0c    	rorx   $0xc,%rax,%r14
  4035d5:	67 4f 03 34 f7       	add    (%r15d,%r14d,8),%r14
  4035da:	c4 c3 fb f0 c6 34    	rorx   $0x34,%r14,%rax
  4035e0:	48 29 dd             	sub    %rbx,%rbp
  4035e3:	48 89 ef             	mov    %rbp,%rdi
  4035e6:	68 ed 35 40 00       	pushq  $0x4035ed
  4035eb:	ff e0                	jmpq   *%rax

00000000004035ed <.L240$pb>:
  4035ed:	f2 0f 5e 44 24 08    	divsd  0x8(%rsp),%xmm0
  4035f3:	b8 00 30 42 00       	mov    $0x423000,%eax
  4035f8:	c4 63 fb f0 f0 0c    	rorx   $0xc,%rax,%r14
  4035fe:	67 4f 03 34 f7       	add    (%r15d,%r14d,8),%r14
  403603:	c4 c3 fb f0 ce 34    	rorx   $0x34,%r14,%rcx
  403609:	be d0 0b 45 00       	mov    $0x450bd0,%esi
  40360e:	b0 01                	mov    $0x1,%al
  403610:	48 8b 5c 24 18       	mov    0x18(%rsp),%rbx
  403615:	48 89 df             	mov    %rbx,%rdi
  403618:	68 1f 36 40 00       	pushq  $0x40361f
  40361d:	ff e1                	jmpq   *%rcx

000000000040361f <.L250$pb>:
  40361f:	b8 80 63 42 00       	mov    $0x426380,%eax
  403624:	c4 63 fb f0 f0 0c    	rorx   $0xc,%rax,%r14
  40362a:	67 4f 03 34 f7       	add    (%r15d,%r14d,8),%r14
  40362f:	c4 c3 fb f0 c6 34    	rorx   $0x34,%r14,%rax
  403635:	48 89 df             	mov    %rbx,%rdi
  403638:	68 3f 36 40 00       	pushq  $0x40363f
  40363d:	ff e0                	jmpq   *%rax

000000000040363f <.L260$pb>:
  40363f:	b8 10 22 41 00       	mov    $0x412210,%eax
  403644:	c4 63 fb f0 f0 0c    	rorx   $0xc,%rax,%r14
  40364a:	67 4f 03 34 f7       	add    (%r15d,%r14d,8),%r14
  40364f:	c4 c3 fb f0 c6 34    	rorx   $0x34,%r14,%rax
  403655:	48 8b 7c 24 28       	mov    0x28(%rsp),%rdi
  40365a:	48 8b 74 24 38       	mov    0x38(%rsp),%rsi
  40365f:	68 66 36 40 00       	pushq  $0x403666
  403664:	ff e0                	jmpq   *%rax

0000000000403666 <.L270$pb>:
  403666:	b8 08 49 f5 00       	mov    $0xf54908,%eax
  40366b:	c4 63 fb f0 f0 0c    	rorx   $0xc,%rax,%r14
  403671:	67 4f 03 34 f7       	add    (%r15d,%r14d,8),%r14
  403676:	c4 c3 fb f0 c6 34    	rorx   $0x34,%r14,%rax
  40367c:	83 38 00             	cmpl   $0x0,(%rax)
  40367f:	75 06                	jne    403687 <.L270$pb+0x21>
  403681:	c7 00 01 00 00 00    	movl   $0x1,(%rax)
  403687:	48 8b 9c 24 90 00 00 	mov    0x90(%rsp),%rbx
  40368e:	00 
  40368f:	4c 8b a4 24 98 00 00 	mov    0x98(%rsp),%r12
  403696:	00 
  403697:	48 8b ac 24 a0 00 00 	mov    0xa0(%rsp),%rbp
  40369e:	00 
  40369f:	4c 8b ac 24 a8 00 00 	mov    0xa8(%rsp),%r13
  4036a6:	00 
  4036a7:	c4 43 fb f0 f5 0c    	rorx   $0xc,%r13,%r14
  4036ad:	67 4f 03 34 f7       	add    (%r15d,%r14d,8),%r14
  4036b2:	c4 c3 fb f0 e6 34    	rorx   $0x34,%r14,%rsp
  4036b8:	c4 63 fb f0 74 24 f8 	rorx   $0xc,-0x8(%rsp),%r14
  4036bf:	0c 
  4036c0:	67 4f 03 34 f7       	add    (%r15d,%r14d,8),%r14
  4036c5:	c4 43 fb f0 f6 34    	rorx   $0x34,%r14,%r14
  4036cb:	41 ff e6             	jmpq   *%r14
  4036ce:	66 90                	xchg   %ax,%ax

00000000004036d0 <DoNumSortIteration>:
  4036d0:	c4 43 fb f0 f5 3c    	rorx   $0x3c,%r13,%r14
  4036d6:	66 41 81 fe 80 05    	cmp    $0x580,%r14w
  4036dc:	73 22                	jae    403700 <DoNumSortIteration+0x30>
  4036de:	49 c1 ee 10          	shr    $0x10,%r14
  4036e2:	67 4f 03 74 f7 f8    	add    -0x8(%r15d,%r14d,8),%r14
  4036e8:	49 c1 e6 0c          	shl    $0xc,%r14
  4036ec:	49 8d 26             	lea    (%r14),%rsp
  4036ef:	54                   	push   %rsp
  4036f0:	41 55                	push   %r13
  4036f2:	41 55                	push   %r13
  4036f4:	4d 23 2f             	and    (%r15),%r13
  4036f7:	49 81 ed 50 00 00 00 	sub    $0x50,%r13
  4036fe:	eb 0b                	jmp    40370b <DoNumSortIteration+0x3b>
  403700:	41 55                	push   %r13
  403702:	41 55                	push   %r13
  403704:	49 81 ed 50 00 00 00 	sub    $0x50,%r13
  40370b:	55                   	push   %rbp
  40370c:	41 54                	push   %r12
  40370e:	53                   	push   %rbx
  40370f:	48 83 ec 20          	sub    $0x20,%rsp
  403713:	89 d5                	mov    %edx,%ebp
  403715:	48 89 fb             	mov    %rdi,%rbx
  403718:	b8 40 95 40 00       	mov    $0x409540,%eax
  40371d:	c4 63 fb f0 f0 0c    	rorx   $0xc,%rax,%r14
  403723:	67 4f 03 34 f7       	add    (%r15d,%r14d,8),%r14
  403728:	c4 c3 fb f0 c6 34    	rorx   $0x34,%r14,%rax
  40372e:	48 89 74 24 08       	mov    %rsi,0x8(%rsp)
  403733:	68 3a 37 40 00       	pushq  $0x40373a
  403738:	ff e0                	jmpq   *%rax

000000000040373a <.L281$pb>:
  40373a:	b8 80 26 41 00       	mov    $0x412680,%eax
  40373f:	c4 63 fb f0 f0 0c    	rorx   $0xc,%rax,%r14
  403745:	67 4f 03 34 f7       	add    (%r15d,%r14d,8),%r14
  40374a:	c4 c3 fb f0 ce 34    	rorx   $0x34,%r14,%rcx
  403750:	31 c0                	xor    %eax,%eax
  403752:	68 59 37 40 00       	pushq  $0x403759
  403757:	ff e1                	jmpq   *%rcx

0000000000403759 <.L291$pb>:
  403759:	48 89 44 24 10       	mov    %rax,0x10(%rsp)
  40375e:	b8 70 96 40 00       	mov    $0x409670,%eax
  403763:	c4 63 fb f0 f0 0c    	rorx   $0xc,%rax,%r14
  403769:	67 4f 03 34 f7       	add    (%r15d,%r14d,8),%r14
  40376e:	c4 c3 fb f0 ce 34    	rorx   $0x34,%r14,%rcx
  403774:	85 ed                	test   %ebp,%ebp
  403776:	74 3b                	je     4037b3 <.L301$pb+0xd>
  403778:	41 89 ec             	mov    %ebp,%r12d
  40377b:	48 8b 44 24 08       	mov    0x8(%rsp),%rax
  403780:	48 8d 50 ff          	lea    -0x1(%rax),%rdx
  403784:	48 89 54 24 18       	mov    %rdx,0x18(%rsp)
  403789:	48 c1 e0 03          	shl    $0x3,%rax
  40378d:	48 89 44 24 08       	mov    %rax,0x8(%rsp)
  403792:	31 f6                	xor    %esi,%esi
  403794:	48 89 df             	mov    %rbx,%rdi
  403797:	48 8b 54 24 18       	mov    0x18(%rsp),%rdx
  40379c:	48 89 cd             	mov    %rcx,%rbp
  40379f:	68 a6 37 40 00       	pushq  $0x4037a6
  4037a4:	ff e5                	jmpq   *%rbp

00000000004037a6 <.L301$pb>:
  4037a6:	48 89 e9             	mov    %rbp,%rcx
  4037a9:	48 03 5c 24 08       	add    0x8(%rsp),%rbx
  4037ae:	49 ff cc             	dec    %r12
  4037b1:	75 df                	jne    403792 <.L291$pb+0x39>
  4037b3:	b8 b0 26 41 00       	mov    $0x4126b0,%eax
  4037b8:	c4 63 fb f0 f0 0c    	rorx   $0xc,%rax,%r14
  4037be:	67 4f 03 34 f7       	add    (%r15d,%r14d,8),%r14
  4037c3:	c4 c3 fb f0 c6 34    	rorx   $0x34,%r14,%rax
  4037c9:	48 8b 7c 24 10       	mov    0x10(%rsp),%rdi
  4037ce:	48 8b 5c 24 20       	mov    0x20(%rsp),%rbx
  4037d3:	4c 8b 64 24 28       	mov    0x28(%rsp),%r12
  4037d8:	48 8b 6c 24 30       	mov    0x30(%rsp),%rbp
  4037dd:	4c 8b 6c 24 40       	mov    0x40(%rsp),%r13
  4037e2:	c4 43 fb f0 f5 0c    	rorx   $0xc,%r13,%r14
  4037e8:	67 4f 03 34 f7       	add    (%r15d,%r14d,8),%r14
  4037ed:	c4 c3 fb f0 e6 34    	rorx   $0x34,%r14,%rsp
  4037f3:	48 81 ec 08 00 00 00 	sub    $0x8,%rsp
  4037fa:	ff e0                	jmpq   *%rax
  4037fc:	0f 1f 40 00          	nopl   0x0(%rax)

0000000000403800 <DoNumSortIteration_non>:
  403800:	c4 43 fb f0 f5 3c    	rorx   $0x3c,%r13,%r14
  403806:	66 41 81 fe 80 05    	cmp    $0x580,%r14w
  40380c:	73 22                	jae    403830 <DoNumSortIteration_non+0x30>
  40380e:	49 c1 ee 10          	shr    $0x10,%r14
  403812:	67 4f 03 74 f7 f8    	add    -0x8(%r15d,%r14d,8),%r14
  403818:	49 c1 e6 0c          	shl    $0xc,%r14
  40381c:	49 8d 26             	lea    (%r14),%rsp
  40381f:	54                   	push   %rsp
  403820:	41 55                	push   %r13
  403822:	41 55                	push   %r13
  403824:	4d 23 2f             	and    (%r15),%r13
  403827:	49 81 ed 50 00 00 00 	sub    $0x50,%r13
  40382e:	eb 0b                	jmp    40383b <DoNumSortIteration_non+0x3b>
  403830:	41 55                	push   %r13
  403832:	41 55                	push   %r13
  403834:	49 81 ed 50 00 00 00 	sub    $0x50,%r13
  40383b:	55                   	push   %rbp
  40383c:	41 54                	push   %r12
  40383e:	53                   	push   %rbx
  40383f:	48 83 ec 20          	sub    $0x20,%rsp
  403843:	89 d5                	mov    %edx,%ebp
  403845:	48 89 fb             	mov    %rdi,%rbx
  403848:	b8 40 95 40 00       	mov    $0x409540,%eax
  40384d:	c4 63 fb f0 f0 0c    	rorx   $0xc,%rax,%r14
  403853:	67 4f 03 34 f7       	add    (%r15d,%r14d,8),%r14
  403858:	c4 c3 fb f0 c6 34    	rorx   $0x34,%r14,%rax
  40385e:	48 89 74 24 08       	mov    %rsi,0x8(%rsp)
  403863:	68 6a 38 40 00       	pushq  $0x40386a
  403868:	ff e0                	jmpq   *%rax

000000000040386a <.L312$pb>:
  40386a:	b8 80 26 41 00       	mov    $0x412680,%eax
  40386f:	c4 63 fb f0 f0 0c    	rorx   $0xc,%rax,%r14
  403875:	67 4f 03 34 f7       	add    (%r15d,%r14d,8),%r14
  40387a:	c4 c3 fb f0 ce 34    	rorx   $0x34,%r14,%rcx
  403880:	31 c0                	xor    %eax,%eax
  403882:	68 89 38 40 00       	pushq  $0x403889
  403887:	ff e1                	jmpq   *%rcx

0000000000403889 <.L322$pb>:
  403889:	48 89 44 24 10       	mov    %rax,0x10(%rsp)
  40388e:	b8 10 98 40 00       	mov    $0x409810,%eax
  403893:	c4 63 fb f0 f0 0c    	rorx   $0xc,%rax,%r14
  403899:	67 4f 03 34 f7       	add    (%r15d,%r14d,8),%r14
  40389e:	c4 c3 fb f0 ce 34    	rorx   $0x34,%r14,%rcx
  4038a4:	85 ed                	test   %ebp,%ebp
  4038a6:	74 3b                	je     4038e3 <.L332$pb+0xd>
  4038a8:	41 89 ec             	mov    %ebp,%r12d
  4038ab:	48 8b 44 24 08       	mov    0x8(%rsp),%rax
  4038b0:	48 8d 50 ff          	lea    -0x1(%rax),%rdx
  4038b4:	48 89 54 24 18       	mov    %rdx,0x18(%rsp)
  4038b9:	48 c1 e0 03          	shl    $0x3,%rax
  4038bd:	48 89 44 24 08       	mov    %rax,0x8(%rsp)
  4038c2:	31 f6                	xor    %esi,%esi
  4038c4:	48 89 df             	mov    %rbx,%rdi
  4038c7:	48 8b 54 24 18       	mov    0x18(%rsp),%rdx
  4038cc:	48 89 cd             	mov    %rcx,%rbp
  4038cf:	68 d6 38 40 00       	pushq  $0x4038d6
  4038d4:	ff e5                	jmpq   *%rbp

00000000004038d6 <.L332$pb>:
  4038d6:	48 89 e9             	mov    %rbp,%rcx
  4038d9:	48 03 5c 24 08       	add    0x8(%rsp),%rbx
  4038de:	49 ff cc             	dec    %r12
  4038e1:	75 df                	jne    4038c2 <.L322$pb+0x39>
  4038e3:	b8 b0 26 41 00       	mov    $0x4126b0,%eax
  4038e8:	c4 63 fb f0 f0 0c    	rorx   $0xc,%rax,%r14
  4038ee:	67 4f 03 34 f7       	add    (%r15d,%r14d,8),%r14
  4038f3:	c4 c3 fb f0 c6 34    	rorx   $0x34,%r14,%rax
  4038f9:	48 8b 7c 24 10       	mov    0x10(%rsp),%rdi
  4038fe:	48 8b 5c 24 20       	mov    0x20(%rsp),%rbx
  403903:	4c 8b 64 24 28       	mov    0x28(%rsp),%r12
  403908:	48 8b 6c 24 30       	mov    0x30(%rsp),%rbp
  40390d:	4c 8b 6c 24 40       	mov    0x40(%rsp),%r13
  403912:	c4 43 fb f0 f5 0c    	rorx   $0xc,%r13,%r14
  403918:	67 4f 03 34 f7       	add    (%r15d,%r14d,8),%r14
  40391d:	c4 c3 fb f0 e6 34    	rorx   $0x34,%r14,%rsp
  403923:	48 81 ec 08 00 00 00 	sub    $0x8,%rsp
  40392a:	ff e0                	jmpq   *%rax
  40392c:	0f 1f 40 00          	nopl   0x0(%rax)

0000000000403930 <DoStringSort>:
  403930:	c4 43 fb f0 f5 3c    	rorx   $0x3c,%r13,%r14
  403936:	66 41 81 fe 80 0a    	cmp    $0xa80,%r14w
  40393c:	73 22                	jae    403960 <DoStringSort+0x30>
  40393e:	49 c1 ee 10          	shr    $0x10,%r14
  403942:	67 4f 03 74 f7 f8    	add    -0x8(%r15d,%r14d,8),%r14
  403948:	49 c1 e6 0c          	shl    $0xc,%r14
  40394c:	49 8d 26             	lea    (%r14),%rsp
  40394f:	54                   	push   %rsp
  403950:	41 55                	push   %r13
  403952:	41 55                	push   %r13
  403954:	4d 23 2f             	and    (%r15),%r13
  403957:	49 81 ed a0 00 00 00 	sub    $0xa0,%r13
  40395e:	eb 0b                	jmp    40396b <DoStringSort+0x3b>
  403960:	41 55                	push   %r13
  403962:	41 55                	push   %r13
  403964:	49 81 ed a0 00 00 00 	sub    $0xa0,%r13
  40396b:	55                   	push   %rbp
  40396c:	41 54                	push   %r12
  40396e:	53                   	push   %rbx
  40396f:	48 83 ec 70          	sub    $0x70,%rsp
  403973:	48 c7 44 24 28 00 00 	movq   $0x0,0x28(%rsp)
  40397a:	00 00 
  40397c:	f2 0f 10 44 24 28    	movsd  0x28(%rsp),%xmm0
  403982:	b8 00 20 41 00       	mov    $0x412000,%eax
  403987:	c4 63 fb f0 f0 0c    	rorx   $0xc,%rax,%r14
  40398d:	67 4f 03 34 f7       	add    (%r15d,%r14d,8),%r14
  403992:	c4 c3 fb f0 ee 34    	rorx   $0x34,%r14,%rbp
  403998:	b8 d8 4e f5 00       	mov    $0xf54ed8,%eax
  40399d:	c4 63 fb f0 f0 0c    	rorx   $0xc,%rax,%r14
  4039a3:	67 4f 03 34 f7       	add    (%r15d,%r14d,8),%r14
  4039a8:	c4 43 fb f0 e6 34    	rorx   $0x34,%r14,%r12
  4039ae:	48 8d 44 24 0c       	lea    0xc(%rsp),%rax
  4039b3:	49 8d 5d 0c          	lea    0xc(%r13),%rbx
  4039b7:	41 83 3c 24 00       	cmpl   $0x0,(%r12)
  4039bc:	f2 0f 11 44 24 10    	movsd  %xmm0,0x10(%rsp)
  4039c2:	48 89 5c 24 18       	mov    %rbx,0x18(%rsp)
  4039c7:	74 72                	je     403a3b <.L363$pb+0x5>
  4039c9:	49 8b 44 24 20       	mov    0x20(%r12),%rax
  4039ce:	48 83 c0 64          	add    $0x64,%rax
  4039d2:	41 0f b7 7c 24 18    	movzwl 0x18(%r12),%edi
  4039d8:	48 0f af f8          	imul   %rax,%rdi
  4039dc:	48 89 de             	mov    %rbx,%rsi
  4039df:	68 e6 39 40 00       	pushq  $0x4039e6
  4039e4:	ff e5                	jmpq   *%rbp

00000000004039e6 <.L343$pb>:
  4039e6:	48 89 c3             	mov    %rax,%rbx
  4039e9:	8b 74 24 0c          	mov    0xc(%rsp),%esi
  4039ed:	85 f6                	test   %esi,%esi
  4039ef:	0f 84 61 01 00 00    	je     403b56 <.L413$pb+0x61>
  4039f5:	b8 90 24 41 00       	mov    $0x412490,%eax
  4039fa:	c4 63 fb f0 f0 0c    	rorx   $0xc,%rax,%r14
  403a00:	67 4f 03 34 f7       	add    (%r15d,%r14d,8),%r14
  403a05:	c4 c3 fb f0 c6 34    	rorx   $0x34,%r14,%rax
  403a0b:	bf e6 0b 45 00       	mov    $0x450be6,%edi
  403a10:	68 17 3a 40 00       	pushq  $0x403a17
  403a15:	ff e0                	jmpq   *%rax

0000000000403a17 <.L353$pb>:
  403a17:	b8 20 26 41 00       	mov    $0x412620,%eax
  403a1c:	c4 63 fb f0 f0 0c    	rorx   $0xc,%rax,%r14
  403a22:	67 4f 03 34 f7       	add    (%r15d,%r14d,8),%r14
  403a27:	c4 c3 fb f0 ce 34    	rorx   $0x34,%r14,%rcx
  403a2d:	31 c0                	xor    %eax,%eax
  403a2f:	68 36 3a 40 00       	pushq  $0x403a36
  403a34:	ff e1                	jmpq   *%rcx

0000000000403a36 <.L363$pb>:
  403a36:	e9 1b 01 00 00       	jmpq   403b56 <.L413$pb+0x61>
  403a3b:	66 b8 01 00          	mov    $0x1,%ax
  403a3f:	eb 1a                	jmp    403a5b <.L373$pb+0x8>
  403a41:	48 89 df             	mov    %rbx,%rdi
  403a44:	48 8b 5c 24 18       	mov    0x18(%rsp),%rbx
  403a49:	48 89 de             	mov    %rbx,%rsi
  403a4c:	68 53 3a 40 00       	pushq  $0x403a53
  403a51:	ff e1                	jmpq   *%rcx

0000000000403a53 <.L373$pb>:
  403a53:	41 0f b7 44 24 18    	movzwl 0x18(%r12),%eax
  403a59:	ff c0                	inc    %eax
  403a5b:	66 41 89 44 24 18    	mov    %ax,0x18(%r12)
  403a61:	49 8b 44 24 20       	mov    0x20(%r12),%rax
  403a66:	48 83 c0 64          	add    $0x64,%rax
  403a6a:	41 0f b7 7c 24 18    	movzwl 0x18(%r12),%edi
  403a70:	48 0f af f8          	imul   %rax,%rdi
  403a74:	48 89 de             	mov    %rbx,%rsi
  403a77:	68 7e 3a 40 00       	pushq  $0x403a7e
  403a7c:	ff e5                	jmpq   *%rbp

0000000000403a7e <.L383$pb>:
  403a7e:	48 89 c3             	mov    %rax,%rbx
  403a81:	8b 74 24 0c          	mov    0xc(%rsp),%esi
  403a85:	85 f6                	test   %esi,%esi
  403a87:	74 41                	je     403aca <.L403$pb>
  403a89:	b8 90 24 41 00       	mov    $0x412490,%eax
  403a8e:	c4 63 fb f0 f0 0c    	rorx   $0xc,%rax,%r14
  403a94:	67 4f 03 34 f7       	add    (%r15d,%r14d,8),%r14
  403a99:	c4 c3 fb f0 c6 34    	rorx   $0x34,%r14,%rax
  403a9f:	bf e6 0b 45 00       	mov    $0x450be6,%edi
  403aa4:	68 ab 3a 40 00       	pushq  $0x403aab
  403aa9:	ff e0                	jmpq   *%rax

0000000000403aab <.L393$pb>:
  403aab:	b8 20 26 41 00       	mov    $0x412620,%eax
  403ab0:	c4 63 fb f0 f0 0c    	rorx   $0xc,%rax,%r14
  403ab6:	67 4f 03 34 f7       	add    (%r15d,%r14d,8),%r14
  403abb:	c4 c3 fb f0 ce 34    	rorx   $0x34,%r14,%rcx
  403ac1:	31 c0                	xor    %eax,%eax
  403ac3:	68 ca 3a 40 00       	pushq  $0x403aca
  403ac8:	ff e1                	jmpq   *%rcx

0000000000403aca <.L403$pb>:
  403aca:	41 0f b7 74 24 18    	movzwl 0x18(%r12),%esi
  403ad0:	49 8b 54 24 20       	mov    0x20(%r12),%rdx
  403ad5:	b8 10 3d 40 00       	mov    $0x403d10,%eax
  403ada:	c4 63 fb f0 f0 0c    	rorx   $0xc,%rax,%r14
  403ae0:	67 4f 03 34 f7       	add    (%r15d,%r14d,8),%r14
  403ae5:	c4 c3 fb f0 c6 34    	rorx   $0x34,%r14,%rax
  403aeb:	48 89 df             	mov    %rbx,%rdi
  403aee:	68 f5 3a 40 00       	pushq  $0x403af5
  403af3:	ff e0                	jmpq   *%rax

0000000000403af5 <.L413$pb>:
  403af5:	b9 00 4f f5 00       	mov    $0xf54f00,%ecx
  403afa:	c4 63 fb f0 f1 0c    	rorx   $0xc,%rcx,%r14
  403b00:	67 4f 03 34 f7       	add    (%r15d,%r14d,8),%r14
  403b05:	c4 c3 fb f0 d6 34    	rorx   $0x34,%r14,%rdx
  403b0b:	b9 00 20 41 00       	mov    $0x412000,%ecx
  403b10:	c4 63 fb f0 f1 0c    	rorx   $0xc,%rcx,%r14
  403b16:	67 4f 03 34 f7       	add    (%r15d,%r14d,8),%r14
  403b1b:	c4 c3 fb f0 ee 34    	rorx   $0x34,%r14,%rbp
  403b21:	b9 10 22 41 00       	mov    $0x412210,%ecx
  403b26:	c4 63 fb f0 f1 0c    	rorx   $0xc,%rcx,%r14
  403b2c:	67 4f 03 34 f7       	add    (%r15d,%r14d,8),%r14
  403b31:	c4 c3 fb f0 ce 34    	rorx   $0x34,%r14,%rcx
  403b37:	be d8 4e f5 00       	mov    $0xf54ed8,%esi
  403b3c:	c4 63 fb f0 f6 0c    	rorx   $0xc,%rsi,%r14
  403b42:	67 4f 03 34 f7       	add    (%r15d,%r14d,8),%r14
  403b47:	c4 43 fb f0 e6 34    	rorx   $0x34,%r14,%r12
  403b4d:	48 3b 02             	cmp    (%rdx),%rax
  403b50:	0f 86 eb fe ff ff    	jbe    403a41 <.L363$pb+0xb>
  403b56:	31 ed                	xor    %ebp,%ebp
  403b58:	41 0f b7 74 24 18    	movzwl 0x18(%r12),%esi
  403b5e:	49 8b 54 24 20       	mov    0x20(%r12),%rdx
  403b63:	b8 10 3d 40 00       	mov    $0x403d10,%eax
  403b68:	c4 63 fb f0 f0 0c    	rorx   $0xc,%rax,%r14
  403b6e:	67 4f 03 34 f7       	add    (%r15d,%r14d,8),%r14
  403b73:	c4 c3 fb f0 c6 34    	rorx   $0x34,%r14,%rax
  403b79:	48 89 df             	mov    %rbx,%rdi
  403b7c:	68 83 3b 40 00       	pushq  $0x403b83
  403b81:	ff e0                	jmpq   *%rax

0000000000403b83 <.L423$pb>:
  403b83:	48 01 c5             	add    %rax,%rbp
  403b86:	b8 d8 4e f5 00       	mov    $0xf54ed8,%eax
  403b8b:	c4 63 fb f0 f0 0c    	rorx   $0xc,%rax,%r14
  403b91:	67 4f 03 34 f7       	add    (%r15d,%r14d,8),%r14
  403b96:	c4 43 fb f0 e6 34    	rorx   $0x34,%r14,%r12
  403b9c:	41 0f b7 44 24 18    	movzwl 0x18(%r12),%eax
  403ba2:	0f 57 c0             	xorps  %xmm0,%xmm0
  403ba5:	f2 0f 2a c0          	cvtsi2sd %eax,%xmm0
  403ba9:	f2 0f 10 4c 24 10    	movsd  0x10(%rsp),%xmm1
  403baf:	f2 0f 58 c8          	addsd  %xmm0,%xmm1
  403bb3:	f2 0f 11 4c 24 10    	movsd  %xmm1,0x10(%rsp)
  403bb9:	b8 40 27 41 00       	mov    $0x412740,%eax
  403bbe:	c4 63 fb f0 f0 0c    	rorx   $0xc,%rax,%r14
  403bc4:	67 4f 03 34 f7       	add    (%r15d,%r14d,8),%r14
  403bc9:	c4 c3 fb f0 c6 34    	rorx   $0x34,%r14,%rax
  403bcf:	48 89 ef             	mov    %rbp,%rdi
  403bd2:	68 d9 3b 40 00       	pushq  $0x403bd9
  403bd7:	ff e0                	jmpq   *%rax

0000000000403bd9 <.L433$pb>:
  403bd9:	49 3b 44 24 08       	cmp    0x8(%r12),%rax
  403bde:	0f 82 74 ff ff ff    	jb     403b58 <.L413$pb+0x63>
  403be4:	b8 80 27 41 00       	mov    $0x412780,%eax
  403be9:	c4 63 fb f0 f0 0c    	rorx   $0xc,%rax,%r14
  403bef:	67 4f 03 34 f7       	add    (%r15d,%r14d,8),%r14
  403bf4:	c4 c3 fb f0 c6 34    	rorx   $0x34,%r14,%rax
  403bfa:	48 89 44 24 20       	mov    %rax,0x20(%rsp)
  403bff:	b8 10 22 41 00       	mov    $0x412210,%eax
  403c04:	c4 63 fb f0 f0 0c    	rorx   $0xc,%rax,%r14
  403c0a:	67 4f 03 34 f7       	add    (%r15d,%r14d,8),%r14
  403c0f:	c4 c3 fb f0 c6 34    	rorx   $0x34,%r14,%rax
  403c15:	48 89 df             	mov    %rbx,%rdi
  403c18:	48 8b 74 24 18       	mov    0x18(%rsp),%rsi
  403c1d:	68 24 3c 40 00       	pushq  $0x403c24
  403c22:	ff e0                	jmpq   *%rax

0000000000403c24 <.L443$pb>:
  403c24:	48 89 ef             	mov    %rbp,%rdi
  403c27:	48 8b 5c 24 20       	mov    0x20(%rsp),%rbx
  403c2c:	68 33 3c 40 00       	pushq  $0x403c33
  403c31:	ff e3                	jmpq   *%rbx

0000000000403c33 <.L453$pb>:
  403c33:	f2 0f 10 4c 24 10    	movsd  0x10(%rsp),%xmm1
  403c39:	f2 0f 5e c8          	divsd  %xmm0,%xmm1
  403c3d:	f2 41 0f 11 4c 24 10 	movsd  %xmm1,0x10(%r12)
  403c44:	48 8d 44 24 30       	lea    0x30(%rsp),%rax
  403c49:	4d 8d 65 30          	lea    0x30(%r13),%r12
  403c4d:	48 89 ef             	mov    %rbp,%rdi
  403c50:	68 57 3c 40 00       	pushq  $0x403c57
  403c55:	ff e3                	jmpq   *%rbx

0000000000403c57 <.L463$pb>:
  403c57:	f2 0f 5e 44 24 10    	divsd  0x10(%rsp),%xmm0
  403c5d:	b8 00 30 42 00       	mov    $0x423000,%eax
  403c62:	c4 63 fb f0 f0 0c    	rorx   $0xc,%rax,%r14
  403c68:	67 4f 03 34 f7       	add    (%r15d,%r14d,8),%r14
  403c6d:	c4 c3 fb f0 ce 34    	rorx   $0x34,%r14,%rcx
  403c73:	be e0 0b 45 00       	mov    $0x450be0,%esi
  403c78:	b0 01                	mov    $0x1,%al
  403c7a:	4c 89 e7             	mov    %r12,%rdi
  403c7d:	68 84 3c 40 00       	pushq  $0x403c84
  403c82:	ff e1                	jmpq   *%rcx

0000000000403c84 <.L473$pb>:
  403c84:	b8 80 63 42 00       	mov    $0x426380,%eax
  403c89:	c4 63 fb f0 f0 0c    	rorx   $0xc,%rax,%r14
  403c8f:	67 4f 03 34 f7       	add    (%r15d,%r14d,8),%r14
  403c94:	c4 c3 fb f0 c6 34    	rorx   $0x34,%r14,%rax
  403c9a:	4c 89 e7             	mov    %r12,%rdi
  403c9d:	68 a4 3c 40 00       	pushq  $0x403ca4
  403ca2:	ff e0                	jmpq   *%rax

0000000000403ca4 <.L483$pb>:
  403ca4:	b8 d8 4e f5 00       	mov    $0xf54ed8,%eax
  403ca9:	c4 63 fb f0 f0 0c    	rorx   $0xc,%rax,%r14
  403caf:	67 4f 03 34 f7       	add    (%r15d,%r14d,8),%r14
  403cb4:	c4 c3 fb f0 c6 34    	rorx   $0x34,%r14,%rax
  403cba:	83 38 00             	cmpl   $0x0,(%rax)
  403cbd:	75 06                	jne    403cc5 <.L483$pb+0x21>
  403cbf:	c7 00 01 00 00 00    	movl   $0x1,(%rax)
  403cc5:	48 8b 5c 24 70       	mov    0x70(%rsp),%rbx
  403cca:	4c 8b 64 24 78       	mov    0x78(%rsp),%r12
  403ccf:	48 8b ac 24 80 00 00 	mov    0x80(%rsp),%rbp
  403cd6:	00 
  403cd7:	4c 8b ac 24 88 00 00 	mov    0x88(%rsp),%r13
  403cde:	00 
  403cdf:	c4 43 fb f0 f5 0c    	rorx   $0xc,%r13,%r14
  403ce5:	67 4f 03 34 f7       	add    (%r15d,%r14d,8),%r14
  403cea:	c4 c3 fb f0 e6 34    	rorx   $0x34,%r14,%rsp
  403cf0:	c4 63 fb f0 74 24 f8 	rorx   $0xc,-0x8(%rsp),%r14
  403cf7:	0c 
  403cf8:	67 4f 03 34 f7       	add    (%r15d,%r14d,8),%r14
  403cfd:	c4 43 fb f0 f6 34    	rorx   $0x34,%r14,%r14
  403d03:	41 ff e6             	jmpq   *%r14
  403d06:	66 2e 0f 1f 84 00 00 	nopw   %cs:0x0(%rax,%rax,1)
  403d0d:	00 00 00 

0000000000403d10 <DoStringSortIteration>:
  403d10:	c4 43 fb f0 f5 3c    	rorx   $0x3c,%r13,%r14
  403d16:	66 41 81 fe 80 06    	cmp    $0x680,%r14w
  403d1c:	73 22                	jae    403d40 <DoStringSortIteration+0x30>
  403d1e:	49 c1 ee 10          	shr    $0x10,%r14
  403d22:	67 4f 03 74 f7 f8    	add    -0x8(%r15d,%r14d,8),%r14
  403d28:	49 c1 e6 0c          	shl    $0xc,%r14
  403d2c:	49 8d 26             	lea    (%r14),%rsp
  403d2f:	54                   	push   %rsp
  403d30:	41 55                	push   %r13
  403d32:	41 55                	push   %r13
  403d34:	4d 23 2f             	and    (%r15),%r13
  403d37:	49 81 ed 60 00 00 00 	sub    $0x60,%r13
  403d3e:	eb 0b                	jmp    403d4b <DoStringSortIteration+0x3b>
  403d40:	41 55                	push   %r13
  403d42:	41 55                	push   %r13
  403d44:	49 81 ed 60 00 00 00 	sub    $0x60,%r13
  403d4b:	55                   	push   %rbp
  403d4c:	41 54                	push   %r12
  403d4e:	53                   	push   %rbx
  403d4f:	48 83 ec 30          	sub    $0x30,%rsp
  403d53:	48 89 d1             	mov    %rdx,%rcx
  403d56:	89 f5                	mov    %esi,%ebp
  403d58:	49 89 fc             	mov    %rdi,%r12
  403d5b:	48 8d 44 24 10       	lea    0x10(%rsp),%rax
  403d60:	49 8d 55 10          	lea    0x10(%r13),%rdx
  403d64:	48 8d 44 24 2c       	lea    0x2c(%rsp),%rax
  403d69:	49 8d 45 2c          	lea    0x2c(%r13),%rax
  403d6d:	48 89 44 24 20       	mov    %rax,0x20(%rsp)
  403d72:	b8 b0 99 40 00       	mov    $0x4099b0,%eax
  403d77:	c4 63 fb f0 f0 0c    	rorx   $0xc,%rax,%r14
  403d7d:	67 4f 03 34 f7       	add    (%r15d,%r14d,8),%r14
  403d82:	c4 c3 fb f0 c6 34    	rorx   $0x34,%r14,%rax
  403d88:	48 89 4c 24 08       	mov    %rcx,0x8(%rsp)
  403d8d:	68 94 3d 40 00       	pushq  $0x403d94
  403d92:	ff e0                	jmpq   *%rax

0000000000403d94 <.L494$pb>:
  403d94:	48 89 04 24          	mov    %rax,(%rsp)
  403d98:	b8 80 26 41 00       	mov    $0x412680,%eax
  403d9d:	c4 63 fb f0 f0 0c    	rorx   $0xc,%rax,%r14
  403da3:	67 4f 03 34 f7       	add    (%r15d,%r14d,8),%r14
  403da8:	c4 c3 fb f0 ce 34    	rorx   $0x34,%r14,%rcx
  403dae:	31 c0                	xor    %eax,%eax
  403db0:	68 b7 3d 40 00       	pushq  $0x403db7
  403db5:	ff e1                	jmpq   *%rcx

0000000000403db7 <.L504$pb>:
  403db7:	48 89 44 24 18       	mov    %rax,0x18(%rsp)
  403dbc:	85 ed                	test   %ebp,%ebp
  403dbe:	74 4a                	je     403e0a <.L514$pb+0x12>
  403dc0:	48 83 44 24 08 64    	addq   $0x64,0x8(%rsp)
  403dc6:	48 8b 1c 24          	mov    (%rsp),%rbx
  403dca:	48 8b 54 24 10       	mov    0x10(%rsp),%rdx
  403dcf:	b8 00 a0 40 00       	mov    $0x40a000,%eax
  403dd4:	c4 63 fb f0 f0 0c    	rorx   $0xc,%rax,%r14
  403dda:	67 4f 03 34 f7       	add    (%r15d,%r14d,8),%r14
  403ddf:	c4 c3 fb f0 c6 34    	rorx   $0x34,%r14,%rax
  403de5:	4c 8d 42 ff          	lea    -0x1(%rdx),%r8
  403de9:	31 c9                	xor    %ecx,%ecx
  403deb:	48 89 df             	mov    %rbx,%rdi
  403dee:	4c 89 e6             	mov    %r12,%rsi
  403df1:	68 f8 3d 40 00       	pushq  $0x403df8
  403df6:	ff e0                	jmpq   *%rax

0000000000403df8 <.L514$pb>:
  403df8:	48 8b 44 24 10       	mov    0x10(%rsp),%rax
  403dfd:	48 8d 1c c3          	lea    (%rbx,%rax,8),%rbx
  403e01:	4c 03 64 24 08       	add    0x8(%rsp),%r12
  403e06:	ff cd                	dec    %ebp
  403e08:	75 c0                	jne    403dca <.L504$pb+0x13>
  403e0a:	b8 b0 26 41 00       	mov    $0x4126b0,%eax
  403e0f:	c4 63 fb f0 f0 0c    	rorx   $0xc,%rax,%r14
  403e15:	67 4f 03 34 f7       	add    (%r15d,%r14d,8),%r14
  403e1a:	c4 c3 fb f0 c6 34    	rorx   $0x34,%r14,%rax
  403e20:	48 8b 7c 24 18       	mov    0x18(%rsp),%rdi
  403e25:	68 2c 3e 40 00       	pushq  $0x403e2c
  403e2a:	ff e0                	jmpq   *%rax

0000000000403e2c <.L524$pb>:
  403e2c:	48 89 c3             	mov    %rax,%rbx
  403e2f:	b8 10 22 41 00       	mov    $0x412210,%eax
  403e34:	c4 63 fb f0 f0 0c    	rorx   $0xc,%rax,%r14
  403e3a:	67 4f 03 34 f7       	add    (%r15d,%r14d,8),%r14
  403e3f:	c4 c3 fb f0 c6 34    	rorx   $0x34,%r14,%rax
  403e45:	48 8b 3c 24          	mov    (%rsp),%rdi
  403e49:	48 8b 74 24 20       	mov    0x20(%rsp),%rsi
  403e4e:	68 55 3e 40 00       	pushq  $0x403e55
  403e53:	ff e0                	jmpq   *%rax

0000000000403e55 <.L534$pb>:
  403e55:	48 89 d8             	mov    %rbx,%rax
  403e58:	48 8b 5c 24 30       	mov    0x30(%rsp),%rbx
  403e5d:	4c 8b 64 24 38       	mov    0x38(%rsp),%r12
  403e62:	48 8b 6c 24 40       	mov    0x40(%rsp),%rbp
  403e67:	4c 8b 6c 24 48       	mov    0x48(%rsp),%r13
  403e6c:	c4 43 fb f0 f5 0c    	rorx   $0xc,%r13,%r14
  403e72:	67 4f 03 34 f7       	add    (%r15d,%r14d,8),%r14
  403e77:	c4 c3 fb f0 e6 34    	rorx   $0x34,%r14,%rsp
  403e7d:	c4 63 fb f0 74 24 f8 	rorx   $0xc,-0x8(%rsp),%r14
  403e84:	0c 
  403e85:	67 4f 03 34 f7       	add    (%r15d,%r14d,8),%r14
  403e8a:	c4 43 fb f0 f6 34    	rorx   $0x34,%r14,%r14
  403e90:	41 ff e6             	jmpq   *%r14
  403e93:	66 66 66 66 66 66 2e 	data32 data32 data32 data32 data32 nopw %cs:0x0(%rax,%rax,1)
  403e9a:	0f 1f 84 00 00 00 00 
  403ea1:	00 
  403ea2:	66 66 66 66 66 66 2e 	data32 data32 data32 data32 data32 nopw %cs:0x0(%rax,%rax,1)
  403ea9:	0f 1f 84 00 00 00 00 
  403eb0:	00 
  403eb1:	66 66 66 66 66 66 2e 	data32 data32 data32 data32 data32 nopw %cs:0x0(%rax,%rax,1)
  403eb8:	0f 1f 84 00 00 00 00 
  403ebf:	00 
  403ec0:	66 66 66 66 66 66 2e 	data32 data32 data32 data32 data32 nopw %cs:0x0(%rax,%rax,1)
  403ec7:	0f 1f 84 00 00 00 00 
  403ece:	00 
  403ecf:	66 66 66 66 66 66 2e 	data32 data32 data32 data32 data32 nopw %cs:0x0(%rax,%rax,1)
  403ed6:	0f 1f 84 00 00 00 00 
  403edd:	00 
  403ede:	66 66 66 66 66 66 2e 	data32 data32 data32 data32 data32 nopw %cs:0x0(%rax,%rax,1)
  403ee5:	0f 1f 84 00 00 00 00 
  403eec:	00 
  403eed:	66 66 66 66 66 66 2e 	data32 data32 data32 data32 data32 nopw %cs:0x0(%rax,%rax,1)
  403ef4:	0f 1f 84 00 00 00 00 
  403efb:	00 
  403efc:	66 66 66 66 66 66 2e 	data32 data32 data32 data32 data32 nopw %cs:0x0(%rax,%rax,1)
  403f03:	0f 1f 84 00 00 00 00 
  403f0a:	00 
  403f0b:	66 66 66 66 66 66 2e 	data32 data32 data32 data32 data32 nopw %cs:0x0(%rax,%rax,1)
  403f12:	0f 1f 84 00 00 00 00 
  403f19:	00 
  403f1a:	66 66 66 66 66 66 2e 	data32 data32 data32 data32 data32 nopw %cs:0x0(%rax,%rax,1)
  403f21:	0f 1f 84 00 00 00 00 
  403f28:	00 
  403f29:	66 66 66 66 66 66 2e 	data32 data32 data32 data32 data32 nopw %cs:0x0(%rax,%rax,1)
  403f30:	0f 1f 84 00 00 00 00 
  403f37:	00 
  403f38:	66 66 66 66 66 66 2e 	data32 data32 data32 data32 data32 nopw %cs:0x0(%rax,%rax,1)
  403f3f:	0f 1f 84 00 00 00 00 
  403f46:	00 
  403f47:	66 66 66 66 66 66 2e 	data32 data32 data32 data32 data32 nopw %cs:0x0(%rax,%rax,1)
  403f4e:	0f 1f 84 00 00 00 00 
  403f55:	00 
  403f56:	66 66 66 66 66 66 2e 	data32 data32 data32 data32 data32 nopw %cs:0x0(%rax,%rax,1)
  403f5d:	0f 1f 84 00 00 00 00 
  403f64:	00 
  403f65:	66 66 66 66 66 66 2e 	data32 data32 data32 data32 data32 nopw %cs:0x0(%rax,%rax,1)
  403f6c:	0f 1f 84 00 00 00 00 
  403f73:	00 
  403f74:	66 66 66 66 66 66 2e 	data32 data32 data32 data32 data32 nopw %cs:0x0(%rax,%rax,1)
  403f7b:	0f 1f 84 00 00 00 00 
  403f82:	00 
  403f83:	66 66 66 66 66 66 2e 	data32 data32 data32 data32 data32 nopw %cs:0x0(%rax,%rax,1)
  403f8a:	0f 1f 84 00 00 00 00 
  403f91:	00 
  403f92:	66 66 66 66 66 66 2e 	data32 data32 data32 data32 data32 nopw %cs:0x0(%rax,%rax,1)
  403f99:	0f 1f 84 00 00 00 00 
  403fa0:	00 
  403fa1:	66 66 66 66 66 66 2e 	data32 data32 data32 data32 data32 nopw %cs:0x0(%rax,%rax,1)
  403fa8:	0f 1f 84 00 00 00 00 
  403faf:	00 
  403fb0:	66 66 66 66 66 66 2e 	data32 data32 data32 data32 data32 nopw %cs:0x0(%rax,%rax,1)
  403fb7:	0f 1f 84 00 00 00 00 
  403fbe:	00 
  403fbf:	66 66 66 66 66 66 2e 	data32 data32 data32 data32 data32 nopw %cs:0x0(%rax,%rax,1)
  403fc6:	0f 1f 84 00 00 00 00 
  403fcd:	00 
  403fce:	66 66 66 66 66 66 2e 	data32 data32 data32 data32 data32 nopw %cs:0x0(%rax,%rax,1)
  403fd5:	0f 1f 84 00 00 00 00 
  403fdc:	00 
  403fdd:	66 66 66 66 66 66 2e 	data32 data32 data32 data32 data32 nopw %cs:0x0(%rax,%rax,1)
  403fe4:	0f 1f 84 00 00 00 00 
  403feb:	00 
  403fec:	66 66 66 66 66 66 2e 	data32 data32 data32 data32 data32 nopw %cs:0x0(%rax,%rax,1)
  403ff3:	0f 1f 84 00 00 00 00 
  403ffa:	00 
  403ffb:	0f 1f 44 00 00       	nopl   0x0(%rax,%rax,1)

0000000000404000 <DoBitops>:
  404000:	c4 43 fb f0 f5 3c    	rorx   $0x3c,%r13,%r14
  404006:	66 41 81 fe 80 0b    	cmp    $0xb80,%r14w
  40400c:	73 22                	jae    404030 <DoBitops+0x30>
  40400e:	49 c1 ee 10          	shr    $0x10,%r14
  404012:	67 4f 03 74 f7 f8    	add    -0x8(%r15d,%r14d,8),%r14
  404018:	49 c1 e6 0c          	shl    $0xc,%r14
  40401c:	49 8d 26             	lea    (%r14),%rsp
  40401f:	54                   	push   %rsp
  404020:	41 55                	push   %r13
  404022:	41 55                	push   %r13
  404024:	4d 23 2f             	and    (%r15),%r13
  404027:	49 81 ed b0 00 00 00 	sub    $0xb0,%r13
  40402e:	eb 0b                	jmp    40403b <DoBitops+0x3b>
  404030:	41 55                	push   %r13
  404032:	41 55                	push   %r13
  404034:	49 81 ed b0 00 00 00 	sub    $0xb0,%r13
  40403b:	55                   	push   %rbp
  40403c:	41 54                	push   %r12
  40403e:	53                   	push   %rbx
  40403f:	48 81 ec 80 00 00 00 	sub    $0x80,%rsp
  404046:	48 c7 44 24 38 00 00 	movq   $0x0,0x38(%rsp)
  40404d:	00 00 
  40404f:	f2 0f 10 44 24 38    	movsd  0x38(%rsp),%xmm0
  404055:	f2 0f 11 44 24 28    	movsd  %xmm0,0x28(%rsp)
  40405b:	b8 00 20 41 00       	mov    $0x412000,%eax
  404060:	c4 63 fb f0 f0 0c    	rorx   $0xc,%rax,%r14
  404066:	67 4f 03 34 f7       	add    (%r15d,%r14d,8),%r14
  40406b:	c4 c3 fb f0 ce 34    	rorx   $0x34,%r14,%rcx
  404071:	b8 30 49 f5 00       	mov    $0xf54930,%eax
  404076:	c4 63 fb f0 f0 0c    	rorx   $0xc,%rax,%r14
  40407c:	67 4f 03 34 f7       	add    (%r15d,%r14d,8),%r14
  404081:	c4 c3 fb f0 ee 34    	rorx   $0x34,%r14,%rbp
  404087:	48 8d 44 24 30       	lea    0x30(%rsp),%rax
  40408c:	49 8d 45 30          	lea    0x30(%r13),%rax
  404090:	48 89 44 24 18       	mov    %rax,0x18(%rsp)
  404095:	48 8d 44 24 0c       	lea    0xc(%rsp),%rax
  40409a:	49 8d 75 0c          	lea    0xc(%r13),%rsi
  40409e:	44 8b 65 00          	mov    0x0(%rbp),%r12d
  4040a2:	48 8b 7d 20          	mov    0x20(%rbp),%rdi
  4040a6:	48 c1 e7 03          	shl    $0x3,%rdi
  4040aa:	48 89 74 24 10       	mov    %rsi,0x10(%rsp)
  4040af:	48 89 0c 24          	mov    %rcx,(%rsp)
  4040b3:	68 ba 40 40 00       	pushq  $0x4040ba
  4040b8:	ff e1                	jmpq   *%rcx

00000000004040ba <.L545$pb>:
  4040ba:	41 83 fc 00          	cmp    $0x0,%r12d
  4040be:	8b 74 24 0c          	mov    0xc(%rsp),%esi
  4040c2:	48 89 44 24 20       	mov    %rax,0x20(%rsp)
  4040c7:	0f 84 d9 00 00 00    	je     4041a6 <.L605$pb+0x5>
  4040cd:	85 f6                	test   %esi,%esi
  4040cf:	74 41                	je     404112 <.L565$pb>
  4040d1:	b8 90 24 41 00       	mov    $0x412490,%eax
  4040d6:	c4 63 fb f0 f0 0c    	rorx   $0xc,%rax,%r14
  4040dc:	67 4f 03 34 f7       	add    (%r15d,%r14d,8),%r14
  4040e1:	c4 c3 fb f0 c6 34    	rorx   $0x34,%r14,%rax
  4040e7:	bf f6 0b 45 00       	mov    $0x450bf6,%edi
  4040ec:	68 f3 40 40 00       	pushq  $0x4040f3
  4040f1:	ff e0                	jmpq   *%rax

00000000004040f3 <.L555$pb>:
  4040f3:	b8 20 26 41 00       	mov    $0x412620,%eax
  4040f8:	c4 63 fb f0 f0 0c    	rorx   $0xc,%rax,%r14
  4040fe:	67 4f 03 34 f7       	add    (%r15d,%r14d,8),%r14
  404103:	c4 c3 fb f0 ce 34    	rorx   $0x34,%r14,%rcx
  404109:	31 c0                	xor    %eax,%eax
  40410b:	68 12 41 40 00       	pushq  $0x404112
  404110:	ff e1                	jmpq   *%rcx

0000000000404112 <.L565$pb>:
  404112:	48 8b 7d 18          	mov    0x18(%rbp),%rdi
  404116:	48 c1 e7 04          	shl    $0x4,%rdi
  40411a:	48 8b 5c 24 10       	mov    0x10(%rsp),%rbx
  40411f:	48 89 de             	mov    %rbx,%rsi
  404122:	68 2b 41 40 00       	pushq  $0x40412b
  404127:	ff 64 24 08          	jmpq   *0x8(%rsp)

000000000040412b <.L575$pb>:
  40412b:	48 89 04 24          	mov    %rax,(%rsp)
  40412f:	8b 74 24 0c          	mov    0xc(%rsp),%esi
  404133:	85 f6                	test   %esi,%esi
  404135:	0f 84 fa 01 00 00    	je     404335 <.L685$pb+0x64>
  40413b:	b8 90 24 41 00       	mov    $0x412490,%eax
  404140:	c4 63 fb f0 f0 0c    	rorx   $0xc,%rax,%r14
  404146:	67 4f 03 34 f7       	add    (%r15d,%r14d,8),%r14
  40414b:	c4 c3 fb f0 c6 34    	rorx   $0x34,%r14,%rax
  404151:	bf f6 0b 45 00       	mov    $0x450bf6,%edi
  404156:	68 5d 41 40 00       	pushq  $0x40415d
  40415b:	ff e0                	jmpq   *%rax

000000000040415d <.L585$pb>:
  40415d:	b8 10 22 41 00       	mov    $0x412210,%eax
  404162:	c4 63 fb f0 f0 0c    	rorx   $0xc,%rax,%r14
  404168:	67 4f 03 34 f7       	add    (%r15d,%r14d,8),%r14
  40416d:	c4 c3 fb f0 c6 34    	rorx   $0x34,%r14,%rax
  404173:	48 8b 7c 24 20       	mov    0x20(%rsp),%rdi
  404178:	48 89 de             	mov    %rbx,%rsi
  40417b:	68 82 41 40 00       	pushq  $0x404182
  404180:	ff e0                	jmpq   *%rax

0000000000404182 <.L595$pb>:
  404182:	b8 20 26 41 00       	mov    $0x412620,%eax
  404187:	c4 63 fb f0 f0 0c    	rorx   $0xc,%rax,%r14
  40418d:	67 4f 03 34 f7       	add    (%r15d,%r14d,8),%r14
  404192:	c4 c3 fb f0 ce 34    	rorx   $0x34,%r14,%rcx
  404198:	31 c0                	xor    %eax,%eax
  40419a:	68 a1 41 40 00       	pushq  $0x4041a1
  40419f:	ff e1                	jmpq   *%rcx

00000000004041a1 <.L605$pb>:
  4041a1:	e9 8f 01 00 00       	jmpq   404335 <.L685$pb+0x64>
  4041a6:	85 f6                	test   %esi,%esi
  4041a8:	74 41                	je     4041eb <.L625$pb>
  4041aa:	b8 90 24 41 00       	mov    $0x412490,%eax
  4041af:	c4 63 fb f0 f0 0c    	rorx   $0xc,%rax,%r14
  4041b5:	67 4f 03 34 f7       	add    (%r15d,%r14d,8),%r14
  4041ba:	c4 c3 fb f0 c6 34    	rorx   $0x34,%r14,%rax
  4041c0:	bf f6 0b 45 00       	mov    $0x450bf6,%edi
  4041c5:	68 cc 41 40 00       	pushq  $0x4041cc
  4041ca:	ff e0                	jmpq   *%rax

00000000004041cc <.L615$pb>:
  4041cc:	b8 20 26 41 00       	mov    $0x412620,%eax
  4041d1:	c4 63 fb f0 f0 0c    	rorx   $0xc,%rax,%r14
  4041d7:	67 4f 03 34 f7       	add    (%r15d,%r14d,8),%r14
  4041dc:	c4 c3 fb f0 ce 34    	rorx   $0x34,%r14,%rcx
  4041e2:	31 c0                	xor    %eax,%eax
  4041e4:	68 eb 41 40 00       	pushq  $0x4041eb
  4041e9:	ff e1                	jmpq   *%rcx

00000000004041eb <.L625$pb>:
  4041eb:	b8 1e 00 00 00       	mov    $0x1e,%eax
  4041f0:	48 8b 5c 24 10       	mov    0x10(%rsp),%rbx
  4041f5:	4c 8b 24 24          	mov    (%rsp),%r12
  4041f9:	eb 1a                	jmp    404215 <.L635$pb+0x8>
  4041fb:	48 89 df             	mov    %rbx,%rdi
  4041fe:	48 8b 5c 24 10       	mov    0x10(%rsp),%rbx
  404203:	48 89 de             	mov    %rbx,%rsi
  404206:	68 0d 42 40 00       	pushq  $0x40420d
  40420b:	ff e0                	jmpq   *%rax

000000000040420d <.L635$pb>:
  40420d:	48 8b 45 18          	mov    0x18(%rbp),%rax
  404211:	48 83 c0 64          	add    $0x64,%rax
  404215:	48 89 45 18          	mov    %rax,0x18(%rbp)
  404219:	48 8b 7d 18          	mov    0x18(%rbp),%rdi
  40421d:	48 c1 e7 04          	shl    $0x4,%rdi
  404221:	48 89 de             	mov    %rbx,%rsi
  404224:	68 2c 42 40 00       	pushq  $0x40422c
  404229:	41 ff e4             	jmpq   *%r12

000000000040422c <.L645$pb>:
  40422c:	48 89 04 24          	mov    %rax,(%rsp)
  404230:	8b 74 24 0c          	mov    0xc(%rsp),%esi
  404234:	85 f6                	test   %esi,%esi
  404236:	4c 8b 64 24 20       	mov    0x20(%rsp),%r12
  40423b:	74 64                	je     4042a1 <.L675$pb>
  40423d:	b8 90 24 41 00       	mov    $0x412490,%eax
  404242:	c4 63 fb f0 f0 0c    	rorx   $0xc,%rax,%r14
  404248:	67 4f 03 34 f7       	add    (%r15d,%r14d,8),%r14
  40424d:	c4 c3 fb f0 c6 34    	rorx   $0x34,%r14,%rax
  404253:	bf f6 0b 45 00       	mov    $0x450bf6,%edi
  404258:	68 5f 42 40 00       	pushq  $0x40425f
  40425d:	ff e0                	jmpq   *%rax

000000000040425f <.L655$pb>:
  40425f:	b8 10 22 41 00       	mov    $0x412210,%eax
  404264:	c4 63 fb f0 f0 0c    	rorx   $0xc,%rax,%r14
  40426a:	67 4f 03 34 f7       	add    (%r15d,%r14d,8),%r14
  40426f:	c4 c3 fb f0 c6 34    	rorx   $0x34,%r14,%rax
  404275:	4c 89 e7             	mov    %r12,%rdi
  404278:	48 89 de             	mov    %rbx,%rsi
  40427b:	68 82 42 40 00       	pushq  $0x404282
  404280:	ff e0                	jmpq   *%rax

0000000000404282 <.L665$pb>:
  404282:	b8 20 26 41 00       	mov    $0x412620,%eax
  404287:	c4 63 fb f0 f0 0c    	rorx   $0xc,%rax,%r14
  40428d:	67 4f 03 34 f7       	add    (%r15d,%r14d,8),%r14
  404292:	c4 c3 fb f0 ce 34    	rorx   $0x34,%r14,%rcx
  404298:	31 c0                	xor    %eax,%eax
  40429a:	68 a1 42 40 00       	pushq  $0x4042a1
  40429f:	ff e1                	jmpq   *%rcx

00000000004042a1 <.L675$pb>:
  4042a1:	48 8b 55 18          	mov    0x18(%rbp),%rdx
  4042a5:	b8 70 45 40 00       	mov    $0x404570,%eax
  4042aa:	c4 63 fb f0 f0 0c    	rorx   $0xc,%rax,%r14
  4042b0:	67 4f 03 34 f7       	add    (%r15d,%r14d,8),%r14
  4042b5:	c4 c3 fb f0 c6 34    	rorx   $0x34,%r14,%rax
  4042bb:	4c 89 e7             	mov    %r12,%rdi
  4042be:	48 8b 1c 24          	mov    (%rsp),%rbx
  4042c2:	48 89 de             	mov    %rbx,%rsi
  4042c5:	48 8b 4c 24 18       	mov    0x18(%rsp),%rcx
  4042ca:	68 d1 42 40 00       	pushq  $0x4042d1
  4042cf:	ff e0                	jmpq   *%rax

00000000004042d1 <.L685$pb>:
  4042d1:	48 63 c8             	movslq %eax,%rcx
  4042d4:	b8 00 4f f5 00       	mov    $0xf54f00,%eax
  4042d9:	c4 63 fb f0 f0 0c    	rorx   $0xc,%rax,%r14
  4042df:	67 4f 03 34 f7       	add    (%r15d,%r14d,8),%r14
  4042e4:	c4 c3 fb f0 d6 34    	rorx   $0x34,%r14,%rdx
  4042ea:	b8 00 20 41 00       	mov    $0x412000,%eax
  4042ef:	c4 63 fb f0 f0 0c    	rorx   $0xc,%rax,%r14
  4042f5:	67 4f 03 34 f7       	add    (%r15d,%r14d,8),%r14
  4042fa:	c4 43 fb f0 e6 34    	rorx   $0x34,%r14,%r12
  404300:	b8 10 22 41 00       	mov    $0x412210,%eax
  404305:	c4 63 fb f0 f0 0c    	rorx   $0xc,%rax,%r14
  40430b:	67 4f 03 34 f7       	add    (%r15d,%r14d,8),%r14
  404310:	c4 c3 fb f0 c6 34    	rorx   $0x34,%r14,%rax
  404316:	be 30 49 f5 00       	mov    $0xf54930,%esi
  40431b:	c4 63 fb f0 f6 0c    	rorx   $0xc,%rsi,%r14
  404321:	67 4f 03 34 f7       	add    (%r15d,%r14d,8),%r14
  404326:	c4 c3 fb f0 ee 34    	rorx   $0x34,%r14,%rbp
  40432c:	48 3b 0a             	cmp    (%rdx),%rcx
  40432f:	0f 86 c6 fe ff ff    	jbe    4041fb <.L625$pb+0x10>
  404335:	31 db                	xor    %ebx,%ebx
  404337:	4c 8b 64 24 18       	mov    0x18(%rsp),%r12
  40433c:	48 8b 55 18          	mov    0x18(%rbp),%rdx
  404340:	b8 70 45 40 00       	mov    $0x404570,%eax
  404345:	c4 63 fb f0 f0 0c    	rorx   $0xc,%rax,%r14
  40434b:	67 4f 03 34 f7       	add    (%r15d,%r14d,8),%r14
  404350:	c4 c3 fb f0 c6 34    	rorx   $0x34,%r14,%rax
  404356:	48 8b 7c 24 20       	mov    0x20(%rsp),%rdi
  40435b:	48 8b 34 24          	mov    (%rsp),%rsi
  40435f:	4c 89 e1             	mov    %r12,%rcx
  404362:	68 69 43 40 00       	pushq  $0x404369
  404367:	ff e0                	jmpq   *%rax

0000000000404369 <.L695$pb>:
  404369:	48 01 c3             	add    %rax,%rbx
  40436c:	f3 0f 7e 44 24 30    	movq   0x30(%rsp),%xmm0
  404372:	49 81 ed 08 00 00 00 	sub    $0x8,%r13
  404379:	9c                   	pushfq 
  40437a:	49 be 50 0a 45 00 00 	movabs $0x450a50,%r14
  404381:	00 00 00 
  404384:	c4 43 fb f0 f6 0c    	rorx   $0xc,%r14,%r14
  40438a:	67 4f 03 34 f7       	add    (%r15d,%r14d,8),%r14
  40438f:	c4 43 fb f0 f6 34    	rorx   $0x34,%r14,%r14
  404395:	49 81 c5 08 00 00 00 	add    $0x8,%r13
  40439c:	9d                   	popfq  
  40439d:	66 41 0f 62 06       	punpckldq (%r14),%xmm0
  4043a2:	49 81 ed 08 00 00 00 	sub    $0x8,%r13
  4043a9:	9c                   	pushfq 
  4043aa:	49 be 60 0a 45 00 00 	movabs $0x450a60,%r14
  4043b1:	00 00 00 
  4043b4:	c4 43 fb f0 f6 0c    	rorx   $0xc,%r14,%r14
  4043ba:	67 4f 03 34 f7       	add    (%r15d,%r14d,8),%r14
  4043bf:	c4 43 fb f0 f6 34    	rorx   $0x34,%r14,%r14
  4043c5:	49 81 c5 08 00 00 00 	add    $0x8,%r13
  4043cc:	9d                   	popfq  
  4043cd:	66 41 0f 5c 06       	subpd  (%r14),%xmm0
  4043d2:	66 0f 70 c8 4e       	pshufd $0x4e,%xmm0,%xmm1
  4043d7:	66 0f 58 c8          	addpd  %xmm0,%xmm1
  4043db:	f2 0f 10 44 24 28    	movsd  0x28(%rsp),%xmm0
  4043e1:	f2 0f 58 c1          	addsd  %xmm1,%xmm0
  4043e5:	f2 0f 11 44 24 28    	movsd  %xmm0,0x28(%rsp)
  4043eb:	b8 40 27 41 00       	mov    $0x412740,%eax
  4043f0:	c4 63 fb f0 f0 0c    	rorx   $0xc,%rax,%r14
  4043f6:	67 4f 03 34 f7       	add    (%r15d,%r14d,8),%r14
  4043fb:	c4 c3 fb f0 c6 34    	rorx   $0x34,%r14,%rax
  404401:	48 89 df             	mov    %rbx,%rdi
  404404:	68 0b 44 40 00       	pushq  $0x40440b
  404409:	ff e0                	jmpq   *%rax

000000000040440b <.L705$pb>:
  40440b:	b9 30 49 f5 00       	mov    $0xf54930,%ecx
  404410:	c4 63 fb f0 f1 0c    	rorx   $0xc,%rcx,%r14
  404416:	67 4f 03 34 f7       	add    (%r15d,%r14d,8),%r14
  40441b:	c4 c3 fb f0 ee 34    	rorx   $0x34,%r14,%rbp
  404421:	48 3b 45 08          	cmp    0x8(%rbp),%rax
  404425:	0f 82 11 ff ff ff    	jb     40433c <.L685$pb+0x6b>
  40442b:	b8 80 27 41 00       	mov    $0x412780,%eax
  404430:	c4 63 fb f0 f0 0c    	rorx   $0xc,%rax,%r14
  404436:	67 4f 03 34 f7       	add    (%r15d,%r14d,8),%r14
  40443b:	c4 c3 fb f0 c6 34    	rorx   $0x34,%r14,%rax
  404441:	48 89 44 24 18       	mov    %rax,0x18(%rsp)
  404446:	b8 10 22 41 00       	mov    $0x412210,%eax
  40444b:	c4 63 fb f0 f0 0c    	rorx   $0xc,%rax,%r14
  404451:	67 4f 03 34 f7       	add    (%r15d,%r14d,8),%r14
  404456:	c4 43 fb f0 e6 34    	rorx   $0x34,%r14,%r12
  40445c:	48 8b 7c 24 20       	mov    0x20(%rsp),%rdi
  404461:	48 8b 74 24 10       	mov    0x10(%rsp),%rsi
  404466:	68 6e 44 40 00       	pushq  $0x40446e
  40446b:	41 ff e4             	jmpq   *%r12

000000000040446e <.L715$pb>:
  40446e:	48 8b 3c 24          	mov    (%rsp),%rdi
  404472:	48 8b 74 24 10       	mov    0x10(%rsp),%rsi
  404477:	68 7f 44 40 00       	pushq  $0x40447f
  40447c:	41 ff e4             	jmpq   *%r12

000000000040447f <.L725$pb>:
  40447f:	48 89 df             	mov    %rbx,%rdi
  404482:	4c 8b 64 24 18       	mov    0x18(%rsp),%r12
  404487:	68 8f 44 40 00       	pushq  $0x40448f
  40448c:	41 ff e4             	jmpq   *%r12

000000000040448f <.L735$pb>:
  40448f:	f2 0f 10 4c 24 28    	movsd  0x28(%rsp),%xmm1
  404495:	f2 0f 5e c8          	divsd  %xmm0,%xmm1
  404499:	f2 0f 11 4d 10       	movsd  %xmm1,0x10(%rbp)
  40449e:	48 8d 44 24 40       	lea    0x40(%rsp),%rax
  4044a3:	49 8d 6d 40          	lea    0x40(%r13),%rbp
  4044a7:	48 89 df             	mov    %rbx,%rdi
  4044aa:	68 b2 44 40 00       	pushq  $0x4044b2
  4044af:	41 ff e4             	jmpq   *%r12

00000000004044b2 <.L745$pb>:
  4044b2:	f2 0f 5e 44 24 28    	divsd  0x28(%rsp),%xmm0
  4044b8:	b8 00 30 42 00       	mov    $0x423000,%eax
  4044bd:	c4 63 fb f0 f0 0c    	rorx   $0xc,%rax,%r14
  4044c3:	67 4f 03 34 f7       	add    (%r15d,%r14d,8),%r14
  4044c8:	c4 c3 fb f0 ce 34    	rorx   $0x34,%r14,%rcx
  4044ce:	be e0 0b 45 00       	mov    $0x450be0,%esi
  4044d3:	b0 01                	mov    $0x1,%al
  4044d5:	48 89 ef             	mov    %rbp,%rdi
  4044d8:	68 df 44 40 00       	pushq  $0x4044df
  4044dd:	ff e1                	jmpq   *%rcx

00000000004044df <.L755$pb>:
  4044df:	b8 80 63 42 00       	mov    $0x426380,%eax
  4044e4:	c4 63 fb f0 f0 0c    	rorx   $0xc,%rax,%r14
  4044ea:	67 4f 03 34 f7       	add    (%r15d,%r14d,8),%r14
  4044ef:	c4 c3 fb f0 c6 34    	rorx   $0x34,%r14,%rax
  4044f5:	48 89 ef             	mov    %rbp,%rdi
  4044f8:	68 ff 44 40 00       	pushq  $0x4044ff
  4044fd:	ff e0                	jmpq   *%rax

00000000004044ff <.L765$pb>:
  4044ff:	b8 30 49 f5 00       	mov    $0xf54930,%eax
  404504:	c4 63 fb f0 f0 0c    	rorx   $0xc,%rax,%r14
  40450a:	67 4f 03 34 f7       	add    (%r15d,%r14d,8),%r14
  40450f:	c4 c3 fb f0 c6 34    	rorx   $0x34,%r14,%rax
  404515:	83 38 00             	cmpl   $0x0,(%rax)
  404518:	75 06                	jne    404520 <.L765$pb+0x21>
  40451a:	c7 00 01 00 00 00    	movl   $0x1,(%rax)
  404520:	48 8b 9c 24 80 00 00 	mov    0x80(%rsp),%rbx
  404527:	00 
  404528:	4c 8b a4 24 88 00 00 	mov    0x88(%rsp),%r12
  40452f:	00 
  404530:	48 8b ac 24 90 00 00 	mov    0x90(%rsp),%rbp
  404537:	00 
  404538:	4c 8b ac 24 98 00 00 	mov    0x98(%rsp),%r13
  40453f:	00 
  404540:	c4 43 fb f0 f5 0c    	rorx   $0xc,%r13,%r14
  404546:	67 4f 03 34 f7       	add    (%r15d,%r14d,8),%r14
  40454b:	c4 c3 fb f0 e6 34    	rorx   $0x34,%r14,%rsp
  404551:	c4 63 fb f0 74 24 f8 	rorx   $0xc,-0x8(%rsp),%r14
  404558:	0c 
  404559:	67 4f 03 34 f7       	add    (%r15d,%r14d,8),%r14
  40455e:	c4 43 fb f0 f6 34    	rorx   $0x34,%r14,%r14
  404564:	41 ff e6             	jmpq   *%r14
  404567:	66 0f 1f 84 00 00 00 	nopw   0x0(%rax,%rax,1)
  40456e:	00 00 

0000000000404570 <DoBitfieldIteration>:
  404570:	c4 43 fb f0 f5 3c    	rorx   $0x3c,%r13,%r14
  404576:	66 41 81 fe 80 06    	cmp    $0x680,%r14w
  40457c:	73 22                	jae    4045a0 <DoBitfieldIteration+0x30>
  40457e:	49 c1 ee 10          	shr    $0x10,%r14
  404582:	67 4f 03 74 f7 f8    	add    -0x8(%r15d,%r14d,8),%r14
  404588:	49 c1 e6 0c          	shl    $0xc,%r14
  40458c:	49 8d 26             	lea    (%r14),%rsp
  40458f:	54                   	push   %rsp
  404590:	41 55                	push   %r13
  404592:	41 55                	push   %r13
  404594:	4d 23 2f             	and    (%r15),%r13
  404597:	49 81 ed 60 00 00 00 	sub    $0x60,%r13
  40459e:	eb 0b                	jmp    4045ab <DoBitfieldIteration+0x3b>
  4045a0:	41 55                	push   %r13
  4045a2:	41 55                	push   %r13
  4045a4:	49 81 ed 60 00 00 00 	sub    $0x60,%r13
  4045ab:	55                   	push   %rbp
  4045ac:	41 54                	push   %r12
  4045ae:	53                   	push   %rbx
  4045af:	48 83 ec 30          	sub    $0x30,%rsp
  4045b3:	48 89 14 24          	mov    %rdx,(%rsp)
  4045b7:	48 89 7c 24 18       	mov    %rdi,0x18(%rsp)
  4045bc:	c4 63 fb f0 f7 0c    	rorx   $0xc,%rdi,%r14
  4045c2:	67 4f 03 34 f7       	add    (%r15d,%r14d,8),%r14
  4045c7:	c4 c3 fb f0 de 34    	rorx   $0x34,%r14,%rbx
  4045cd:	c4 63 fb f0 f6 0c    	rorx   $0xc,%rsi,%r14
  4045d3:	67 4f 03 34 f7       	add    (%r15d,%r14d,8),%r14
  4045d8:	c4 c3 fb f0 c6 34    	rorx   $0x34,%r14,%rax
  4045de:	48 89 44 24 20       	mov    %rax,0x20(%rsp)
  4045e3:	b8 30 31 41 00       	mov    $0x413130,%eax
  4045e8:	c4 63 fb f0 f0 0c    	rorx   $0xc,%rax,%r14
  4045ee:	67 4f 03 34 f7       	add    (%r15d,%r14d,8),%r14
  4045f3:	c4 c3 fb f0 c6 34    	rorx   $0x34,%r14,%rax
  4045f9:	48 89 44 24 10       	mov    %rax,0x10(%rsp)
  4045fe:	b8 30 49 f5 00       	mov    $0xf54930,%eax
  404603:	c4 63 fb f0 f0 0c    	rorx   $0xc,%rax,%r14
  404609:	67 4f 03 34 f7       	add    (%r15d,%r14d,8),%r14
  40460e:	c4 c3 fb f0 ee 34    	rorx   $0x34,%r14,%rbp
  404614:	b8 a0 30 41 00       	mov    $0x4130a0,%eax
  404619:	c4 63 fb f0 f0 0c    	rorx   $0xc,%rax,%r14
  40461f:	67 4f 03 34 f7       	add    (%r15d,%r14d,8),%r14
  404624:	c4 43 fb f0 e6 34    	rorx   $0x34,%r14,%r12
  40462a:	c4 63 fb f0 f1 0c    	rorx   $0xc,%rcx,%r14
  404630:	67 4f 03 34 f7       	add    (%r15d,%r14d,8),%r14
  404635:	c4 c3 fb f0 c6 34    	rorx   $0x34,%r14,%rax
  40463b:	48 89 44 24 08       	mov    %rax,0x8(%rsp)
  404640:	48 c7 00 00 00 00 00 	movq   $0x0,(%rax)
  404647:	bf 0d 00 00 00       	mov    $0xd,%edi
  40464c:	68 54 46 40 00       	pushq  $0x404654
  404651:	41 ff e4             	jmpq   *%r12

0000000000404654 <.L776$pb>:
  404654:	48 83 7d 20 00       	cmpq   $0x0,0x20(%rbp)
  404659:	74 19                	je     404674 <.L776$pb+0x20>
  40465b:	31 c0                	xor    %eax,%eax
  40465d:	48 b9 55 55 55 55 55 	movabs $0x5555555555555555,%rcx
  404664:	55 55 55 
  404667:	48 89 0c c3          	mov    %rcx,(%rbx,%rax,8)
  40466b:	48 ff c0             	inc    %rax
  40466e:	48 3b 45 20          	cmp    0x20(%rbp),%rax
  404672:	72 f3                	jb     404667 <.L776$pb+0x13>
  404674:	bf 0d 00 00 00       	mov    $0xd,%edi
  404679:	68 81 46 40 00       	pushq  $0x404681
  40467e:	41 ff e4             	jmpq   *%r12

0000000000404681 <.L786$pb>:
  404681:	48 83 3c 24 00       	cmpq   $0x0,(%rsp)
  404686:	4c 8b 64 24 10       	mov    0x10(%rsp),%r12
  40468b:	7e 47                	jle    4046d4 <.L806$pb+0x1a>
  40468d:	48 8b 4c 24 20       	mov    0x20(%rsp),%rcx
  404692:	48 8d 59 08          	lea    0x8(%rcx),%rbx
  404696:	31 ed                	xor    %ebp,%ebp
  404698:	bf fc ff 03 00       	mov    $0x3fffc,%edi
  40469d:	68 a5 46 40 00       	pushq  $0x4046a5
  4046a2:	41 ff e4             	jmpq   *%r12

00000000004046a5 <.L796$pb>:
  4046a5:	89 c1                	mov    %eax,%ecx
  4046a7:	48 89 4b f8          	mov    %rcx,-0x8(%rbx)
  4046ab:	bf fc ff 03 00       	mov    $0x3fffc,%edi
  4046b0:	29 c7                	sub    %eax,%edi
  4046b2:	68 ba 46 40 00       	pushq  $0x4046ba
  4046b7:	41 ff e4             	jmpq   *%r12

00000000004046ba <.L806$pb>:
  4046ba:	48 8b 54 24 08       	mov    0x8(%rsp),%rdx
  4046bf:	89 c0                	mov    %eax,%eax
  4046c1:	48 89 03             	mov    %rax,(%rbx)
  4046c4:	48 01 02             	add    %rax,(%rdx)
  4046c7:	48 ff c5             	inc    %rbp
  4046ca:	48 83 c3 10          	add    $0x10,%rbx
  4046ce:	48 39 2c 24          	cmp    %rbp,(%rsp)
  4046d2:	75 c4                	jne    404698 <.L786$pb+0x17>
  4046d4:	b8 80 26 41 00       	mov    $0x412680,%eax
  4046d9:	c4 63 fb f0 f0 0c    	rorx   $0xc,%rax,%r14
  4046df:	67 4f 03 34 f7       	add    (%r15d,%r14d,8),%r14
  4046e4:	c4 c3 fb f0 ce 34    	rorx   $0x34,%r14,%rcx
  4046ea:	31 c0                	xor    %eax,%eax
  4046ec:	68 f3 46 40 00       	pushq  $0x4046f3
  4046f1:	ff e1                	jmpq   *%rcx

00000000004046f3 <.L816$pb>:
  4046f3:	48 89 44 24 28       	mov    %rax,0x28(%rsp)
  4046f8:	b8 40 a8 40 00       	mov    $0x40a840,%eax
  4046fd:	c4 63 fb f0 f0 0c    	rorx   $0xc,%rax,%r14
  404703:	67 4f 03 34 f7       	add    (%r15d,%r14d,8),%r14
  404708:	c4 c3 fb f0 c6 34    	rorx   $0x34,%r14,%rax
  40470e:	48 89 44 24 10       	mov    %rax,0x10(%rsp)
  404713:	b8 c0 a7 40 00       	mov    $0x40a7c0,%eax
  404718:	c4 63 fb f0 f0 0c    	rorx   $0xc,%rax,%r14
  40471e:	67 4f 03 34 f7       	add    (%r15d,%r14d,8),%r14
  404723:	c4 c3 fb f0 c6 34    	rorx   $0x34,%r14,%rax
  404729:	48 89 44 24 08       	mov    %rax,0x8(%rsp)
  40472e:	48 8b 04 24          	mov    (%rsp),%rax
  404732:	48 85 c0             	test   %rax,%rax
  404735:	48 89 c6             	mov    %rax,%rsi
  404738:	48 8b 5c 24 20       	mov    0x20(%rsp),%rbx
  40473d:	0f 8e 87 00 00 00    	jle    4047ca <.L836$pb+0x10>
  404743:	48 83 c3 08          	add    $0x8,%rbx
  404747:	31 ed                	xor    %ebp,%ebp
  404749:	49 bc 56 55 55 55 55 	movabs $0x5555555555555556,%r12
  404750:	55 55 55 
  404753:	48 89 e8             	mov    %rbp,%rax
  404756:	49 f7 ec             	imul   %r12
  404759:	48 89 d0             	mov    %rdx,%rax
  40475c:	48 c1 e8 3f          	shr    $0x3f,%rax
  404760:	48 01 d0             	add    %rdx,%rax
  404763:	48 8d 0c 40          	lea    (%rax,%rax,2),%rcx
  404767:	48 89 e8             	mov    %rbp,%rax
  40476a:	48 29 c8             	sub    %rcx,%rax
  40476d:	48 83 f8 02          	cmp    $0x2,%rax
  404771:	74 32                	je     4047a5 <.L826$pb+0x2>
  404773:	48 83 f8 01          	cmp    $0x1,%rax
  404777:	74 13                	je     40478c <.L816$pb+0x99>
  404779:	48 85 c0             	test   %rax,%rax
  40477c:	75 40                	jne    4047be <.L836$pb+0x4>
  40477e:	48 8b 73 f8          	mov    -0x8(%rbx),%rsi
  404782:	48 8b 13             	mov    (%rbx),%rdx
  404785:	b9 01 00 00 00       	mov    $0x1,%ecx
  40478a:	eb 09                	jmp    404795 <.L816$pb+0xa2>
  40478c:	48 8b 73 f8          	mov    -0x8(%rbx),%rsi
  404790:	48 8b 13             	mov    (%rbx),%rdx
  404793:	31 c9                	xor    %ecx,%ecx
  404795:	48 8b 7c 24 18       	mov    0x18(%rsp),%rdi
  40479a:	68 a3 47 40 00       	pushq  $0x4047a3
  40479f:	ff 64 24 10          	jmpq   *0x10(%rsp)

00000000004047a3 <.L826$pb>:
  4047a3:	eb 15                	jmp    4047ba <.L836$pb>
  4047a5:	48 8b 73 f8          	mov    -0x8(%rbx),%rsi
  4047a9:	48 8b 13             	mov    (%rbx),%rdx
  4047ac:	48 8b 7c 24 18       	mov    0x18(%rsp),%rdi
  4047b1:	68 ba 47 40 00       	pushq  $0x4047ba
  4047b6:	ff 64 24 18          	jmpq   *0x18(%rsp)

00000000004047ba <.L836$pb>:
  4047ba:	48 8b 34 24          	mov    (%rsp),%rsi
  4047be:	48 ff c5             	inc    %rbp
  4047c1:	48 83 c3 10          	add    $0x10,%rbx
  4047c5:	48 39 ee             	cmp    %rbp,%rsi
  4047c8:	75 89                	jne    404753 <.L816$pb+0x60>
  4047ca:	b8 b0 26 41 00       	mov    $0x4126b0,%eax
  4047cf:	c4 63 fb f0 f0 0c    	rorx   $0xc,%rax,%r14
  4047d5:	67 4f 03 34 f7       	add    (%r15d,%r14d,8),%r14
  4047da:	c4 c3 fb f0 c6 34    	rorx   $0x34,%r14,%rax
  4047e0:	48 8b 7c 24 28       	mov    0x28(%rsp),%rdi
  4047e5:	48 8b 5c 24 30       	mov    0x30(%rsp),%rbx
  4047ea:	4c 8b 64 24 38       	mov    0x38(%rsp),%r12
  4047ef:	48 8b 6c 24 40       	mov    0x40(%rsp),%rbp
  4047f4:	4c 8b 6c 24 50       	mov    0x50(%rsp),%r13
  4047f9:	c4 43 fb f0 f5 0c    	rorx   $0xc,%r13,%r14
  4047ff:	67 4f 03 34 f7       	add    (%r15d,%r14d,8),%r14
  404804:	c4 c3 fb f0 e6 34    	rorx   $0x34,%r14,%rsp
  40480a:	48 81 ec 08 00 00 00 	sub    $0x8,%rsp
  404811:	ff e0                	jmpq   *%rax
  404813:	66 66 66 66 2e 0f 1f 	data32 data32 data32 nopw %cs:0x0(%rax,%rax,1)
  40481a:	84 00 00 00 00 00 

0000000000404820 <DoEmFloat>:
  404820:	c4 43 fb f0 f5 3c    	rorx   $0x3c,%r13,%r14
  404826:	66 41 81 fe 80 0d    	cmp    $0xd80,%r14w
  40482c:	73 22                	jae    404850 <DoEmFloat+0x30>
  40482e:	49 c1 ee 10          	shr    $0x10,%r14
  404832:	67 4f 03 74 f7 f8    	add    -0x8(%r15d,%r14d,8),%r14
  404838:	49 c1 e6 0c          	shl    $0xc,%r14
  40483c:	49 8d 26             	lea    (%r14),%rsp
  40483f:	54                   	push   %rsp
  404840:	41 55                	push   %r13
  404842:	41 55                	push   %r13
  404844:	4d 23 2f             	and    (%r15),%r13
  404847:	49 81 ed d0 00 00 00 	sub    $0xd0,%r13
  40484e:	eb 0b                	jmp    40485b <DoEmFloat+0x3b>
  404850:	41 55                	push   %r13
  404852:	41 55                	push   %r13
  404854:	49 81 ed d0 00 00 00 	sub    $0xd0,%r13
  40485b:	55                   	push   %rbp
  40485c:	41 54                	push   %r12
  40485e:	53                   	push   %rbx
  40485f:	48 81 ec a0 00 00 00 	sub    $0xa0,%rsp
  404866:	48 b8 00 00 00 00 00 	movabs $0x3ff0000000000000,%rax
  40486d:	00 f0 3f 
  404870:	48 89 44 24 58       	mov    %rax,0x58(%rsp)
  404875:	f2 0f 10 44 24 58    	movsd  0x58(%rsp),%xmm0
  40487b:	f2 0f 11 44 24 20    	movsd  %xmm0,0x20(%rsp)
  404881:	48 c7 44 24 50 00 00 	movq   $0x0,0x50(%rsp)
  404888:	00 00 
  40488a:	f2 0f 10 44 24 50    	movsd  0x50(%rsp),%xmm0
  404890:	f2 0f 11 44 24 28    	movsd  %xmm0,0x28(%rsp)
  404896:	b8 00 20 41 00       	mov    $0x412000,%eax
  40489b:	c4 63 fb f0 f0 0c    	rorx   $0xc,%rax,%r14
  4048a1:	67 4f 03 34 f7       	add    (%r15d,%r14d,8),%r14
  4048a6:	c4 43 fb f0 e6 34    	rorx   $0x34,%r14,%r12
  4048ac:	b8 b0 44 f5 00       	mov    $0xf544b0,%eax
  4048b1:	c4 63 fb f0 f0 0c    	rorx   $0xc,%rax,%r14
  4048b7:	67 4f 03 34 f7       	add    (%r15d,%r14d,8),%r14
  4048bc:	c4 c3 fb f0 de 34    	rorx   $0x34,%r14,%rbx
  4048c2:	48 8d 44 24 04       	lea    0x4(%rsp),%rax
  4048c7:	49 8d 6d 04          	lea    0x4(%r13),%rbp
  4048cb:	48 8b 43 10          	mov    0x10(%rbx),%rax
  4048cf:	48 c1 e0 02          	shl    $0x2,%rax
  4048d3:	48 8d 3c 40          	lea    (%rax,%rax,2),%rdi
  4048d7:	48 89 ee             	mov    %rbp,%rsi
  4048da:	68 e2 48 40 00       	pushq  $0x4048e2
  4048df:	41 ff e4             	jmpq   *%r12

00000000004048e2 <.L847$pb>:
  4048e2:	48 89 44 24 30       	mov    %rax,0x30(%rsp)
  4048e7:	8b 74 24 04          	mov    0x4(%rsp),%esi
  4048eb:	85 f6                	test   %esi,%esi
  4048ed:	74 41                	je     404930 <.L867$pb>
  4048ef:	b8 90 24 41 00       	mov    $0x412490,%eax
  4048f4:	c4 63 fb f0 f0 0c    	rorx   $0xc,%rax,%r14
  4048fa:	67 4f 03 34 f7       	add    (%r15d,%r14d,8),%r14
  4048ff:	c4 c3 fb f0 c6 34    	rorx   $0x34,%r14,%rax
  404905:	bf 04 0c 45 00       	mov    $0x450c04,%edi
  40490a:	68 11 49 40 00       	pushq  $0x404911
  40490f:	ff e0                	jmpq   *%rax

0000000000404911 <.L857$pb>:
  404911:	b8 20 26 41 00       	mov    $0x412620,%eax
  404916:	c4 63 fb f0 f0 0c    	rorx   $0xc,%rax,%r14
  40491c:	67 4f 03 34 f7       	add    (%r15d,%r14d,8),%r14
  404921:	c4 c3 fb f0 ce 34    	rorx   $0x34,%r14,%rcx
  404927:	31 c0                	xor    %eax,%eax
  404929:	68 30 49 40 00       	pushq  $0x404930
  40492e:	ff e1                	jmpq   *%rcx

0000000000404930 <.L867$pb>:
  404930:	48 8b 43 10          	mov    0x10(%rbx),%rax
  404934:	48 c1 e0 02          	shl    $0x2,%rax
  404938:	48 8d 3c 40          	lea    (%rax,%rax,2),%rdi
  40493c:	48 89 ee             	mov    %rbp,%rsi
  40493f:	68 47 49 40 00       	pushq  $0x404947
  404944:	41 ff e4             	jmpq   *%r12

0000000000404947 <.L877$pb>:
  404947:	48 89 44 24 08       	mov    %rax,0x8(%rsp)
  40494c:	8b 74 24 04          	mov    0x4(%rsp),%esi
  404950:	85 f6                	test   %esi,%esi
  404952:	74 66                	je     4049ba <.L907$pb>
  404954:	b8 90 24 41 00       	mov    $0x412490,%eax
  404959:	c4 63 fb f0 f0 0c    	rorx   $0xc,%rax,%r14
  40495f:	67 4f 03 34 f7       	add    (%r15d,%r14d,8),%r14
  404964:	c4 c3 fb f0 c6 34    	rorx   $0x34,%r14,%rax
  40496a:	bf 04 0c 45 00       	mov    $0x450c04,%edi
  40496f:	68 76 49 40 00       	pushq  $0x404976
  404974:	ff e0                	jmpq   *%rax

0000000000404976 <.L887$pb>:
  404976:	b8 10 22 41 00       	mov    $0x412210,%eax
  40497b:	c4 63 fb f0 f0 0c    	rorx   $0xc,%rax,%r14
  404981:	67 4f 03 34 f7       	add    (%r15d,%r14d,8),%r14
  404986:	c4 c3 fb f0 c6 34    	rorx   $0x34,%r14,%rax
  40498c:	48 8b 7c 24 30       	mov    0x30(%rsp),%rdi
  404991:	48 89 ee             	mov    %rbp,%rsi
  404994:	68 9b 49 40 00       	pushq  $0x40499b
  404999:	ff e0                	jmpq   *%rax

000000000040499b <.L897$pb>:
  40499b:	b8 20 26 41 00       	mov    $0x412620,%eax
  4049a0:	c4 63 fb f0 f0 0c    	rorx   $0xc,%rax,%r14
  4049a6:	67 4f 03 34 f7       	add    (%r15d,%r14d,8),%r14
  4049ab:	c4 c3 fb f0 ce 34    	rorx   $0x34,%r14,%rcx
  4049b1:	31 c0                	xor    %eax,%eax
  4049b3:	68 ba 49 40 00       	pushq  $0x4049ba
  4049b8:	ff e1                	jmpq   *%rcx

00000000004049ba <.L907$pb>:
  4049ba:	48 89 5c 24 48       	mov    %rbx,0x48(%rsp)
  4049bf:	48 8b 43 10          	mov    0x10(%rbx),%rax
  4049c3:	48 c1 e0 02          	shl    $0x2,%rax
  4049c7:	48 8d 3c 40          	lea    (%rax,%rax,2),%rdi
  4049cb:	48 89 ee             	mov    %rbp,%rsi
  4049ce:	68 d6 49 40 00       	pushq  $0x4049d6
  4049d3:	41 ff e4             	jmpq   *%r12

00000000004049d6 <.L917$pb>:
  4049d6:	8b 74 24 04          	mov    0x4(%rsp),%esi
  4049da:	85 f6                	test   %esi,%esi
  4049dc:	48 89 eb             	mov    %rbp,%rbx
  4049df:	4c 8b 64 24 30       	mov    0x30(%rsp),%r12
  4049e4:	48 89 44 24 10       	mov    %rax,0x10(%rsp)
  4049e9:	74 78                	je     404a63 <.L957$pb+0x5>
  4049eb:	b9 90 24 41 00       	mov    $0x412490,%ecx
  4049f0:	c4 63 fb f0 f1 0c    	rorx   $0xc,%rcx,%r14
  4049f6:	67 4f 03 34 f7       	add    (%r15d,%r14d,8),%r14
  4049fb:	c4 c3 fb f0 ce 34    	rorx   $0x34,%r14,%rcx
  404a01:	bf 04 0c 45 00       	mov    $0x450c04,%edi
  404a06:	68 0d 4a 40 00       	pushq  $0x404a0d
  404a0b:	ff e1                	jmpq   *%rcx

0000000000404a0d <.L927$pb>:
  404a0d:	b8 10 22 41 00       	mov    $0x412210,%eax
  404a12:	c4 63 fb f0 f0 0c    	rorx   $0xc,%rax,%r14
  404a18:	67 4f 03 34 f7       	add    (%r15d,%r14d,8),%r14
  404a1d:	c4 c3 fb f0 ee 34    	rorx   $0x34,%r14,%rbp
  404a23:	4c 89 e7             	mov    %r12,%rdi
  404a26:	48 89 de             	mov    %rbx,%rsi
  404a29:	68 30 4a 40 00       	pushq  $0x404a30
  404a2e:	ff e5                	jmpq   *%rbp

0000000000404a30 <.L937$pb>:
  404a30:	48 8b 7c 24 08       	mov    0x8(%rsp),%rdi
  404a35:	48 89 de             	mov    %rbx,%rsi
  404a38:	68 3f 4a 40 00       	pushq  $0x404a3f
  404a3d:	ff e5                	jmpq   *%rbp

0000000000404a3f <.L947$pb>:
  404a3f:	b8 20 26 41 00       	mov    $0x412620,%eax
  404a44:	c4 63 fb f0 f0 0c    	rorx   $0xc,%rax,%r14
  404a4a:	67 4f 03 34 f7       	add    (%r15d,%r14d,8),%r14
  404a4f:	c4 c3 fb f0 ce 34    	rorx   $0x34,%r14,%rcx
  404a55:	31 c0                	xor    %eax,%eax
  404a57:	68 5e 4a 40 00       	pushq  $0x404a5e
  404a5c:	ff e1                	jmpq   *%rcx

0000000000404a5e <.L957$pb>:
  404a5e:	48 8b 44 24 10       	mov    0x10(%rsp),%rax
  404a63:	48 89 5c 24 18       	mov    %rbx,0x18(%rsp)
  404a68:	48 8b 4c 24 48       	mov    0x48(%rsp),%rcx
  404a6d:	48 8b 49 10          	mov    0x10(%rcx),%rcx
  404a71:	ba 00 f0 40 00       	mov    $0x40f000,%edx
  404a76:	c4 63 fb f0 f2 0c    	rorx   $0xc,%rdx,%r14
  404a7c:	67 4f 03 34 f7       	add    (%r15d,%r14d,8),%r14
  404a81:	c4 c3 fb f0 ee 34    	rorx   $0x34,%r14,%rbp
  404a87:	4c 89 e7             	mov    %r12,%rdi
  404a8a:	48 8b 5c 24 08       	mov    0x8(%rsp),%rbx
  404a8f:	48 89 de             	mov    %rbx,%rsi
  404a92:	48 89 c2             	mov    %rax,%rdx
  404a95:	68 9c 4a 40 00       	pushq  $0x404a9c
  404a9a:	ff e5                	jmpq   *%rbp

0000000000404a9c <.L967$pb>:
  404a9c:	b8 b0 44 f5 00       	mov    $0xf544b0,%eax
  404aa1:	c4 63 fb f0 f0 0c    	rorx   $0xc,%rax,%r14
  404aa7:	67 4f 03 34 f7       	add    (%r15d,%r14d,8),%r14
  404aac:	c4 c3 fb f0 ee 34    	rorx   $0x34,%r14,%rbp
  404ab2:	83 7d 00 00          	cmpl   $0x0,0x0(%rbp)
  404ab6:	4c 89 e2             	mov    %r12,%rdx
  404ab9:	48 89 de             	mov    %rbx,%rsi
  404abc:	75 6f                	jne    404b2d <.L977$pb+0x30>
  404abe:	48 c7 45 18 00 00 00 	movq   $0x0,0x18(%rbp)
  404ac5:	00 
  404ac6:	bb 01 00 00 00       	mov    $0x1,%ebx
  404acb:	41 bc 00 4f f5 00    	mov    $0xf54f00,%r12d
  404ad1:	48 8b 4d 10          	mov    0x10(%rbp),%rcx
  404ad5:	b8 b0 f9 40 00       	mov    $0x40f9b0,%eax
  404ada:	c4 63 fb f0 f0 0c    	rorx   $0xc,%rax,%r14
  404ae0:	67 4f 03 34 f7       	add    (%r15d,%r14d,8),%r14
  404ae5:	c4 c3 fb f0 c6 34    	rorx   $0x34,%r14,%rax
  404aeb:	48 89 d7             	mov    %rdx,%rdi
  404aee:	48 8b 54 24 10       	mov    0x10(%rsp),%rdx
  404af3:	49 89 d8             	mov    %rbx,%r8
  404af6:	68 fd 4a 40 00       	pushq  $0x404afd
  404afb:	ff e0                	jmpq   *%rax

0000000000404afd <.L977$pb>:
  404afd:	c4 43 fb f0 f4 0c    	rorx   $0xc,%r12,%r14
  404b03:	67 4f 03 34 f7       	add    (%r15d,%r14d,8),%r14
  404b08:	c4 c3 fb f0 ce 34    	rorx   $0x34,%r14,%rcx
  404b0e:	48 3b 01             	cmp    (%rcx),%rax
  404b11:	0f 87 0d 03 00 00    	ja     404e24 <.L1117$pb+0x68>
  404b17:	48 01 db             	add    %rbx,%rbx
  404b1a:	48 81 fb 20 a1 07 00 	cmp    $0x7a120,%rbx
  404b21:	48 8b 54 24 30       	mov    0x30(%rsp),%rdx
  404b26:	48 8b 74 24 08       	mov    0x8(%rsp),%rsi
  404b2b:	72 a4                	jb     404ad1 <.L967$pb+0x35>
  404b2d:	48 83 7d 18 00       	cmpq   $0x0,0x18(%rbp)
  404b32:	0f 85 8c 00 00 00    	jne    404bc4 <.L1027$pb>
  404b38:	b8 80 63 42 00       	mov    $0x426380,%eax
  404b3d:	c4 63 fb f0 f0 0c    	rorx   $0xc,%rax,%r14
  404b43:	67 4f 03 34 f7       	add    (%r15d,%r14d,8),%r14
  404b48:	c4 c3 fb f0 c6 34    	rorx   $0x34,%r14,%rax
  404b4e:	bf 1b 0c 45 00       	mov    $0x450c1b,%edi
  404b53:	68 5a 4b 40 00       	pushq  $0x404b5a
  404b58:	ff e0                	jmpq   *%rax

0000000000404b5a <.L987$pb>:
  404b5a:	b8 10 22 41 00       	mov    $0x412210,%eax
  404b5f:	c4 63 fb f0 f0 0c    	rorx   $0xc,%rax,%r14
  404b65:	67 4f 03 34 f7       	add    (%r15d,%r14d,8),%r14
  404b6a:	c4 43 fb f0 e6 34    	rorx   $0x34,%r14,%r12
  404b70:	48 8b 7c 24 30       	mov    0x30(%rsp),%rdi
  404b75:	48 8b 5c 24 18       	mov    0x18(%rsp),%rbx
  404b7a:	48 89 de             	mov    %rbx,%rsi
  404b7d:	68 85 4b 40 00       	pushq  $0x404b85
  404b82:	41 ff e4             	jmpq   *%r12

0000000000404b85 <.L997$pb>:
  404b85:	48 8b 7c 24 08       	mov    0x8(%rsp),%rdi
  404b8a:	48 89 de             	mov    %rbx,%rsi
  404b8d:	68 95 4b 40 00       	pushq  $0x404b95
  404b92:	41 ff e4             	jmpq   *%r12

0000000000404b95 <.L1007$pb>:
  404b95:	48 8b 7c 24 10       	mov    0x10(%rsp),%rdi
  404b9a:	48 89 de             	mov    %rbx,%rsi
  404b9d:	68 a5 4b 40 00       	pushq  $0x404ba5
  404ba2:	41 ff e4             	jmpq   *%r12

0000000000404ba5 <.L1017$pb>:
  404ba5:	b8 20 26 41 00       	mov    $0x412620,%eax
  404baa:	c4 63 fb f0 f0 0c    	rorx   $0xc,%rax,%r14
  404bb0:	67 4f 03 34 f7       	add    (%r15d,%r14d,8),%r14
  404bb5:	c4 c3 fb f0 ce 34    	rorx   $0x34,%r14,%rcx
  404bbb:	31 c0                	xor    %eax,%eax
  404bbd:	68 c4 4b 40 00       	pushq  $0x404bc4
  404bc2:	ff e1                	jmpq   *%rcx

0000000000404bc4 <.L1027$pb>:
  404bc4:	31 db                	xor    %ebx,%ebx
  404bc6:	4c 8b 64 24 08       	mov    0x8(%rsp),%r12
  404bcb:	48 8b 4d 10          	mov    0x10(%rbp),%rcx
  404bcf:	4c 8b 45 18          	mov    0x18(%rbp),%r8
  404bd3:	b8 b0 f9 40 00       	mov    $0x40f9b0,%eax
  404bd8:	c4 63 fb f0 f0 0c    	rorx   $0xc,%rax,%r14
  404bde:	67 4f 03 34 f7       	add    (%r15d,%r14d,8),%r14
  404be3:	c4 c3 fb f0 c6 34    	rorx   $0x34,%r14,%rax
  404be9:	48 8b 7c 24 30       	mov    0x30(%rsp),%rdi
  404bee:	4c 89 e6             	mov    %r12,%rsi
  404bf1:	48 8b 54 24 10       	mov    0x10(%rsp),%rdx
  404bf6:	68 fd 4b 40 00       	pushq  $0x404bfd
  404bfb:	ff e0                	jmpq   *%rax

0000000000404bfd <.L1037$pb>:
  404bfd:	48 01 c3             	add    %rax,%rbx
  404c00:	f2 0f 10 44 24 28    	movsd  0x28(%rsp),%xmm0
  404c06:	f2 0f 58 44 24 20    	addsd  0x20(%rsp),%xmm0
  404c0c:	f2 0f 11 44 24 28    	movsd  %xmm0,0x28(%rsp)
  404c12:	b8 40 27 41 00       	mov    $0x412740,%eax
  404c17:	c4 63 fb f0 f0 0c    	rorx   $0xc,%rax,%r14
  404c1d:	67 4f 03 34 f7       	add    (%r15d,%r14d,8),%r14
  404c22:	c4 c3 fb f0 c6 34    	rorx   $0x34,%r14,%rax
  404c28:	48 89 df             	mov    %rbx,%rdi
  404c2b:	68 32 4c 40 00       	pushq  $0x404c32
  404c30:	ff e0                	jmpq   *%rax

0000000000404c32 <.L1047$pb>:
  404c32:	48 8b 7c 24 30       	mov    0x30(%rsp),%rdi
  404c37:	b9 b0 44 f5 00       	mov    $0xf544b0,%ecx
  404c3c:	c4 63 fb f0 f1 0c    	rorx   $0xc,%rcx,%r14
  404c42:	67 4f 03 34 f7       	add    (%r15d,%r14d,8),%r14
  404c47:	c4 c3 fb f0 ee 34    	rorx   $0x34,%r14,%rbp
  404c4d:	48 3b 45 08          	cmp    0x8(%rbp),%rax
  404c51:	0f 82 74 ff ff ff    	jb     404bcb <.L1027$pb+0x7>
  404c57:	b8 80 27 41 00       	mov    $0x412780,%eax
  404c5c:	c4 63 fb f0 f0 0c    	rorx   $0xc,%rax,%r14
  404c62:	67 4f 03 34 f7       	add    (%r15d,%r14d,8),%r14
  404c67:	c4 c3 fb f0 c6 34    	rorx   $0x34,%r14,%rax
  404c6d:	48 89 44 24 48       	mov    %rax,0x48(%rsp)
  404c72:	b8 10 22 41 00       	mov    $0x412210,%eax
  404c77:	c4 63 fb f0 f0 0c    	rorx   $0xc,%rax,%r14
  404c7d:	67 4f 03 34 f7       	add    (%r15d,%r14d,8),%r14
  404c82:	c4 c3 fb f0 c6 34    	rorx   $0x34,%r14,%rax
  404c88:	48 89 44 24 20       	mov    %rax,0x20(%rsp)
  404c8d:	48 8b 74 24 18       	mov    0x18(%rsp),%rsi
  404c92:	68 9b 4c 40 00       	pushq  $0x404c9b
  404c97:	ff 64 24 28          	jmpq   *0x28(%rsp)

0000000000404c9b <.L1057$pb>:
  404c9b:	4c 89 e7             	mov    %r12,%rdi
  404c9e:	48 8b 74 24 18       	mov    0x18(%rsp),%rsi
  404ca3:	4c 8b 64 24 20       	mov    0x20(%rsp),%r12
  404ca8:	68 b0 4c 40 00       	pushq  $0x404cb0
  404cad:	41 ff e4             	jmpq   *%r12

0000000000404cb0 <.L1067$pb>:
  404cb0:	48 8b 7c 24 10       	mov    0x10(%rsp),%rdi
  404cb5:	48 8b 74 24 18       	mov    0x18(%rsp),%rsi
  404cba:	68 c2 4c 40 00       	pushq  $0x404cc2
  404cbf:	41 ff e4             	jmpq   *%r12

0000000000404cc2 <.L1077$pb>:
  404cc2:	f3 0f 7e 45 18       	movq   0x18(%rbp),%xmm0
  404cc7:	49 81 ed 08 00 00 00 	sub    $0x8,%r13
  404cce:	9c                   	pushfq 
  404ccf:	49 be 50 0a 45 00 00 	movabs $0x450a50,%r14
  404cd6:	00 00 00 
  404cd9:	c4 43 fb f0 f6 0c    	rorx   $0xc,%r14,%r14
  404cdf:	67 4f 03 34 f7       	add    (%r15d,%r14d,8),%r14
  404ce4:	c4 43 fb f0 f6 34    	rorx   $0x34,%r14,%r14
  404cea:	49 81 c5 08 00 00 00 	add    $0x8,%r13
  404cf1:	9d                   	popfq  
  404cf2:	66 41 0f 62 06       	punpckldq (%r14),%xmm0
  404cf7:	49 81 ed 08 00 00 00 	sub    $0x8,%r13
  404cfe:	9c                   	pushfq 
  404cff:	49 be 60 0a 45 00 00 	movabs $0x450a60,%r14
  404d06:	00 00 00 
  404d09:	c4 43 fb f0 f6 0c    	rorx   $0xc,%r14,%r14
  404d0f:	67 4f 03 34 f7       	add    (%r15d,%r14d,8),%r14
  404d14:	c4 43 fb f0 f6 34    	rorx   $0x34,%r14,%r14
  404d1a:	49 81 c5 08 00 00 00 	add    $0x8,%r13
  404d21:	9d                   	popfq  
  404d22:	66 41 0f 5c 06       	subpd  (%r14),%xmm0
  404d27:	66 0f 70 c8 4e       	pshufd $0x4e,%xmm0,%xmm1
  404d2c:	66 0f 58 c8          	addpd  %xmm0,%xmm1
  404d30:	f2 0f 59 4c 24 28    	mulsd  0x28(%rsp),%xmm1
  404d36:	66 0f 29 4c 24 30    	movapd %xmm1,0x30(%rsp)
  404d3c:	48 89 df             	mov    %rbx,%rdi
  404d3f:	4c 8b 64 24 48       	mov    0x48(%rsp),%r12
  404d44:	68 4c 4d 40 00       	pushq  $0x404d4c
  404d49:	41 ff e4             	jmpq   *%r12

0000000000404d4c <.L1087$pb>:
  404d4c:	66 0f 28 4c 24 30    	movapd 0x30(%rsp),%xmm1
  404d52:	f2 0f 5e c8          	divsd  %xmm0,%xmm1
  404d56:	f2 0f 11 4d 20       	movsd  %xmm1,0x20(%rbp)
  404d5b:	48 8d 44 24 60       	lea    0x60(%rsp),%rax
  404d60:	49 8d 6d 60          	lea    0x60(%r13),%rbp
  404d64:	48 89 df             	mov    %rbx,%rdi
  404d67:	68 6f 4d 40 00       	pushq  $0x404d6f
  404d6c:	41 ff e4             	jmpq   *%r12

0000000000404d6f <.L1097$pb>:
  404d6f:	f2 0f 5e 44 24 28    	divsd  0x28(%rsp),%xmm0
  404d75:	b8 00 30 42 00       	mov    $0x423000,%eax
  404d7a:	c4 63 fb f0 f0 0c    	rorx   $0xc,%rax,%r14
  404d80:	67 4f 03 34 f7       	add    (%r15d,%r14d,8),%r14
  404d85:	c4 c3 fb f0 ce 34    	rorx   $0x34,%r14,%rcx
  404d8b:	be e0 0b 45 00       	mov    $0x450be0,%esi
  404d90:	b0 01                	mov    $0x1,%al
  404d92:	48 89 ef             	mov    %rbp,%rdi
  404d95:	68 9c 4d 40 00       	pushq  $0x404d9c
  404d9a:	ff e1                	jmpq   *%rcx

0000000000404d9c <.L1107$pb>:
  404d9c:	b8 80 63 42 00       	mov    $0x426380,%eax
  404da1:	c4 63 fb f0 f0 0c    	rorx   $0xc,%rax,%r14
  404da7:	67 4f 03 34 f7       	add    (%r15d,%r14d,8),%r14
  404dac:	c4 c3 fb f0 c6 34    	rorx   $0x34,%r14,%rax
  404db2:	48 89 ef             	mov    %rbp,%rdi
  404db5:	68 bc 4d 40 00       	pushq  $0x404dbc
  404dba:	ff e0                	jmpq   *%rax

0000000000404dbc <.L1117$pb>:
  404dbc:	b8 b0 44 f5 00       	mov    $0xf544b0,%eax
  404dc1:	c4 63 fb f0 f0 0c    	rorx   $0xc,%rax,%r14
  404dc7:	67 4f 03 34 f7       	add    (%r15d,%r14d,8),%r14
  404dcc:	c4 c3 fb f0 c6 34    	rorx   $0x34,%r14,%rax
  404dd2:	83 38 00             	cmpl   $0x0,(%rax)
  404dd5:	75 06                	jne    404ddd <.L1117$pb+0x21>
  404dd7:	c7 00 01 00 00 00    	movl   $0x1,(%rax)
  404ddd:	48 8b 9c 24 a0 00 00 	mov    0xa0(%rsp),%rbx
  404de4:	00 
  404de5:	4c 8b a4 24 a8 00 00 	mov    0xa8(%rsp),%r12
  404dec:	00 
  404ded:	48 8b ac 24 b0 00 00 	mov    0xb0(%rsp),%rbp
  404df4:	00 
  404df5:	4c 8b ac 24 b8 00 00 	mov    0xb8(%rsp),%r13
  404dfc:	00 
  404dfd:	c4 43 fb f0 f5 0c    	rorx   $0xc,%r13,%r14
  404e03:	67 4f 03 34 f7       	add    (%r15d,%r14d,8),%r14
  404e08:	c4 c3 fb f0 e6 34    	rorx   $0x34,%r14,%rsp
  404e0e:	c4 63 fb f0 74 24 f8 	rorx   $0xc,-0x8(%rsp),%r14
  404e15:	0c 
  404e16:	67 4f 03 34 f7       	add    (%r15d,%r14d,8),%r14
  404e1b:	c4 43 fb f0 f6 34    	rorx   $0x34,%r14,%r14
  404e21:	41 ff e6             	jmpq   *%r14
  404e24:	48 89 5d 18          	mov    %rbx,0x18(%rbp)
  404e28:	48 83 7d 18 00       	cmpq   $0x0,0x18(%rbp)
  404e2d:	0f 85 91 fd ff ff    	jne    404bc4 <.L1027$pb>
  404e33:	e9 00 fd ff ff       	jmpq   404b38 <.L977$pb+0x3b>
  404e38:	66 66 66 66 66 66 2e 	data32 data32 data32 data32 data32 nopw %cs:0x0(%rax,%rax,1)
  404e3f:	0f 1f 84 00 00 00 00 
  404e46:	00 
  404e47:	66 66 66 66 66 66 2e 	data32 data32 data32 data32 data32 nopw %cs:0x0(%rax,%rax,1)
  404e4e:	0f 1f 84 00 00 00 00 
  404e55:	00 
  404e56:	66 66 66 66 66 66 2e 	data32 data32 data32 data32 data32 nopw %cs:0x0(%rax,%rax,1)
  404e5d:	0f 1f 84 00 00 00 00 
  404e64:	00 
  404e65:	66 66 66 66 66 66 2e 	data32 data32 data32 data32 data32 nopw %cs:0x0(%rax,%rax,1)
  404e6c:	0f 1f 84 00 00 00 00 
  404e73:	00 
  404e74:	66 66 66 66 66 66 2e 	data32 data32 data32 data32 data32 nopw %cs:0x0(%rax,%rax,1)
  404e7b:	0f 1f 84 00 00 00 00 
  404e82:	00 
  404e83:	66 66 66 66 66 66 2e 	data32 data32 data32 data32 data32 nopw %cs:0x0(%rax,%rax,1)
  404e8a:	0f 1f 84 00 00 00 00 
  404e91:	00 
  404e92:	66 66 66 66 66 66 2e 	data32 data32 data32 data32 data32 nopw %cs:0x0(%rax,%rax,1)
  404e99:	0f 1f 84 00 00 00 00 
  404ea0:	00 
  404ea1:	66 66 66 66 66 66 2e 	data32 data32 data32 data32 data32 nopw %cs:0x0(%rax,%rax,1)
  404ea8:	0f 1f 84 00 00 00 00 
  404eaf:	00 
  404eb0:	66 66 66 66 66 66 2e 	data32 data32 data32 data32 data32 nopw %cs:0x0(%rax,%rax,1)
  404eb7:	0f 1f 84 00 00 00 00 
  404ebe:	00 
  404ebf:	66 66 66 66 66 66 2e 	data32 data32 data32 data32 data32 nopw %cs:0x0(%rax,%rax,1)
  404ec6:	0f 1f 84 00 00 00 00 
  404ecd:	00 
  404ece:	66 66 66 66 66 66 2e 	data32 data32 data32 data32 data32 nopw %cs:0x0(%rax,%rax,1)
  404ed5:	0f 1f 84 00 00 00 00 
  404edc:	00 
  404edd:	66 66 66 66 66 66 2e 	data32 data32 data32 data32 data32 nopw %cs:0x0(%rax,%rax,1)
  404ee4:	0f 1f 84 00 00 00 00 
  404eeb:	00 
  404eec:	66 66 66 66 66 66 2e 	data32 data32 data32 data32 data32 nopw %cs:0x0(%rax,%rax,1)
  404ef3:	0f 1f 84 00 00 00 00 
  404efa:	00 
  404efb:	66 66 66 66 66 66 2e 	data32 data32 data32 data32 data32 nopw %cs:0x0(%rax,%rax,1)
  404f02:	0f 1f 84 00 00 00 00 
  404f09:	00 
  404f0a:	66 66 66 66 66 66 2e 	data32 data32 data32 data32 data32 nopw %cs:0x0(%rax,%rax,1)
  404f11:	0f 1f 84 00 00 00 00 
  404f18:	00 
  404f19:	66 66 66 66 66 66 2e 	data32 data32 data32 data32 data32 nopw %cs:0x0(%rax,%rax,1)
  404f20:	0f 1f 84 00 00 00 00 
  404f27:	00 
  404f28:	66 66 66 66 66 66 2e 	data32 data32 data32 data32 data32 nopw %cs:0x0(%rax,%rax,1)
  404f2f:	0f 1f 84 00 00 00 00 
  404f36:	00 
  404f37:	66 66 66 66 66 66 2e 	data32 data32 data32 data32 data32 nopw %cs:0x0(%rax,%rax,1)
  404f3e:	0f 1f 84 00 00 00 00 
  404f45:	00 
  404f46:	66 66 66 66 66 66 2e 	data32 data32 data32 data32 data32 nopw %cs:0x0(%rax,%rax,1)
  404f4d:	0f 1f 84 00 00 00 00 
  404f54:	00 
  404f55:	66 66 66 66 66 66 2e 	data32 data32 data32 data32 data32 nopw %cs:0x0(%rax,%rax,1)
  404f5c:	0f 1f 84 00 00 00 00 
  404f63:	00 
  404f64:	66 66 66 66 66 66 2e 	data32 data32 data32 data32 data32 nopw %cs:0x0(%rax,%rax,1)
  404f6b:	0f 1f 84 00 00 00 00 
  404f72:	00 
  404f73:	66 66 66 66 66 66 2e 	data32 data32 data32 data32 data32 nopw %cs:0x0(%rax,%rax,1)
  404f7a:	0f 1f 84 00 00 00 00 
  404f81:	00 
  404f82:	66 66 66 66 66 66 2e 	data32 data32 data32 data32 data32 nopw %cs:0x0(%rax,%rax,1)
  404f89:	0f 1f 84 00 00 00 00 
  404f90:	00 
  404f91:	66 66 66 66 66 66 2e 	data32 data32 data32 data32 data32 nopw %cs:0x0(%rax,%rax,1)
  404f98:	0f 1f 84 00 00 00 00 
  404f9f:	00 
  404fa0:	66 66 66 66 66 66 2e 	data32 data32 data32 data32 data32 nopw %cs:0x0(%rax,%rax,1)
  404fa7:	0f 1f 84 00 00 00 00 
  404fae:	00 
  404faf:	66 66 66 66 66 66 2e 	data32 data32 data32 data32 data32 nopw %cs:0x0(%rax,%rax,1)
  404fb6:	0f 1f 84 00 00 00 00 
  404fbd:	00 
  404fbe:	66 66 66 66 66 66 2e 	data32 data32 data32 data32 data32 nopw %cs:0x0(%rax,%rax,1)
  404fc5:	0f 1f 84 00 00 00 00 
  404fcc:	00 
  404fcd:	66 66 66 66 66 66 2e 	data32 data32 data32 data32 data32 nopw %cs:0x0(%rax,%rax,1)
  404fd4:	0f 1f 84 00 00 00 00 
  404fdb:	00 
  404fdc:	66 66 66 66 66 66 2e 	data32 data32 data32 data32 data32 nopw %cs:0x0(%rax,%rax,1)
  404fe3:	0f 1f 84 00 00 00 00 
  404fea:	00 
  404feb:	66 66 66 66 66 66 2e 	data32 data32 data32 data32 data32 nopw %cs:0x0(%rax,%rax,1)
  404ff2:	0f 1f 84 00 00 00 00 
  404ff9:	00 
  404ffa:	66 0f 1f 44 00 00    	nopw   0x0(%rax,%rax,1)

0000000000405000 <DoFourier>:
  405000:	c4 43 fb f0 f5 3c    	rorx   $0x3c,%r13,%r14
  405006:	66 41 81 fe 80 0c    	cmp    $0xc80,%r14w
  40500c:	73 22                	jae    405030 <DoFourier+0x30>
  40500e:	49 c1 ee 10          	shr    $0x10,%r14
  405012:	67 4f 03 74 f7 f8    	add    -0x8(%r15d,%r14d,8),%r14
  405018:	49 c1 e6 0c          	shl    $0xc,%r14
  40501c:	49 8d 26             	lea    (%r14),%rsp
  40501f:	54                   	push   %rsp
  405020:	41 55                	push   %r13
  405022:	41 55                	push   %r13
  405024:	4d 23 2f             	and    (%r15),%r13
  405027:	49 81 ed c0 00 00 00 	sub    $0xc0,%r13
  40502e:	eb 0b                	jmp    40503b <DoFourier+0x3b>
  405030:	41 55                	push   %r13
  405032:	41 55                	push   %r13
  405034:	49 81 ed c0 00 00 00 	sub    $0xc0,%r13
  40503b:	55                   	push   %rbp
  40503c:	41 54                	push   %r12
  40503e:	53                   	push   %rbx
  40503f:	48 81 ec 90 00 00 00 	sub    $0x90,%rsp
  405046:	48 b8 00 00 00 00 00 	movabs $0x3ff0000000000000,%rax
  40504d:	00 f0 3f 
  405050:	48 89 44 24 48       	mov    %rax,0x48(%rsp)
  405055:	f2 0f 10 4c 24 48    	movsd  0x48(%rsp),%xmm1
  40505b:	48 b8 00 00 00 00 00 	movabs $0x4000000000000000,%rax
  405062:	00 00 40 
  405065:	48 89 44 24 40       	mov    %rax,0x40(%rsp)
  40506a:	f2 0f 10 54 24 40    	movsd  0x40(%rsp),%xmm2
  405070:	48 c7 44 24 38 00 00 	movq   $0x0,0x38(%rsp)
  405077:	00 00 
  405079:	f2 0f 10 44 24 38    	movsd  0x38(%rsp),%xmm0
  40507f:	b8 00 20 41 00       	mov    $0x412000,%eax
  405084:	c4 63 fb f0 f0 0c    	rorx   $0xc,%rax,%r14
  40508a:	67 4f 03 34 f7       	add    (%r15d,%r14d,8),%r14
  40508f:	c4 c3 fb f0 ee 34    	rorx   $0x34,%r14,%rbp
  405095:	b8 a8 4f f5 00       	mov    $0xf54fa8,%eax
  40509a:	c4 63 fb f0 f0 0c    	rorx   $0xc,%rax,%r14
  4050a0:	67 4f 03 34 f7       	add    (%r15d,%r14d,8),%r14
  4050a5:	c4 c3 fb f0 de 34    	rorx   $0x34,%r14,%rbx
  4050ab:	48 8d 44 24 04       	lea    0x4(%rsp),%rax
  4050b0:	49 8d 45 04          	lea    0x4(%r13),%rax
  4050b4:	48 89 44 24 08       	mov    %rax,0x8(%rsp)
  4050b9:	83 3b 00             	cmpl   $0x0,(%rbx)
  4050bc:	f2 0f 11 44 24 20    	movsd  %xmm0,0x20(%rsp)
  4050c2:	f2 0f 11 4c 24 10    	movsd  %xmm1,0x10(%rsp)
  4050c8:	f2 0f 11 54 24 30    	movsd  %xmm2,0x30(%rsp)
  4050ce:	0f 84 f3 00 00 00    	je     4051c7 <.L1188$pb+0x5>
  4050d4:	48 8b 7b 10          	mov    0x10(%rbx),%rdi
  4050d8:	48 c1 e7 03          	shl    $0x3,%rdi
  4050dc:	48 8b 74 24 08       	mov    0x8(%rsp),%rsi
  4050e1:	68 e8 50 40 00       	pushq  $0x4050e8
  4050e6:	ff e5                	jmpq   *%rbp

00000000004050e8 <.L1128$pb>:
  4050e8:	49 89 c4             	mov    %rax,%r12
  4050eb:	8b 74 24 04          	mov    0x4(%rsp),%esi
  4050ef:	85 f6                	test   %esi,%esi
  4050f1:	74 41                	je     405134 <.L1148$pb>
  4050f3:	b8 90 24 41 00       	mov    $0x412490,%eax
  4050f8:	c4 63 fb f0 f0 0c    	rorx   $0xc,%rax,%r14
  4050fe:	67 4f 03 34 f7       	add    (%r15d,%r14d,8),%r14
  405103:	c4 c3 fb f0 c6 34    	rorx   $0x34,%r14,%rax
  405109:	bf 46 0c 45 00       	mov    $0x450c46,%edi
  40510e:	68 15 51 40 00       	pushq  $0x405115
  405113:	ff e0                	jmpq   *%rax

0000000000405115 <.L1138$pb>:
  405115:	b8 20 26 41 00       	mov    $0x412620,%eax
  40511a:	c4 63 fb f0 f0 0c    	rorx   $0xc,%rax,%r14
  405120:	67 4f 03 34 f7       	add    (%r15d,%r14d,8),%r14
  405125:	c4 c3 fb f0 ce 34    	rorx   $0x34,%r14,%rcx
  40512b:	31 c0                	xor    %eax,%eax
  40512d:	68 34 51 40 00       	pushq  $0x405134
  405132:	ff e1                	jmpq   *%rcx

0000000000405134 <.L1148$pb>:
  405134:	48 8b 7b 10          	mov    0x10(%rbx),%rdi
  405138:	48 c1 e7 03          	shl    $0x3,%rdi
  40513c:	48 8b 74 24 08       	mov    0x8(%rsp),%rsi
  405141:	68 48 51 40 00       	pushq  $0x405148
  405146:	ff e5                	jmpq   *%rbp

0000000000405148 <.L1158$pb>:
  405148:	48 89 44 24 18       	mov    %rax,0x18(%rsp)
  40514d:	8b 74 24 04          	mov    0x4(%rsp),%esi
  405151:	85 f6                	test   %esi,%esi
  405153:	0f 84 2b 02 00 00    	je     405384 <.L1288$pb+0x63>
  405159:	b8 90 24 41 00       	mov    $0x412490,%eax
  40515e:	c4 63 fb f0 f0 0c    	rorx   $0xc,%rax,%r14
  405164:	67 4f 03 34 f7       	add    (%r15d,%r14d,8),%r14
  405169:	c4 c3 fb f0 c6 34    	rorx   $0x34,%r14,%rax
  40516f:	bf 46 0c 45 00       	mov    $0x450c46,%edi
  405174:	68 7b 51 40 00       	pushq  $0x40517b
  405179:	ff e0                	jmpq   *%rax

000000000040517b <.L1168$pb>:
  40517b:	b8 10 22 41 00       	mov    $0x412210,%eax
  405180:	c4 63 fb f0 f0 0c    	rorx   $0xc,%rax,%r14
  405186:	67 4f 03 34 f7       	add    (%r15d,%r14d,8),%r14
  40518b:	c4 c3 fb f0 c6 34    	rorx   $0x34,%r14,%rax
  405191:	4c 89 e5             	mov    %r12,%rbp
  405194:	4c 89 e7             	mov    %r12,%rdi
  405197:	48 8b 74 24 08       	mov    0x8(%rsp),%rsi
  40519c:	68 a3 51 40 00       	pushq  $0x4051a3
  4051a1:	ff e0                	jmpq   *%rax

00000000004051a3 <.L1178$pb>:
  4051a3:	b8 20 26 41 00       	mov    $0x412620,%eax
  4051a8:	c4 63 fb f0 f0 0c    	rorx   $0xc,%rax,%r14
  4051ae:	67 4f 03 34 f7       	add    (%r15d,%r14d,8),%r14
  4051b3:	c4 c3 fb f0 ce 34    	rorx   $0x34,%r14,%rcx
  4051b9:	31 c0                	xor    %eax,%eax
  4051bb:	68 c2 51 40 00       	pushq  $0x4051c2
  4051c0:	ff e1                	jmpq   *%rcx

00000000004051c2 <.L1188$pb>:
  4051c2:	e9 c0 01 00 00       	jmpq   405387 <.L1288$pb+0x66>
  4051c7:	48 c7 43 10 64 00 00 	movq   $0x64,0x10(%rbx)
  4051ce:	00 
  4051cf:	eb 2d                	jmp    4051fe <.L1208$pb+0xa>
  4051d1:	48 89 ef             	mov    %rbp,%rdi
  4051d4:	48 8b 6c 24 08       	mov    0x8(%rsp),%rbp
  4051d9:	48 89 ee             	mov    %rbp,%rsi
  4051dc:	68 e4 51 40 00       	pushq  $0x4051e4
  4051e1:	41 ff e4             	jmpq   *%r12

00000000004051e4 <.L1198$pb>:
  4051e4:	48 8b 7c 24 18       	mov    0x18(%rsp),%rdi
  4051e9:	48 89 ee             	mov    %rbp,%rsi
  4051ec:	68 f4 51 40 00       	pushq  $0x4051f4
  4051f1:	41 ff e4             	jmpq   *%r12

00000000004051f4 <.L1208$pb>:
  4051f4:	48 83 43 10 32       	addq   $0x32,0x10(%rbx)
  4051f9:	48 8b 6c 24 28       	mov    0x28(%rsp),%rbp
  4051fe:	48 8b 7b 10          	mov    0x10(%rbx),%rdi
  405202:	48 c1 e7 03          	shl    $0x3,%rdi
  405206:	48 8b 74 24 08       	mov    0x8(%rsp),%rsi
  40520b:	49 89 ec             	mov    %rbp,%r12
  40520e:	68 15 52 40 00       	pushq  $0x405215
  405213:	ff e5                	jmpq   *%rbp

0000000000405215 <.L1218$pb>:
  405215:	48 89 c5             	mov    %rax,%rbp
  405218:	8b 74 24 04          	mov    0x4(%rsp),%esi
  40521c:	85 f6                	test   %esi,%esi
  40521e:	74 41                	je     405261 <.L1238$pb>
  405220:	b8 90 24 41 00       	mov    $0x412490,%eax
  405225:	c4 63 fb f0 f0 0c    	rorx   $0xc,%rax,%r14
  40522b:	67 4f 03 34 f7       	add    (%r15d,%r14d,8),%r14
  405230:	c4 c3 fb f0 c6 34    	rorx   $0x34,%r14,%rax
  405236:	bf 46 0c 45 00       	mov    $0x450c46,%edi
  40523b:	68 42 52 40 00       	pushq  $0x405242
  405240:	ff e0                	jmpq   *%rax

0000000000405242 <.L1228$pb>:
  405242:	b8 20 26 41 00       	mov    $0x412620,%eax
  405247:	c4 63 fb f0 f0 0c    	rorx   $0xc,%rax,%r14
  40524d:	67 4f 03 34 f7       	add    (%r15d,%r14d,8),%r14
  405252:	c4 c3 fb f0 ce 34    	rorx   $0x34,%r14,%rcx
  405258:	31 c0                	xor    %eax,%eax
  40525a:	68 61 52 40 00       	pushq  $0x405261
  40525f:	ff e1                	jmpq   *%rcx

0000000000405261 <.L1238$pb>:
  405261:	48 8b 7b 10          	mov    0x10(%rbx),%rdi
  405265:	48 c1 e7 03          	shl    $0x3,%rdi
  405269:	48 8b 74 24 08       	mov    0x8(%rsp),%rsi
  40526e:	68 76 52 40 00       	pushq  $0x405276
  405273:	41 ff e4             	jmpq   *%r12

0000000000405276 <.L1248$pb>:
  405276:	8b 74 24 04          	mov    0x4(%rsp),%esi
  40527a:	85 f6                	test   %esi,%esi
  40527c:	41 bc 10 22 41 00    	mov    $0x412210,%r12d
  405282:	74 71                	je     4052f5 <.L1278$pb+0x8>
  405284:	b9 90 24 41 00       	mov    $0x412490,%ecx
  405289:	c4 63 fb f0 f1 0c    	rorx   $0xc,%rcx,%r14
  40528f:	67 4f 03 34 f7       	add    (%r15d,%r14d,8),%r14
  405294:	c4 c3 fb f0 ce 34    	rorx   $0x34,%r14,%rcx
  40529a:	bf 46 0c 45 00       	mov    $0x450c46,%edi
  40529f:	48 89 5c 24 28       	mov    %rbx,0x28(%rsp)
  4052a4:	48 89 c3             	mov    %rax,%rbx
  4052a7:	68 ae 52 40 00       	pushq  $0x4052ae
  4052ac:	ff e1                	jmpq   *%rcx

00000000004052ae <.L1258$pb>:
  4052ae:	c4 43 fb f0 f4 0c    	rorx   $0xc,%r12,%r14
  4052b4:	67 4f 03 34 f7       	add    (%r15d,%r14d,8),%r14
  4052b9:	c4 c3 fb f0 c6 34    	rorx   $0x34,%r14,%rax
  4052bf:	48 89 ef             	mov    %rbp,%rdi
  4052c2:	48 8b 74 24 08       	mov    0x8(%rsp),%rsi
  4052c7:	68 ce 52 40 00       	pushq  $0x4052ce
  4052cc:	ff e0                	jmpq   *%rax

00000000004052ce <.L1268$pb>:
  4052ce:	b8 20 26 41 00       	mov    $0x412620,%eax
  4052d3:	c4 63 fb f0 f0 0c    	rorx   $0xc,%rax,%r14
  4052d9:	67 4f 03 34 f7       	add    (%r15d,%r14d,8),%r14
  4052de:	c4 c3 fb f0 ce 34    	rorx   $0x34,%r14,%rcx
  4052e4:	31 c0                	xor    %eax,%eax
  4052e6:	68 ed 52 40 00       	pushq  $0x4052ed
  4052eb:	ff e1                	jmpq   *%rcx

00000000004052ed <.L1278$pb>:
  4052ed:	48 89 d8             	mov    %rbx,%rax
  4052f0:	48 8b 5c 24 28       	mov    0x28(%rsp),%rbx
  4052f5:	48 89 44 24 18       	mov    %rax,0x18(%rsp)
  4052fa:	48 8b 53 10          	mov    0x10(%rbx),%rdx
  4052fe:	b9 d0 55 40 00       	mov    $0x4055d0,%ecx
  405303:	c4 63 fb f0 f1 0c    	rorx   $0xc,%rcx,%r14
  405309:	67 4f 03 34 f7       	add    (%r15d,%r14d,8),%r14
  40530e:	c4 c3 fb f0 ce 34    	rorx   $0x34,%r14,%rcx
  405314:	48 89 ef             	mov    %rbp,%rdi
  405317:	48 89 c6             	mov    %rax,%rsi
  40531a:	68 21 53 40 00       	pushq  $0x405321
  40531f:	ff e1                	jmpq   *%rcx

0000000000405321 <.L1288$pb>:
  405321:	b9 00 4f f5 00       	mov    $0xf54f00,%ecx
  405326:	c4 63 fb f0 f1 0c    	rorx   $0xc,%rcx,%r14
  40532c:	67 4f 03 34 f7       	add    (%r15d,%r14d,8),%r14
  405331:	c4 c3 fb f0 ce 34    	rorx   $0x34,%r14,%rcx
  405337:	ba 00 20 41 00       	mov    $0x412000,%edx
  40533c:	c4 63 fb f0 f2 0c    	rorx   $0xc,%rdx,%r14
  405342:	67 4f 03 34 f7       	add    (%r15d,%r14d,8),%r14
  405347:	c4 c3 fb f0 d6 34    	rorx   $0x34,%r14,%rdx
  40534d:	48 89 54 24 28       	mov    %rdx,0x28(%rsp)
  405352:	c4 43 fb f0 f4 0c    	rorx   $0xc,%r12,%r14
  405358:	67 4f 03 34 f7       	add    (%r15d,%r14d,8),%r14
  40535d:	c4 43 fb f0 e6 34    	rorx   $0x34,%r14,%r12
  405363:	ba a8 4f f5 00       	mov    $0xf54fa8,%edx
  405368:	c4 63 fb f0 f2 0c    	rorx   $0xc,%rdx,%r14
  40536e:	67 4f 03 34 f7       	add    (%r15d,%r14d,8),%r14
  405373:	c4 c3 fb f0 de 34    	rorx   $0x34,%r14,%rbx
  405379:	48 3b 01             	cmp    (%rcx),%rax
  40537c:	0f 86 4f fe ff ff    	jbe    4051d1 <.L1188$pb+0xf>
  405382:	eb 03                	jmp    405387 <.L1288$pb+0x66>
  405384:	4c 89 e5             	mov    %r12,%rbp
  405387:	45 31 e4             	xor    %r12d,%r12d
  40538a:	48 8b 53 10          	mov    0x10(%rbx),%rdx
  40538e:	b8 d0 55 40 00       	mov    $0x4055d0,%eax
  405393:	c4 63 fb f0 f0 0c    	rorx   $0xc,%rax,%r14
  405399:	67 4f 03 34 f7       	add    (%r15d,%r14d,8),%r14
  40539e:	c4 c3 fb f0 c6 34    	rorx   $0x34,%r14,%rax
  4053a4:	48 89 ef             	mov    %rbp,%rdi
  4053a7:	48 8b 74 24 18       	mov    0x18(%rsp),%rsi
  4053ac:	68 b3 53 40 00       	pushq  $0x4053b3
  4053b1:	ff e0                	jmpq   *%rax

00000000004053b3 <.L1298$pb>:
  4053b3:	49 01 c4             	add    %rax,%r12
  4053b6:	b8 a8 4f f5 00       	mov    $0xf54fa8,%eax
  4053bb:	c4 63 fb f0 f0 0c    	rorx   $0xc,%rax,%r14
  4053c1:	67 4f 03 34 f7       	add    (%r15d,%r14d,8),%r14
  4053c6:	c4 c3 fb f0 de 34    	rorx   $0x34,%r14,%rbx
  4053cc:	f3 0f 7e 43 10       	movq   0x10(%rbx),%xmm0
  4053d1:	49 81 ed 08 00 00 00 	sub    $0x8,%r13
  4053d8:	9c                   	pushfq 
  4053d9:	49 be 50 0a 45 00 00 	movabs $0x450a50,%r14
  4053e0:	00 00 00 
  4053e3:	c4 43 fb f0 f6 0c    	rorx   $0xc,%r14,%r14
  4053e9:	67 4f 03 34 f7       	add    (%r15d,%r14d,8),%r14
  4053ee:	c4 43 fb f0 f6 34    	rorx   $0x34,%r14,%r14
  4053f4:	49 81 c5 08 00 00 00 	add    $0x8,%r13
  4053fb:	9d                   	popfq  
  4053fc:	66 41 0f 62 06       	punpckldq (%r14),%xmm0
  405401:	49 81 ed 08 00 00 00 	sub    $0x8,%r13
  405408:	9c                   	pushfq 
  405409:	49 be 60 0a 45 00 00 	movabs $0x450a60,%r14
  405410:	00 00 00 
  405413:	c4 43 fb f0 f6 0c    	rorx   $0xc,%r14,%r14
  405419:	67 4f 03 34 f7       	add    (%r15d,%r14d,8),%r14
  40541e:	c4 43 fb f0 f6 34    	rorx   $0x34,%r14,%r14
  405424:	49 81 c5 08 00 00 00 	add    $0x8,%r13
  40542b:	9d                   	popfq  
  40542c:	66 41 0f 5c 06       	subpd  (%r14),%xmm0
  405431:	66 0f 70 c8 4e       	pshufd $0x4e,%xmm0,%xmm1
  405436:	66 0f 58 c8          	addpd  %xmm0,%xmm1
  40543a:	f2 0f 59 4c 24 30    	mulsd  0x30(%rsp),%xmm1
  405440:	f2 0f 5c 4c 24 10    	subsd  0x10(%rsp),%xmm1
  405446:	f2 0f 10 44 24 20    	movsd  0x20(%rsp),%xmm0
  40544c:	f2 0f 58 c1          	addsd  %xmm1,%xmm0
  405450:	f2 0f 11 44 24 20    	movsd  %xmm0,0x20(%rsp)
  405456:	b8 40 27 41 00       	mov    $0x412740,%eax
  40545b:	c4 63 fb f0 f0 0c    	rorx   $0xc,%rax,%r14
  405461:	67 4f 03 34 f7       	add    (%r15d,%r14d,8),%r14
  405466:	c4 c3 fb f0 c6 34    	rorx   $0x34,%r14,%rax
  40546c:	4c 89 e7             	mov    %r12,%rdi
  40546f:	68 76 54 40 00       	pushq  $0x405476
  405474:	ff e0                	jmpq   *%rax

0000000000405476 <.L1308$pb>:
  405476:	48 3b 43 08          	cmp    0x8(%rbx),%rax
  40547a:	0f 82 0a ff ff ff    	jb     40538a <.L1288$pb+0x69>
  405480:	b8 80 27 41 00       	mov    $0x412780,%eax
  405485:	c4 63 fb f0 f0 0c    	rorx   $0xc,%rax,%r14
  40548b:	67 4f 03 34 f7       	add    (%r15d,%r14d,8),%r14
  405490:	c4 c3 fb f0 c6 34    	rorx   $0x34,%r14,%rax
  405496:	48 89 44 24 30       	mov    %rax,0x30(%rsp)
  40549b:	b8 10 22 41 00       	mov    $0x412210,%eax
  4054a0:	c4 63 fb f0 f0 0c    	rorx   $0xc,%rax,%r14
  4054a6:	67 4f 03 34 f7       	add    (%r15d,%r14d,8),%r14
  4054ab:	c4 c3 fb f0 c6 34    	rorx   $0x34,%r14,%rax
  4054b1:	48 89 44 24 10       	mov    %rax,0x10(%rsp)
  4054b6:	48 89 ef             	mov    %rbp,%rdi
  4054b9:	48 8b 6c 24 08       	mov    0x8(%rsp),%rbp
  4054be:	48 89 ee             	mov    %rbp,%rsi
  4054c1:	68 ca 54 40 00       	pushq  $0x4054ca
  4054c6:	ff 64 24 18          	jmpq   *0x18(%rsp)

00000000004054ca <.L1318$pb>:
  4054ca:	48 8b 7c 24 18       	mov    0x18(%rsp),%rdi
  4054cf:	48 89 ee             	mov    %rbp,%rsi
  4054d2:	68 db 54 40 00       	pushq  $0x4054db
  4054d7:	ff 64 24 18          	jmpq   *0x18(%rsp)

00000000004054db <.L1328$pb>:
  4054db:	4c 89 e7             	mov    %r12,%rdi
  4054de:	48 8b 6c 24 30       	mov    0x30(%rsp),%rbp
  4054e3:	68 ea 54 40 00       	pushq  $0x4054ea
  4054e8:	ff e5                	jmpq   *%rbp

00000000004054ea <.L1338$pb>:
  4054ea:	f2 0f 10 4c 24 20    	movsd  0x20(%rsp),%xmm1
  4054f0:	f2 0f 5e c8          	divsd  %xmm0,%xmm1
  4054f4:	f2 0f 11 4b 18       	movsd  %xmm1,0x18(%rbx)
  4054f9:	48 8d 44 24 50       	lea    0x50(%rsp),%rax
  4054fe:	49 8d 5d 50          	lea    0x50(%r13),%rbx
  405502:	4c 89 e7             	mov    %r12,%rdi
  405505:	68 0c 55 40 00       	pushq  $0x40550c
  40550a:	ff e5                	jmpq   *%rbp

000000000040550c <.L1348$pb>:
  40550c:	f2 0f 5e 44 24 20    	divsd  0x20(%rsp),%xmm0
  405512:	b8 00 30 42 00       	mov    $0x423000,%eax
  405517:	c4 63 fb f0 f0 0c    	rorx   $0xc,%rax,%r14
  40551d:	67 4f 03 34 f7       	add    (%r15d,%r14d,8),%r14
  405522:	c4 c3 fb f0 ce 34    	rorx   $0x34,%r14,%rcx
  405528:	be e0 0b 45 00       	mov    $0x450be0,%esi
  40552d:	b0 01                	mov    $0x1,%al
  40552f:	48 89 df             	mov    %rbx,%rdi
  405532:	68 39 55 40 00       	pushq  $0x405539
  405537:	ff e1                	jmpq   *%rcx

0000000000405539 <.L1358$pb>:
  405539:	b8 80 63 42 00       	mov    $0x426380,%eax
  40553e:	c4 63 fb f0 f0 0c    	rorx   $0xc,%rax,%r14
  405544:	67 4f 03 34 f7       	add    (%r15d,%r14d,8),%r14
  405549:	c4 c3 fb f0 c6 34    	rorx   $0x34,%r14,%rax
  40554f:	48 89 df             	mov    %rbx,%rdi
  405552:	68 59 55 40 00       	pushq  $0x405559
  405557:	ff e0                	jmpq   *%rax

0000000000405559 <.L1368$pb>:
  405559:	b8 a8 4f f5 00       	mov    $0xf54fa8,%eax
  40555e:	c4 63 fb f0 f0 0c    	rorx   $0xc,%rax,%r14
  405564:	67 4f 03 34 f7       	add    (%r15d,%r14d,8),%r14
  405569:	c4 c3 fb f0 c6 34    	rorx   $0x34,%r14,%rax
  40556f:	83 38 00             	cmpl   $0x0,(%rax)
  405572:	75 06                	jne    40557a <.L1368$pb+0x21>
  405574:	c7 00 01 00 00 00    	movl   $0x1,(%rax)
  40557a:	48 8b 9c 24 90 00 00 	mov    0x90(%rsp),%rbx
  405581:	00 
  405582:	4c 8b a4 24 98 00 00 	mov    0x98(%rsp),%r12
  405589:	00 
  40558a:	48 8b ac 24 a0 00 00 	mov    0xa0(%rsp),%rbp
  405591:	00 
  405592:	4c 8b ac 24 a8 00 00 	mov    0xa8(%rsp),%r13
  405599:	00 
  40559a:	c4 43 fb f0 f5 0c    	rorx   $0xc,%r13,%r14
  4055a0:	67 4f 03 34 f7       	add    (%r15d,%r14d,8),%r14
  4055a5:	c4 c3 fb f0 e6 34    	rorx   $0x34,%r14,%rsp
  4055ab:	c4 63 fb f0 74 24 f8 	rorx   $0xc,-0x8(%rsp),%r14
  4055b2:	0c 
  4055b3:	67 4f 03 34 f7       	add    (%r15d,%r14d,8),%r14
  4055b8:	c4 43 fb f0 f6 34    	rorx   $0x34,%r14,%r14
  4055be:	41 ff e6             	jmpq   *%r14
  4055c1:	66 66 66 66 66 66 2e 	data32 data32 data32 data32 data32 nopw %cs:0x0(%rax,%rax,1)
  4055c8:	0f 1f 84 00 00 00 00 
  4055cf:	00 

00000000004055d0 <DoFPUTransIteration>:
  4055d0:	c4 43 fb f0 f5 3c    	rorx   $0x3c,%r13,%r14
  4055d6:	66 41 81 fe 80 09    	cmp    $0x980,%r14w
  4055dc:	73 22                	jae    405600 <DoFPUTransIteration+0x30>
  4055de:	49 c1 ee 10          	shr    $0x10,%r14
  4055e2:	67 4f 03 74 f7 f8    	add    -0x8(%r15d,%r14d,8),%r14
  4055e8:	49 c1 e6 0c          	shl    $0xc,%r14
  4055ec:	49 8d 26             	lea    (%r14),%rsp
  4055ef:	54                   	push   %rsp
  4055f0:	41 55                	push   %r13
  4055f2:	41 55                	push   %r13
  4055f4:	4d 23 2f             	and    (%r15),%r13
  4055f7:	49 81 ed 90 00 00 00 	sub    $0x90,%r13
  4055fe:	eb 0b                	jmp    40560b <DoFPUTransIteration+0x3b>
  405600:	41 55                	push   %r13
  405602:	41 55                	push   %r13
  405604:	49 81 ed 90 00 00 00 	sub    $0x90,%r13
  40560b:	55                   	push   %rbp
  40560c:	41 54                	push   %r12
  40560e:	53                   	push   %rbx
  40560f:	48 83 ec 60          	sub    $0x60,%rsp
  405613:	48 89 d3             	mov    %rdx,%rbx
  405616:	48 89 f5             	mov    %rsi,%rbp
  405619:	49 89 fc             	mov    %rdi,%r12
  40561c:	48 b8 18 2d 44 54 fb 	movabs $0x400921fb54442d18,%rax
  405623:	21 09 40 
  405626:	48 89 44 24 48       	mov    %rax,0x48(%rsp)
  40562b:	f2 0f 10 44 24 48    	movsd  0x48(%rsp),%xmm0
  405631:	f2 0f 11 44 24 30    	movsd  %xmm0,0x30(%rsp)
  405637:	48 b8 00 00 00 00 00 	movabs $0x4000000000000000,%rax
  40563e:	00 00 40 
  405641:	48 89 44 24 40       	mov    %rax,0x40(%rsp)
  405646:	f2 0f 10 44 24 40    	movsd  0x40(%rsp),%xmm0
  40564c:	f2 0f 11 04 24       	movsd  %xmm0,(%rsp)
  405651:	48 c7 44 24 38 00 00 	movq   $0x0,0x38(%rsp)
  405658:	00 00 
  40565a:	f2 0f 10 44 24 38    	movsd  0x38(%rsp),%xmm0
  405660:	f2 0f 11 44 24 08    	movsd  %xmm0,0x8(%rsp)
  405666:	b8 80 26 41 00       	mov    $0x412680,%eax
  40566b:	c4 63 fb f0 f0 0c    	rorx   $0xc,%rax,%r14
  405671:	67 4f 03 34 f7       	add    (%r15d,%r14d,8),%r14
  405676:	c4 c3 fb f0 ce 34    	rorx   $0x34,%r14,%rcx
  40567c:	31 c0                	xor    %eax,%eax
  40567e:	68 85 56 40 00       	pushq  $0x405685
  405683:	ff e1                	jmpq   *%rcx

0000000000405685 <.L1379$pb>:
  405685:	48 89 44 24 10       	mov    %rax,0x10(%rsp)
  40568a:	b8 a0 a8 40 00       	mov    $0x40a8a0,%eax
  40568f:	c4 63 fb f0 f0 0c    	rorx   $0xc,%rax,%r14
  405695:	67 4f 03 34 f7       	add    (%r15d,%r14d,8),%r14
  40569a:	c4 c3 fb f0 c6 34    	rorx   $0x34,%r14,%rax
  4056a0:	bf c8 00 00 00       	mov    $0xc8,%edi
  4056a5:	31 f6                	xor    %esi,%esi
  4056a7:	f2 0f 10 44 24 08    	movsd  0x8(%rsp),%xmm0
  4056ad:	f2 0f 10 0c 24       	movsd  (%rsp),%xmm1
  4056b2:	66 0f 28 d0          	movapd %xmm0,%xmm2
  4056b6:	48 89 44 24 20       	mov    %rax,0x20(%rsp)
  4056bb:	68 c2 56 40 00       	pushq  $0x4056c2
  4056c0:	ff e0                	jmpq   *%rax

00000000004056c2 <.L1389$pb>:
  4056c2:	f2 0f 10 0c 24       	movsd  (%rsp),%xmm1
  4056c7:	f2 0f 5e c1          	divsd  %xmm1,%xmm0
  4056cb:	c4 43 fb f0 f4 0c    	rorx   $0xc,%r12,%r14
  4056d1:	67 4f 03 34 f7       	add    (%r15d,%r14d,8),%r14
  4056d6:	c4 c3 fb f0 ce 34    	rorx   $0x34,%r14,%rcx
  4056dc:	48 89 4c 24 28       	mov    %rcx,0x28(%rsp)
  4056e1:	f2 0f 11 01          	movsd  %xmm0,(%rcx)
  4056e5:	c4 63 fb f0 f5 0c    	rorx   $0xc,%rbp,%r14
  4056eb:	67 4f 03 34 f7       	add    (%r15d,%r14d,8),%r14
  4056f0:	c4 c3 fb f0 ee 34    	rorx   $0x34,%r14,%rbp
  4056f6:	48 83 fb 02          	cmp    $0x2,%rbx
  4056fa:	0f 82 eb 00 00 00    	jb     4057eb <.L1409$pb+0x18>
  405700:	41 bc 01 00 00 00    	mov    $0x1,%r12d
  405706:	48 89 5c 24 18       	mov    %rbx,0x18(%rsp)
  40570b:	66 49 0f 6e c4       	movq   %r12,%xmm0
  405710:	49 81 ed 08 00 00 00 	sub    $0x8,%r13
  405717:	9c                   	pushfq 
  405718:	49 be 50 0a 45 00 00 	movabs $0x450a50,%r14
  40571f:	00 00 00 
  405722:	c4 43 fb f0 f6 0c    	rorx   $0xc,%r14,%r14
  405728:	67 4f 03 34 f7       	add    (%r15d,%r14d,8),%r14
  40572d:	c4 43 fb f0 f6 34    	rorx   $0x34,%r14,%r14
  405733:	49 81 c5 08 00 00 00 	add    $0x8,%r13
  40573a:	9d                   	popfq  
  40573b:	66 41 0f 62 06       	punpckldq (%r14),%xmm0
  405740:	49 81 ed 08 00 00 00 	sub    $0x8,%r13
  405747:	9c                   	pushfq 
  405748:	49 be 60 0a 45 00 00 	movabs $0x450a60,%r14
  40574f:	00 00 00 
  405752:	c4 43 fb f0 f6 0c    	rorx   $0xc,%r14,%r14
  405758:	67 4f 03 34 f7       	add    (%r15d,%r14d,8),%r14
  40575d:	c4 43 fb f0 f6 34    	rorx   $0x34,%r14,%r14
  405763:	49 81 c5 08 00 00 00 	add    $0x8,%r13
  40576a:	9d                   	popfq  
  40576b:	66 41 0f 5c 06       	subpd  (%r14),%xmm0
  405770:	66 0f 70 d0 4e       	pshufd $0x4e,%xmm0,%xmm2
  405775:	66 0f 58 d0          	addpd  %xmm0,%xmm2
  405779:	f2 0f 59 54 24 30    	mulsd  0x30(%rsp),%xmm2
  40577f:	66 0f 29 54 24 50    	movapd %xmm2,0x50(%rsp)
  405785:	bf c8 00 00 00       	mov    $0xc8,%edi
  40578a:	be 01 00 00 00       	mov    $0x1,%esi
  40578f:	f2 0f 10 44 24 08    	movsd  0x8(%rsp),%xmm0
  405795:	f2 0f 10 0c 24       	movsd  (%rsp),%xmm1
  40579a:	48 8b 5c 24 20       	mov    0x20(%rsp),%rbx
  40579f:	68 a6 57 40 00       	pushq  $0x4057a6
  4057a4:	ff e3                	jmpq   *%rbx

00000000004057a6 <.L1399$pb>:
  4057a6:	48 8b 44 24 28       	mov    0x28(%rsp),%rax
  4057ab:	f2 42 0f 11 04 e0    	movsd  %xmm0,(%rax,%r12,8)
  4057b1:	bf c8 00 00 00       	mov    $0xc8,%edi
  4057b6:	be 02 00 00 00       	mov    $0x2,%esi
  4057bb:	f2 0f 10 44 24 08    	movsd  0x8(%rsp),%xmm0
  4057c1:	f2 0f 10 0c 24       	movsd  (%rsp),%xmm1
  4057c6:	66 0f 28 54 24 50    	movapd 0x50(%rsp),%xmm2
  4057cc:	68 d3 57 40 00       	pushq  $0x4057d3
  4057d1:	ff e3                	jmpq   *%rbx

00000000004057d3 <.L1409$pb>:
  4057d3:	48 8b 5c 24 18       	mov    0x18(%rsp),%rbx
  4057d8:	f2 42 0f 11 44 e5 00 	movsd  %xmm0,0x0(%rbp,%r12,8)
  4057df:	49 ff c4             	inc    %r12
  4057e2:	4c 39 e3             	cmp    %r12,%rbx
  4057e5:	0f 85 20 ff ff ff    	jne    40570b <.L1389$pb+0x49>
  4057eb:	b8 b0 26 41 00       	mov    $0x4126b0,%eax
  4057f0:	c4 63 fb f0 f0 0c    	rorx   $0xc,%rax,%r14
  4057f6:	67 4f 03 34 f7       	add    (%r15d,%r14d,8),%r14
  4057fb:	c4 c3 fb f0 c6 34    	rorx   $0x34,%r14,%rax
  405801:	48 8b 7c 24 10       	mov    0x10(%rsp),%rdi
  405806:	48 8b 5c 24 60       	mov    0x60(%rsp),%rbx
  40580b:	4c 8b 64 24 68       	mov    0x68(%rsp),%r12
  405810:	48 8b 6c 24 70       	mov    0x70(%rsp),%rbp
  405815:	4c 8b ac 24 80 00 00 	mov    0x80(%rsp),%r13
  40581c:	00 
  40581d:	c4 43 fb f0 f5 0c    	rorx   $0xc,%r13,%r14
  405823:	67 4f 03 34 f7       	add    (%r15d,%r14d,8),%r14
  405828:	c4 c3 fb f0 e6 34    	rorx   $0x34,%r14,%rsp
  40582e:	48 81 ec 08 00 00 00 	sub    $0x8,%rsp
  405835:	ff e0                	jmpq   *%rax
  405837:	66 0f 1f 84 00 00 00 	nopw   0x0(%rax,%rax,1)
  40583e:	00 00 

0000000000405840 <DoAssign>:
  405840:	c4 43 fb f0 f5 3c    	rorx   $0x3c,%r13,%r14
  405846:	66 41 81 fe 80 0b    	cmp    $0xb80,%r14w
  40584c:	73 22                	jae    405870 <DoAssign+0x30>
  40584e:	49 c1 ee 10          	shr    $0x10,%r14
  405852:	67 4f 03 74 f7 f8    	add    -0x8(%r15d,%r14d,8),%r14
  405858:	49 c1 e6 0c          	shl    $0xc,%r14
  40585c:	49 8d 26             	lea    (%r14),%rsp
  40585f:	54                   	push   %rsp
  405860:	41 55                	push   %r13
  405862:	41 55                	push   %r13
  405864:	4d 23 2f             	and    (%r15),%r13
  405867:	49 81 ed b0 00 00 00 	sub    $0xb0,%r13
  40586e:	eb 0b                	jmp    40587b <DoAssign+0x3b>
  405870:	41 55                	push   %r13
  405872:	41 55                	push   %r13
  405874:	49 81 ed b0 00 00 00 	sub    $0xb0,%r13
  40587b:	55                   	push   %rbp
  40587c:	41 54                	push   %r12
  40587e:	53                   	push   %rbx
  40587f:	48 81 ec 80 00 00 00 	sub    $0x80,%rsp
  405886:	48 b8 00 00 00 00 00 	movabs $0x3ff0000000000000,%rax
  40588d:	00 f0 3f 
  405890:	48 89 44 24 38       	mov    %rax,0x38(%rsp)
  405895:	f2 0f 10 4c 24 38    	movsd  0x38(%rsp),%xmm1
  40589b:	48 c7 44 24 30 00 00 	movq   $0x0,0x30(%rsp)
  4058a2:	00 00 
  4058a4:	f2 0f 10 44 24 30    	movsd  0x30(%rsp),%xmm0
  4058aa:	b8 00 20 41 00       	mov    $0x412000,%eax
  4058af:	c4 63 fb f0 f0 0c    	rorx   $0xc,%rax,%r14
  4058b5:	67 4f 03 34 f7       	add    (%r15d,%r14d,8),%r14
  4058ba:	c4 c3 fb f0 ee 34    	rorx   $0x34,%r14,%rbp
  4058c0:	b8 40 4f f5 00       	mov    $0xf54f40,%eax
  4058c5:	c4 63 fb f0 f0 0c    	rorx   $0xc,%rax,%r14
  4058cb:	67 4f 03 34 f7       	add    (%r15d,%r14d,8),%r14
  4058d0:	c4 43 fb f0 e6 34    	rorx   $0x34,%r14,%r12
  4058d6:	48 8d 44 24 0c       	lea    0xc(%rsp),%rax
  4058db:	49 8d 5d 0c          	lea    0xc(%r13),%rbx
  4058df:	41 83 3c 24 00       	cmpl   $0x0,(%r12)
  4058e4:	48 89 5c 24 20       	mov    %rbx,0x20(%rsp)
  4058e9:	f2 0f 11 44 24 10    	movsd  %xmm0,0x10(%rsp)
  4058ef:	f2 0f 11 4c 24 18    	movsd  %xmm1,0x18(%rsp)
  4058f5:	0f 84 8e 00 00 00    	je     405989 <.L14410$pb+0x5>
  4058fb:	49 69 7c 24 10 c8 3e 	imul   $0x13ec8,0x10(%r12),%rdi
  405902:	01 00 
  405904:	48 89 de             	mov    %rbx,%rsi
  405907:	68 0e 59 40 00       	pushq  $0x40590e
  40590c:	ff e5                	jmpq   *%rbp

000000000040590e <.L14110$pb>:
  40590e:	48 89 dd             	mov    %rbx,%rbp
  405911:	48 89 c3             	mov    %rax,%rbx
  405914:	8b 74 24 0c          	mov    0xc(%rsp),%esi
  405918:	85 f6                	test   %esi,%esi
  40591a:	0f 84 96 01 00 00    	je     405ab6 <.L15010$pb+0x61>
  405920:	b8 90 24 41 00       	mov    $0x412490,%eax
  405925:	c4 63 fb f0 f0 0c    	rorx   $0xc,%rax,%r14
  40592b:	67 4f 03 34 f7       	add    (%r15d,%r14d,8),%r14
  405930:	c4 c3 fb f0 c6 34    	rorx   $0x34,%r14,%rax
  405936:	bf 59 0c 45 00       	mov    $0x450c59,%edi
  40593b:	68 42 59 40 00       	pushq  $0x405942
  405940:	ff e0                	jmpq   *%rax

0000000000405942 <.L14210$pb>:
  405942:	b8 10 22 41 00       	mov    $0x412210,%eax
  405947:	c4 63 fb f0 f0 0c    	rorx   $0xc,%rax,%r14
  40594d:	67 4f 03 34 f7       	add    (%r15d,%r14d,8),%r14
  405952:	c4 c3 fb f0 c6 34    	rorx   $0x34,%r14,%rax
  405958:	48 89 df             	mov    %rbx,%rdi
  40595b:	48 89 ee             	mov    %rbp,%rsi
  40595e:	68 65 59 40 00       	pushq  $0x405965
  405963:	ff e0                	jmpq   *%rax

0000000000405965 <.L14310$pb>:
  405965:	b8 20 26 41 00       	mov    $0x412620,%eax
  40596a:	c4 63 fb f0 f0 0c    	rorx   $0xc,%rax,%r14
  405970:	67 4f 03 34 f7       	add    (%r15d,%r14d,8),%r14
  405975:	c4 c3 fb f0 ce 34    	rorx   $0x34,%r14,%rcx
  40597b:	31 c0                	xor    %eax,%eax
  40597d:	68 84 59 40 00       	pushq  $0x405984
  405982:	ff e1                	jmpq   *%rcx

0000000000405984 <.L14410$pb>:
  405984:	e9 2d 01 00 00       	jmpq   405ab6 <.L15010$pb+0x61>
  405989:	49 c7 44 24 10 01 00 	movq   $0x1,0x10(%r12)
  405990:	00 00 
  405992:	eb 17                	jmp    4059ab <.L14510$pb+0x5>
  405994:	48 89 df             	mov    %rbx,%rdi
  405997:	48 8b 5c 24 20       	mov    0x20(%rsp),%rbx
  40599c:	48 89 de             	mov    %rbx,%rsi
  40599f:	68 a6 59 40 00       	pushq  $0x4059a6
  4059a4:	ff e1                	jmpq   *%rcx

00000000004059a6 <.L14510$pb>:
  4059a6:	49 ff 44 24 10       	incq   0x10(%r12)
  4059ab:	49 69 7c 24 10 c8 3e 	imul   $0x13ec8,0x10(%r12),%rdi
  4059b2:	01 00 
  4059b4:	48 89 de             	mov    %rbx,%rsi
  4059b7:	68 be 59 40 00       	pushq  $0x4059be
  4059bc:	ff e5                	jmpq   *%rbp

00000000004059be <.L14610$pb>:
  4059be:	48 89 dd             	mov    %rbx,%rbp
  4059c1:	48 89 c3             	mov    %rax,%rbx
  4059c4:	8b 74 24 0c          	mov    0xc(%rsp),%esi
  4059c8:	85 f6                	test   %esi,%esi
  4059ca:	74 64                	je     405a30 <.L14910$pb>
  4059cc:	b8 90 24 41 00       	mov    $0x412490,%eax
  4059d1:	c4 63 fb f0 f0 0c    	rorx   $0xc,%rax,%r14
  4059d7:	67 4f 03 34 f7       	add    (%r15d,%r14d,8),%r14
  4059dc:	c4 c3 fb f0 c6 34    	rorx   $0x34,%r14,%rax
  4059e2:	bf 59 0c 45 00       	mov    $0x450c59,%edi
  4059e7:	68 ee 59 40 00       	pushq  $0x4059ee
  4059ec:	ff e0                	jmpq   *%rax

00000000004059ee <.L14710$pb>:
  4059ee:	b8 10 22 41 00       	mov    $0x412210,%eax
  4059f3:	c4 63 fb f0 f0 0c    	rorx   $0xc,%rax,%r14
  4059f9:	67 4f 03 34 f7       	add    (%r15d,%r14d,8),%r14
  4059fe:	c4 c3 fb f0 c6 34    	rorx   $0x34,%r14,%rax
  405a04:	48 89 df             	mov    %rbx,%rdi
  405a07:	48 89 ee             	mov    %rbp,%rsi
  405a0a:	68 11 5a 40 00       	pushq  $0x405a11
  405a0f:	ff e0                	jmpq   *%rax

0000000000405a11 <.L14810$pb>:
  405a11:	b8 20 26 41 00       	mov    $0x412620,%eax
  405a16:	c4 63 fb f0 f0 0c    	rorx   $0xc,%rax,%r14
  405a1c:	67 4f 03 34 f7       	add    (%r15d,%r14d,8),%r14
  405a21:	c4 c3 fb f0 ce 34    	rorx   $0x34,%r14,%rcx
  405a27:	31 c0                	xor    %eax,%eax
  405a29:	68 30 5a 40 00       	pushq  $0x405a30
  405a2e:	ff e1                	jmpq   *%rcx

0000000000405a30 <.L14910$pb>:
  405a30:	49 8b 74 24 10       	mov    0x10(%r12),%rsi
  405a35:	b8 e0 5c 40 00       	mov    $0x405ce0,%eax
  405a3a:	c4 63 fb f0 f0 0c    	rorx   $0xc,%rax,%r14
  405a40:	67 4f 03 34 f7       	add    (%r15d,%r14d,8),%r14
  405a45:	c4 c3 fb f0 c6 34    	rorx   $0x34,%r14,%rax
  405a4b:	48 89 df             	mov    %rbx,%rdi
  405a4e:	68 55 5a 40 00       	pushq  $0x405a55
  405a53:	ff e0                	jmpq   *%rax

0000000000405a55 <.L15010$pb>:
  405a55:	b9 00 4f f5 00       	mov    $0xf54f00,%ecx
  405a5a:	c4 63 fb f0 f1 0c    	rorx   $0xc,%rcx,%r14
  405a60:	67 4f 03 34 f7       	add    (%r15d,%r14d,8),%r14
  405a65:	c4 c3 fb f0 d6 34    	rorx   $0x34,%r14,%rdx
  405a6b:	b9 00 20 41 00       	mov    $0x412000,%ecx
  405a70:	c4 63 fb f0 f1 0c    	rorx   $0xc,%rcx,%r14
  405a76:	67 4f 03 34 f7       	add    (%r15d,%r14d,8),%r14
  405a7b:	c4 c3 fb f0 ee 34    	rorx   $0x34,%r14,%rbp
  405a81:	b9 10 22 41 00       	mov    $0x412210,%ecx
  405a86:	c4 63 fb f0 f1 0c    	rorx   $0xc,%rcx,%r14
  405a8c:	67 4f 03 34 f7       	add    (%r15d,%r14d,8),%r14
  405a91:	c4 c3 fb f0 ce 34    	rorx   $0x34,%r14,%rcx
  405a97:	be 40 4f f5 00       	mov    $0xf54f40,%esi
  405a9c:	c4 63 fb f0 f6 0c    	rorx   $0xc,%rsi,%r14
  405aa2:	67 4f 03 34 f7       	add    (%r15d,%r14d,8),%r14
  405aa7:	c4 43 fb f0 e6 34    	rorx   $0x34,%r14,%r12
  405aad:	48 3b 02             	cmp    (%rdx),%rax
  405ab0:	0f 86 de fe ff ff    	jbe    405994 <.L14410$pb+0x10>
  405ab6:	31 ed                	xor    %ebp,%ebp
  405ab8:	49 8b 74 24 10       	mov    0x10(%r12),%rsi
  405abd:	b8 e0 5c 40 00       	mov    $0x405ce0,%eax
  405ac2:	c4 63 fb f0 f0 0c    	rorx   $0xc,%rax,%r14
  405ac8:	67 4f 03 34 f7       	add    (%r15d,%r14d,8),%r14
  405acd:	c4 c3 fb f0 c6 34    	rorx   $0x34,%r14,%rax
  405ad3:	48 89 df             	mov    %rbx,%rdi
  405ad6:	68 dd 5a 40 00       	pushq  $0x405add
  405adb:	ff e0                	jmpq   *%rax

0000000000405add <.L15110$pb>:
  405add:	48 01 c5             	add    %rax,%rbp
  405ae0:	f2 0f 10 44 24 10    	movsd  0x10(%rsp),%xmm0
  405ae6:	f2 0f 58 44 24 18    	addsd  0x18(%rsp),%xmm0
  405aec:	f2 0f 11 44 24 10    	movsd  %xmm0,0x10(%rsp)
  405af2:	b8 40 27 41 00       	mov    $0x412740,%eax
  405af7:	c4 63 fb f0 f0 0c    	rorx   $0xc,%rax,%r14
  405afd:	67 4f 03 34 f7       	add    (%r15d,%r14d,8),%r14
  405b02:	c4 c3 fb f0 c6 34    	rorx   $0x34,%r14,%rax
  405b08:	48 89 ef             	mov    %rbp,%rdi
  405b0b:	68 12 5b 40 00       	pushq  $0x405b12
  405b10:	ff e0                	jmpq   *%rax

0000000000405b12 <.L15210$pb>:
  405b12:	b9 40 4f f5 00       	mov    $0xf54f40,%ecx
  405b17:	c4 63 fb f0 f1 0c    	rorx   $0xc,%rcx,%r14
  405b1d:	67 4f 03 34 f7       	add    (%r15d,%r14d,8),%r14
  405b22:	c4 43 fb f0 e6 34    	rorx   $0x34,%r14,%r12
  405b28:	49 3b 44 24 08       	cmp    0x8(%r12),%rax
  405b2d:	72 89                	jb     405ab8 <.L15010$pb+0x63>
  405b2f:	b8 80 27 41 00       	mov    $0x412780,%eax
  405b34:	c4 63 fb f0 f0 0c    	rorx   $0xc,%rax,%r14
  405b3a:	67 4f 03 34 f7       	add    (%r15d,%r14d,8),%r14
  405b3f:	c4 c3 fb f0 c6 34    	rorx   $0x34,%r14,%rax
  405b45:	48 89 44 24 18       	mov    %rax,0x18(%rsp)
  405b4a:	b8 10 22 41 00       	mov    $0x412210,%eax
  405b4f:	c4 63 fb f0 f0 0c    	rorx   $0xc,%rax,%r14
  405b55:	67 4f 03 34 f7       	add    (%r15d,%r14d,8),%r14
  405b5a:	c4 c3 fb f0 c6 34    	rorx   $0x34,%r14,%rax
  405b60:	48 89 df             	mov    %rbx,%rdi
  405b63:	48 8b 74 24 20       	mov    0x20(%rsp),%rsi
  405b68:	68 6f 5b 40 00       	pushq  $0x405b6f
  405b6d:	ff e0                	jmpq   *%rax

0000000000405b6f <.L15310$pb>:
  405b6f:	f3 41 0f 7e 44 24 10 	movq   0x10(%r12),%xmm0
  405b76:	49 81 ed 08 00 00 00 	sub    $0x8,%r13
  405b7d:	9c                   	pushfq 
  405b7e:	49 be 50 0a 45 00 00 	movabs $0x450a50,%r14
  405b85:	00 00 00 
  405b88:	c4 43 fb f0 f6 0c    	rorx   $0xc,%r14,%r14
  405b8e:	67 4f 03 34 f7       	add    (%r15d,%r14d,8),%r14
  405b93:	c4 43 fb f0 f6 34    	rorx   $0x34,%r14,%r14
  405b99:	49 81 c5 08 00 00 00 	add    $0x8,%r13
  405ba0:	9d                   	popfq  
  405ba1:	66 41 0f 62 06       	punpckldq (%r14),%xmm0
  405ba6:	49 81 ed 08 00 00 00 	sub    $0x8,%r13
  405bad:	9c                   	pushfq 
  405bae:	49 be 60 0a 45 00 00 	movabs $0x450a60,%r14
  405bb5:	00 00 00 
  405bb8:	c4 43 fb f0 f6 0c    	rorx   $0xc,%r14,%r14
  405bbe:	67 4f 03 34 f7       	add    (%r15d,%r14d,8),%r14
  405bc3:	c4 43 fb f0 f6 34    	rorx   $0x34,%r14,%r14
  405bc9:	49 81 c5 08 00 00 00 	add    $0x8,%r13
  405bd0:	9d                   	popfq  
  405bd1:	66 41 0f 5c 06       	subpd  (%r14),%xmm0
  405bd6:	66 0f 70 c8 4e       	pshufd $0x4e,%xmm0,%xmm1
  405bdb:	66 0f 58 c8          	addpd  %xmm0,%xmm1
  405bdf:	f2 0f 59 4c 24 10    	mulsd  0x10(%rsp),%xmm1
  405be5:	66 0f 29 4c 24 20    	movapd %xmm1,0x20(%rsp)
  405beb:	48 89 ef             	mov    %rbp,%rdi
  405bee:	48 8b 5c 24 18       	mov    0x18(%rsp),%rbx
  405bf3:	68 fa 5b 40 00       	pushq  $0x405bfa
  405bf8:	ff e3                	jmpq   *%rbx

0000000000405bfa <.L15410$pb>:
  405bfa:	66 0f 28 4c 24 20    	movapd 0x20(%rsp),%xmm1
  405c00:	f2 0f 5e c8          	divsd  %xmm0,%xmm1
  405c04:	f2 41 0f 11 4c 24 18 	movsd  %xmm1,0x18(%r12)
  405c0b:	48 8d 44 24 40       	lea    0x40(%rsp),%rax
  405c10:	4d 8d 65 40          	lea    0x40(%r13),%r12
  405c14:	48 89 ef             	mov    %rbp,%rdi
  405c17:	68 1e 5c 40 00       	pushq  $0x405c1e
  405c1c:	ff e3                	jmpq   *%rbx

0000000000405c1e <.L15510$pb>:
  405c1e:	f2 0f 5e 44 24 10    	divsd  0x10(%rsp),%xmm0
  405c24:	b8 00 30 42 00       	mov    $0x423000,%eax
  405c29:	c4 63 fb f0 f0 0c    	rorx   $0xc,%rax,%r14
  405c2f:	67 4f 03 34 f7       	add    (%r15d,%r14d,8),%r14
  405c34:	c4 c3 fb f0 ce 34    	rorx   $0x34,%r14,%rcx
  405c3a:	be e0 0b 45 00       	mov    $0x450be0,%esi
  405c3f:	b0 01                	mov    $0x1,%al
  405c41:	4c 89 e7             	mov    %r12,%rdi
  405c44:	68 4b 5c 40 00       	pushq  $0x405c4b
  405c49:	ff e1                	jmpq   *%rcx

0000000000405c4b <.L15610$pb>:
  405c4b:	b8 80 63 42 00       	mov    $0x426380,%eax
  405c50:	c4 63 fb f0 f0 0c    	rorx   $0xc,%rax,%r14
  405c56:	67 4f 03 34 f7       	add    (%r15d,%r14d,8),%r14
  405c5b:	c4 c3 fb f0 c6 34    	rorx   $0x34,%r14,%rax
  405c61:	4c 89 e7             	mov    %r12,%rdi
  405c64:	68 6b 5c 40 00       	pushq  $0x405c6b
  405c69:	ff e0                	jmpq   *%rax

0000000000405c6b <.L15710$pb>:
  405c6b:	b8 40 4f f5 00       	mov    $0xf54f40,%eax
  405c70:	c4 63 fb f0 f0 0c    	rorx   $0xc,%rax,%r14
  405c76:	67 4f 03 34 f7       	add    (%r15d,%r14d,8),%r14
  405c7b:	c4 c3 fb f0 c6 34    	rorx   $0x34,%r14,%rax
  405c81:	83 38 00             	cmpl   $0x0,(%rax)
  405c84:	75 06                	jne    405c8c <.L15710$pb+0x21>
  405c86:	c7 00 01 00 00 00    	movl   $0x1,(%rax)
  405c8c:	48 8b 9c 24 80 00 00 	mov    0x80(%rsp),%rbx
  405c93:	00 
  405c94:	4c 8b a4 24 88 00 00 	mov    0x88(%rsp),%r12
  405c9b:	00 
  405c9c:	48 8b ac 24 90 00 00 	mov    0x90(%rsp),%rbp
  405ca3:	00 
  405ca4:	4c 8b ac 24 98 00 00 	mov    0x98(%rsp),%r13
  405cab:	00 
  405cac:	c4 43 fb f0 f5 0c    	rorx   $0xc,%r13,%r14
  405cb2:	67 4f 03 34 f7       	add    (%r15d,%r14d,8),%r14
  405cb7:	c4 c3 fb f0 e6 34    	rorx   $0x34,%r14,%rsp
  405cbd:	c4 63 fb f0 74 24 f8 	rorx   $0xc,-0x8(%rsp),%r14
  405cc4:	0c 
  405cc5:	67 4f 03 34 f7       	add    (%r15d,%r14d,8),%r14
  405cca:	c4 43 fb f0 f6 34    	rorx   $0x34,%r14,%r14
  405cd0:	41 ff e6             	jmpq   *%r14
  405cd3:	66 66 66 66 2e 0f 1f 	data32 data32 data32 nopw %cs:0x0(%rax,%rax,1)
  405cda:	84 00 00 00 00 00 

0000000000405ce0 <DoAssignIteration>:
  405ce0:	c4 43 fb f0 f5 3c    	rorx   $0x3c,%r13,%r14
  405ce6:	66 41 81 fe 80 04    	cmp    $0x480,%r14w
  405cec:	73 22                	jae    405d10 <DoAssignIteration+0x30>
  405cee:	49 c1 ee 10          	shr    $0x10,%r14
  405cf2:	67 4f 03 74 f7 f8    	add    -0x8(%r15d,%r14d,8),%r14
  405cf8:	49 c1 e6 0c          	shl    $0xc,%r14
  405cfc:	49 8d 26             	lea    (%r14),%rsp
  405cff:	54                   	push   %rsp
  405d00:	41 55                	push   %r13
  405d02:	41 55                	push   %r13
  405d04:	4d 23 2f             	and    (%r15),%r13
  405d07:	49 81 ed 40 00 00 00 	sub    $0x40,%r13
  405d0e:	eb 0b                	jmp    405d1b <DoAssignIteration+0x3b>
  405d10:	41 55                	push   %r13
  405d12:	41 55                	push   %r13
  405d14:	49 81 ed 40 00 00 00 	sub    $0x40,%r13
  405d1b:	55                   	push   %rbp
  405d1c:	41 54                	push   %r12
  405d1e:	53                   	push   %rbx
  405d1f:	48 83 ec 10          	sub    $0x10,%rsp
  405d23:	49 89 f4             	mov    %rsi,%r12
  405d26:	48 89 fb             	mov    %rdi,%rbx
  405d29:	b8 d0 ab 40 00       	mov    $0x40abd0,%eax
  405d2e:	c4 63 fb f0 f0 0c    	rorx   $0xc,%rax,%r14
  405d34:	67 4f 03 34 f7       	add    (%r15d,%r14d,8),%r14
  405d39:	c4 c3 fb f0 c6 34    	rorx   $0x34,%r14,%rax
  405d3f:	68 46 5d 40 00       	pushq  $0x405d46
  405d44:	ff e0                	jmpq   *%rax

0000000000405d46 <.L15811$pb>:
  405d46:	b8 80 26 41 00       	mov    $0x412680,%eax
  405d4b:	c4 63 fb f0 f0 0c    	rorx   $0xc,%rax,%r14
  405d51:	67 4f 03 34 f7       	add    (%r15d,%r14d,8),%r14
  405d56:	c4 c3 fb f0 ce 34    	rorx   $0x34,%r14,%rcx
  405d5c:	31 c0                	xor    %eax,%eax
  405d5e:	68 65 5d 40 00       	pushq  $0x405d65
  405d63:	ff e1                	jmpq   *%rcx

0000000000405d65 <.L15911$pb>:
  405d65:	48 89 44 24 08       	mov    %rax,0x8(%rsp)
  405d6a:	b8 c0 ac 40 00       	mov    $0x40acc0,%eax
  405d6f:	c4 63 fb f0 f0 0c    	rorx   $0xc,%rax,%r14
  405d75:	67 4f 03 34 f7       	add    (%r15d,%r14d,8),%r14
  405d7a:	c4 c3 fb f0 ee 34    	rorx   $0x34,%r14,%rbp
  405d80:	4d 85 e4             	test   %r12,%r12
  405d83:	74 16                	je     405d9b <.L16011$pb+0xc>
  405d85:	48 89 df             	mov    %rbx,%rdi
  405d88:	68 8f 5d 40 00       	pushq  $0x405d8f
  405d8d:	ff e5                	jmpq   *%rbp

0000000000405d8f <.L16011$pb>:
  405d8f:	48 81 c3 c8 3e 01 00 	add    $0x13ec8,%rbx
  405d96:	49 ff cc             	dec    %r12
  405d99:	75 ea                	jne    405d85 <.L15911$pb+0x20>
  405d9b:	b8 b0 26 41 00       	mov    $0x4126b0,%eax
  405da0:	c4 63 fb f0 f0 0c    	rorx   $0xc,%rax,%r14
  405da6:	67 4f 03 34 f7       	add    (%r15d,%r14d,8),%r14
  405dab:	c4 c3 fb f0 c6 34    	rorx   $0x34,%r14,%rax
  405db1:	48 8b 7c 24 08       	mov    0x8(%rsp),%rdi
  405db6:	48 8b 5c 24 10       	mov    0x10(%rsp),%rbx
  405dbb:	4c 8b 64 24 18       	mov    0x18(%rsp),%r12
  405dc0:	48 8b 6c 24 20       	mov    0x20(%rsp),%rbp
  405dc5:	4c 8b 6c 24 30       	mov    0x30(%rsp),%r13
  405dca:	c4 43 fb f0 f5 0c    	rorx   $0xc,%r13,%r14
  405dd0:	67 4f 03 34 f7       	add    (%r15d,%r14d,8),%r14
  405dd5:	c4 c3 fb f0 e6 34    	rorx   $0x34,%r14,%rsp
  405ddb:	48 81 ec 08 00 00 00 	sub    $0x8,%rsp
  405de2:	ff e0                	jmpq   *%rax
  405de4:	66 66 66 66 66 66 2e 	data32 data32 data32 data32 data32 nopw %cs:0x0(%rax,%rax,1)
  405deb:	0f 1f 84 00 00 00 00 
  405df2:	00 
  405df3:	66 66 66 66 66 66 2e 	data32 data32 data32 data32 data32 nopw %cs:0x0(%rax,%rax,1)
  405dfa:	0f 1f 84 00 00 00 00 
  405e01:	00 
  405e02:	66 66 66 66 66 66 2e 	data32 data32 data32 data32 data32 nopw %cs:0x0(%rax,%rax,1)
  405e09:	0f 1f 84 00 00 00 00 
  405e10:	00 
  405e11:	66 66 66 66 66 66 2e 	data32 data32 data32 data32 data32 nopw %cs:0x0(%rax,%rax,1)
  405e18:	0f 1f 84 00 00 00 00 
  405e1f:	00 
  405e20:	66 66 66 66 66 66 2e 	data32 data32 data32 data32 data32 nopw %cs:0x0(%rax,%rax,1)
  405e27:	0f 1f 84 00 00 00 00 
  405e2e:	00 
  405e2f:	66 66 66 66 66 66 2e 	data32 data32 data32 data32 data32 nopw %cs:0x0(%rax,%rax,1)
  405e36:	0f 1f 84 00 00 00 00 
  405e3d:	00 
  405e3e:	66 66 66 66 66 66 2e 	data32 data32 data32 data32 data32 nopw %cs:0x0(%rax,%rax,1)
  405e45:	0f 1f 84 00 00 00 00 
  405e4c:	00 
  405e4d:	66 66 66 66 66 66 2e 	data32 data32 data32 data32 data32 nopw %cs:0x0(%rax,%rax,1)
  405e54:	0f 1f 84 00 00 00 00 
  405e5b:	00 
  405e5c:	66 66 66 66 66 66 2e 	data32 data32 data32 data32 data32 nopw %cs:0x0(%rax,%rax,1)
  405e63:	0f 1f 84 00 00 00 00 
  405e6a:	00 
  405e6b:	66 66 66 66 66 66 2e 	data32 data32 data32 data32 data32 nopw %cs:0x0(%rax,%rax,1)
  405e72:	0f 1f 84 00 00 00 00 
  405e79:	00 
  405e7a:	66 66 66 66 66 66 2e 	data32 data32 data32 data32 data32 nopw %cs:0x0(%rax,%rax,1)
  405e81:	0f 1f 84 00 00 00 00 
  405e88:	00 
  405e89:	66 66 66 66 66 66 2e 	data32 data32 data32 data32 data32 nopw %cs:0x0(%rax,%rax,1)
  405e90:	0f 1f 84 00 00 00 00 
  405e97:	00 
  405e98:	66 66 66 66 66 66 2e 	data32 data32 data32 data32 data32 nopw %cs:0x0(%rax,%rax,1)
  405e9f:	0f 1f 84 00 00 00 00 
  405ea6:	00 
  405ea7:	66 66 66 66 66 66 2e 	data32 data32 data32 data32 data32 nopw %cs:0x0(%rax,%rax,1)
  405eae:	0f 1f 84 00 00 00 00 
  405eb5:	00 
  405eb6:	66 66 66 66 66 66 2e 	data32 data32 data32 data32 data32 nopw %cs:0x0(%rax,%rax,1)
  405ebd:	0f 1f 84 00 00 00 00 
  405ec4:	00 
  405ec5:	66 66 66 66 66 66 2e 	data32 data32 data32 data32 data32 nopw %cs:0x0(%rax,%rax,1)
  405ecc:	0f 1f 84 00 00 00 00 
  405ed3:	00 
  405ed4:	66 66 66 66 66 66 2e 	data32 data32 data32 data32 data32 nopw %cs:0x0(%rax,%rax,1)
  405edb:	0f 1f 84 00 00 00 00 
  405ee2:	00 
  405ee3:	66 66 66 66 66 66 2e 	data32 data32 data32 data32 data32 nopw %cs:0x0(%rax,%rax,1)
  405eea:	0f 1f 84 00 00 00 00 
  405ef1:	00 
  405ef2:	66 66 66 66 66 66 2e 	data32 data32 data32 data32 data32 nopw %cs:0x0(%rax,%rax,1)
  405ef9:	0f 1f 84 00 00 00 00 
  405f00:	00 
  405f01:	66 66 66 66 66 66 2e 	data32 data32 data32 data32 data32 nopw %cs:0x0(%rax,%rax,1)
  405f08:	0f 1f 84 00 00 00 00 
  405f0f:	00 
  405f10:	66 66 66 66 66 66 2e 	data32 data32 data32 data32 data32 nopw %cs:0x0(%rax,%rax,1)
  405f17:	0f 1f 84 00 00 00 00 
  405f1e:	00 
  405f1f:	66 66 66 66 66 66 2e 	data32 data32 data32 data32 data32 nopw %cs:0x0(%rax,%rax,1)
  405f26:	0f 1f 84 00 00 00 00 
  405f2d:	00 
  405f2e:	66 66 66 66 66 66 2e 	data32 data32 data32 data32 data32 nopw %cs:0x0(%rax,%rax,1)
  405f35:	0f 1f 84 00 00 00 00 
  405f3c:	00 
  405f3d:	66 66 66 66 66 66 2e 	data32 data32 data32 data32 data32 nopw %cs:0x0(%rax,%rax,1)
  405f44:	0f 1f 84 00 00 00 00 
  405f4b:	00 
  405f4c:	66 66 66 66 66 66 2e 	data32 data32 data32 data32 data32 nopw %cs:0x0(%rax,%rax,1)
  405f53:	0f 1f 84 00 00 00 00 
  405f5a:	00 
  405f5b:	66 66 66 66 66 66 2e 	data32 data32 data32 data32 data32 nopw %cs:0x0(%rax,%rax,1)
  405f62:	0f 1f 84 00 00 00 00 
  405f69:	00 
  405f6a:	66 66 66 66 66 66 2e 	data32 data32 data32 data32 data32 nopw %cs:0x0(%rax,%rax,1)
  405f71:	0f 1f 84 00 00 00 00 
  405f78:	00 
  405f79:	66 66 66 66 66 66 2e 	data32 data32 data32 data32 data32 nopw %cs:0x0(%rax,%rax,1)
  405f80:	0f 1f 84 00 00 00 00 
  405f87:	00 
  405f88:	66 66 66 66 66 66 2e 	data32 data32 data32 data32 data32 nopw %cs:0x0(%rax,%rax,1)
  405f8f:	0f 1f 84 00 00 00 00 
  405f96:	00 
  405f97:	66 66 66 66 66 66 2e 	data32 data32 data32 data32 data32 nopw %cs:0x0(%rax,%rax,1)
  405f9e:	0f 1f 84 00 00 00 00 
  405fa5:	00 
  405fa6:	66 66 66 66 66 66 2e 	data32 data32 data32 data32 data32 nopw %cs:0x0(%rax,%rax,1)
  405fad:	0f 1f 84 00 00 00 00 
  405fb4:	00 
  405fb5:	66 66 66 66 66 66 2e 	data32 data32 data32 data32 data32 nopw %cs:0x0(%rax,%rax,1)
  405fbc:	0f 1f 84 00 00 00 00 
  405fc3:	00 
  405fc4:	66 66 66 66 66 66 2e 	data32 data32 data32 data32 data32 nopw %cs:0x0(%rax,%rax,1)
  405fcb:	0f 1f 84 00 00 00 00 
  405fd2:	00 
  405fd3:	66 66 66 66 66 66 2e 	data32 data32 data32 data32 data32 nopw %cs:0x0(%rax,%rax,1)
  405fda:	0f 1f 84 00 00 00 00 
  405fe1:	00 
  405fe2:	66 66 66 66 66 66 2e 	data32 data32 data32 data32 data32 nopw %cs:0x0(%rax,%rax,1)
  405fe9:	0f 1f 84 00 00 00 00 
  405ff0:	00 
  405ff1:	66 66 66 66 66 66 2e 	data32 data32 data32 data32 data32 nopw %cs:0x0(%rax,%rax,1)
  405ff8:	0f 1f 84 00 00 00 00 
  405fff:	00 

0000000000406000 <DoIDEA>:
  406000:	c4 43 fb f0 f5 3c    	rorx   $0x3c,%r13,%r14
  406006:	66 41 81 fe 80 1d    	cmp    $0x1d80,%r14w
  40600c:	73 22                	jae    406030 <DoIDEA+0x30>
  40600e:	49 c1 ee 10          	shr    $0x10,%r14
  406012:	67 4f 03 74 f7 f8    	add    -0x8(%r15d,%r14d,8),%r14
  406018:	49 c1 e6 0c          	shl    $0xc,%r14
  40601c:	49 8d 26             	lea    (%r14),%rsp
  40601f:	54                   	push   %rsp
  406020:	41 55                	push   %r13
  406022:	41 55                	push   %r13
  406024:	4d 23 2f             	and    (%r15),%r13
  406027:	49 81 ed d0 01 00 00 	sub    $0x1d0,%r13
  40602e:	eb 0b                	jmp    40603b <DoIDEA+0x3b>
  406030:	41 55                	push   %r13
  406032:	41 55                	push   %r13
  406034:	49 81 ed d0 01 00 00 	sub    $0x1d0,%r13
  40603b:	55                   	push   %rbp
  40603c:	41 54                	push   %r12
  40603e:	53                   	push   %rbx
  40603f:	48 81 ec a0 01 00 00 	sub    $0x1a0,%rsp
  406046:	48 c7 44 24 68 00 00 	movq   $0x0,0x68(%rsp)
  40604d:	00 00 
  40604f:	f2 0f 10 44 24 68    	movsd  0x68(%rsp),%xmm0
  406055:	f2 0f 11 44 24 40    	movsd  %xmm0,0x40(%rsp)
  40605b:	b8 a0 30 41 00       	mov    $0x4130a0,%eax
  406060:	c4 63 fb f0 f0 0c    	rorx   $0xc,%rax,%r14
  406066:	67 4f 03 34 f7       	add    (%r15d,%r14d,8),%r14
  40606b:	c4 c3 fb f0 c6 34    	rorx   $0x34,%r14,%rax
  406071:	b9 10 67 40 00       	mov    $0x406710,%ecx
  406076:	c4 63 fb f0 f1 0c    	rorx   $0xc,%rcx,%r14
  40607c:	67 4f 03 34 f7       	add    (%r15d,%r14d,8),%r14
  406081:	c4 c3 fb f0 ce 34    	rorx   $0x34,%r14,%rcx
  406087:	48 89 4c 24 18       	mov    %rcx,0x18(%rsp)
  40608c:	b9 80 4f f5 00       	mov    $0xf54f80,%ecx
  406091:	c4 63 fb f0 f1 0c    	rorx   $0xc,%rcx,%r14
  406097:	67 4f 03 34 f7       	add    (%r15d,%r14d,8),%r14
  40609c:	c4 c3 fb f0 de 34    	rorx   $0x34,%r14,%rbx
  4060a2:	b9 30 31 41 00       	mov    $0x413130,%ecx
  4060a7:	c4 63 fb f0 f1 0c    	rorx   $0xc,%rcx,%r14
  4060ad:	67 4f 03 34 f7       	add    (%r15d,%r14d,8),%r14
  4060b2:	c4 c3 fb f0 ee 34    	rorx   $0x34,%r14,%rbp
  4060b8:	b9 70 66 40 00       	mov    $0x406670,%ecx
  4060bd:	c4 63 fb f0 f1 0c    	rorx   $0xc,%rcx,%r14
  4060c3:	67 4f 03 34 f7       	add    (%r15d,%r14d,8),%r14
  4060c8:	c4 c3 fb f0 ce 34    	rorx   $0x34,%r14,%rcx
  4060ce:	48 89 4c 24 28       	mov    %rcx,0x28(%rsp)
  4060d3:	b9 00 20 41 00       	mov    $0x412000,%ecx
  4060d8:	c4 63 fb f0 f1 0c    	rorx   $0xc,%rcx,%r14
  4060de:	67 4f 03 34 f7       	add    (%r15d,%r14d,8),%r14
  4060e3:	c4 c3 fb f0 ce 34    	rorx   $0x34,%r14,%rcx
  4060e9:	48 89 4c 24 10       	mov    %rcx,0x10(%rsp)
  4060ee:	48 8d 4c 24 24       	lea    0x24(%rsp),%rcx
  4060f3:	49 8d 4d 24          	lea    0x24(%r13),%rcx
  4060f7:	48 89 4c 24 30       	mov    %rcx,0x30(%rsp)
  4060fc:	bf 03 00 00 00       	mov    $0x3,%edi
  406101:	68 08 61 40 00       	pushq  $0x406108
  406106:	ff e0                	jmpq   *%rax

0000000000406108 <.L16112$pb>:
  406108:	45 31 e4             	xor    %r12d,%r12d
  40610b:	bf 60 ea 00 00       	mov    $0xea60,%edi
  406110:	68 17 61 40 00       	pushq  $0x406117
  406115:	ff e5                	jmpq   *%rbp

0000000000406117 <.L16212$pb>:
  406117:	66 42 89 44 64 70    	mov    %ax,0x70(%rsp,%r12,2)
  40611d:	49 ff c4             	inc    %r12
  406120:	49 83 fc 08          	cmp    $0x8,%r12
  406124:	75 e5                	jne    40610b <.L16112$pb+0x3>
  406126:	66 0f 57 c0          	xorpd  %xmm0,%xmm0
  40612a:	66 0f 29 84 24 d0 00 	movapd %xmm0,0xd0(%rsp)
  406131:	00 00 
  406133:	66 0f 29 84 24 c0 00 	movapd %xmm0,0xc0(%rsp)
  40613a:	00 00 
  40613c:	66 0f 29 84 24 b0 00 	movapd %xmm0,0xb0(%rsp)
  406143:	00 00 
  406145:	66 0f 29 84 24 a0 00 	movapd %xmm0,0xa0(%rsp)
  40614c:	00 00 
  40614e:	66 0f 29 84 24 90 00 	movapd %xmm0,0x90(%rsp)
  406155:	00 00 
  406157:	66 0f 29 84 24 80 00 	movapd %xmm0,0x80(%rsp)
  40615e:	00 00 
  406160:	48 c7 84 24 e0 00 00 	movq   $0x0,0xe0(%rsp)
  406167:	00 00 00 00 00 
  40616c:	48 8d 44 24 70       	lea    0x70(%rsp),%rax
  406171:	49 8d 7d 70          	lea    0x70(%r13),%rdi
  406175:	48 8d 84 24 80 00 00 	lea    0x80(%rsp),%rax
  40617c:	00 
  40617d:	4d 8d a5 80 00 00 00 	lea    0x80(%r13),%r12
  406184:	4c 89 e6             	mov    %r12,%rsi
  406187:	68 90 61 40 00       	pushq  $0x406190
  40618c:	ff 64 24 30          	jmpq   *0x30(%rsp)

0000000000406190 <.L16312$pb>:
  406190:	48 8d 84 24 30 01 00 	lea    0x130(%rsp),%rax
  406197:	00 
  406198:	49 8d b5 30 01 00 00 	lea    0x130(%r13),%rsi
  40619f:	4c 89 64 24 38       	mov    %r12,0x38(%rsp)
  4061a4:	4c 89 e7             	mov    %r12,%rdi
  4061a7:	48 89 74 24 48       	mov    %rsi,0x48(%rsp)
  4061ac:	68 b5 61 40 00       	pushq  $0x4061b5
  4061b1:	ff 64 24 20          	jmpq   *0x20(%rsp)

00000000004061b5 <.L16412$pb>:
  4061b5:	48 8b 7b 10          	mov    0x10(%rbx),%rdi
  4061b9:	4c 8b 64 24 30       	mov    0x30(%rsp),%r12
  4061be:	4c 89 e6             	mov    %r12,%rsi
  4061c1:	68 ca 61 40 00       	pushq  $0x4061ca
  4061c6:	ff 64 24 18          	jmpq   *0x18(%rsp)

00000000004061ca <.L16512$pb>:
  4061ca:	8b 74 24 24          	mov    0x24(%rsp),%esi
  4061ce:	48 89 44 24 18       	mov    %rax,0x18(%rsp)
  4061d3:	c4 63 fb f0 f0 0c    	rorx   $0xc,%rax,%r14
  4061d9:	67 4f 03 34 f7       	add    (%r15d,%r14d,8),%r14
  4061de:	c4 c3 fb f0 c6 34    	rorx   $0x34,%r14,%rax
  4061e4:	48 89 44 24 58       	mov    %rax,0x58(%rsp)
  4061e9:	85 f6                	test   %esi,%esi
  4061eb:	74 41                	je     40622e <.L16712$pb>
  4061ed:	b8 90 24 41 00       	mov    $0x412490,%eax
  4061f2:	c4 63 fb f0 f0 0c    	rorx   $0xc,%rax,%r14
  4061f8:	67 4f 03 34 f7       	add    (%r15d,%r14d,8),%r14
  4061fd:	c4 c3 fb f0 c6 34    	rorx   $0x34,%r14,%rax
  406203:	bf 68 0c 45 00       	mov    $0x450c68,%edi
  406208:	68 0f 62 40 00       	pushq  $0x40620f
  40620d:	ff e0                	jmpq   *%rax

000000000040620f <.L16612$pb>:
  40620f:	b8 20 26 41 00       	mov    $0x412620,%eax
  406214:	c4 63 fb f0 f0 0c    	rorx   $0xc,%rax,%r14
  40621a:	67 4f 03 34 f7       	add    (%r15d,%r14d,8),%r14
  40621f:	c4 c3 fb f0 ce 34    	rorx   $0x34,%r14,%rcx
  406225:	31 c0                	xor    %eax,%eax
  406227:	68 2e 62 40 00       	pushq  $0x40622e
  40622c:	ff e1                	jmpq   *%rcx

000000000040622e <.L16712$pb>:
  40622e:	48 8b 7b 10          	mov    0x10(%rbx),%rdi
  406232:	4c 89 e6             	mov    %r12,%rsi
  406235:	68 3e 62 40 00       	pushq  $0x40623e
  40623a:	ff 64 24 18          	jmpq   *0x18(%rsp)

000000000040623e <.L16812$pb>:
  40623e:	48 89 44 24 28       	mov    %rax,0x28(%rsp)
  406243:	8b 74 24 24          	mov    0x24(%rsp),%esi
  406247:	85 f6                	test   %esi,%esi
  406249:	74 66                	je     4062b1 <.L17112$pb>
  40624b:	b8 90 24 41 00       	mov    $0x412490,%eax
  406250:	c4 63 fb f0 f0 0c    	rorx   $0xc,%rax,%r14
  406256:	67 4f 03 34 f7       	add    (%r15d,%r14d,8),%r14
  40625b:	c4 c3 fb f0 c6 34    	rorx   $0x34,%r14,%rax
  406261:	bf 68 0c 45 00       	mov    $0x450c68,%edi
  406266:	68 6d 62 40 00       	pushq  $0x40626d
  40626b:	ff e0                	jmpq   *%rax

000000000040626d <.L16912$pb>:
  40626d:	b8 10 22 41 00       	mov    $0x412210,%eax
  406272:	c4 63 fb f0 f0 0c    	rorx   $0xc,%rax,%r14
  406278:	67 4f 03 34 f7       	add    (%r15d,%r14d,8),%r14
  40627d:	c4 c3 fb f0 c6 34    	rorx   $0x34,%r14,%rax
  406283:	48 8b 7c 24 18       	mov    0x18(%rsp),%rdi
  406288:	4c 89 e6             	mov    %r12,%rsi
  40628b:	68 92 62 40 00       	pushq  $0x406292
  406290:	ff e0                	jmpq   *%rax

0000000000406292 <.L17012$pb>:
  406292:	b8 20 26 41 00       	mov    $0x412620,%eax
  406297:	c4 63 fb f0 f0 0c    	rorx   $0xc,%rax,%r14
  40629d:	67 4f 03 34 f7       	add    (%r15d,%r14d,8),%r14
  4062a2:	c4 c3 fb f0 ce 34    	rorx   $0x34,%r14,%rcx
  4062a8:	31 c0                	xor    %eax,%eax
  4062aa:	68 b1 62 40 00       	pushq  $0x4062b1
  4062af:	ff e1                	jmpq   *%rcx

00000000004062b1 <.L17112$pb>:
  4062b1:	48 89 6c 24 50       	mov    %rbp,0x50(%rsp)
  4062b6:	48 8b 7b 10          	mov    0x10(%rbx),%rdi
  4062ba:	4c 89 e6             	mov    %r12,%rsi
  4062bd:	68 c6 62 40 00       	pushq  $0x4062c6
  4062c2:	ff 64 24 18          	jmpq   *0x18(%rsp)

00000000004062c6 <.L17212$pb>:
  4062c6:	48 89 44 24 10       	mov    %rax,0x10(%rsp)
  4062cb:	8b 74 24 24          	mov    0x24(%rsp),%esi
  4062cf:	85 f6                	test   %esi,%esi
  4062d1:	4c 89 e5             	mov    %r12,%rbp
  4062d4:	74 77                	je     40634d <.L17612$pb>
  4062d6:	b8 90 24 41 00       	mov    $0x412490,%eax
  4062db:	c4 63 fb f0 f0 0c    	rorx   $0xc,%rax,%r14
  4062e1:	67 4f 03 34 f7       	add    (%r15d,%r14d,8),%r14
  4062e6:	c4 c3 fb f0 c6 34    	rorx   $0x34,%r14,%rax
  4062ec:	bf 68 0c 45 00       	mov    $0x450c68,%edi
  4062f1:	68 f8 62 40 00       	pushq  $0x4062f8
  4062f6:	ff e0                	jmpq   *%rax

00000000004062f8 <.L17312$pb>:
  4062f8:	b8 10 22 41 00       	mov    $0x412210,%eax
  4062fd:	c4 63 fb f0 f0 0c    	rorx   $0xc,%rax,%r14
  406303:	67 4f 03 34 f7       	add    (%r15d,%r14d,8),%r14
  406308:	c4 43 fb f0 e6 34    	rorx   $0x34,%r14,%r12
  40630e:	48 8b 7c 24 18       	mov    0x18(%rsp),%rdi
  406313:	48 89 ee             	mov    %rbp,%rsi
  406316:	68 1e 63 40 00       	pushq  $0x40631e
  40631b:	41 ff e4             	jmpq   *%r12

000000000040631e <.L17412$pb>:
  40631e:	48 8b 7c 24 28       	mov    0x28(%rsp),%rdi
  406323:	48 89 ee             	mov    %rbp,%rsi
  406326:	68 2e 63 40 00       	pushq  $0x40632e
  40632b:	41 ff e4             	jmpq   *%r12

000000000040632e <.L17512$pb>:
  40632e:	b8 20 26 41 00       	mov    $0x412620,%eax
  406333:	c4 63 fb f0 f0 0c    	rorx   $0xc,%rax,%r14
  406339:	67 4f 03 34 f7       	add    (%r15d,%r14d,8),%r14
  40633e:	c4 c3 fb f0 ce 34    	rorx   $0x34,%r14,%rcx
  406344:	31 c0                	xor    %eax,%eax
  406346:	68 4d 63 40 00       	pushq  $0x40634d
  40634b:	ff e1                	jmpq   *%rcx

000000000040634d <.L17612$pb>:
  40634d:	48 83 7b 10 00       	cmpq   $0x0,0x10(%rbx)
  406352:	48 8b 6c 24 58       	mov    0x58(%rsp),%rbp
  406357:	48 8b 4c 24 50       	mov    0x50(%rsp),%rcx
  40635c:	74 2d                	je     40638b <.L17712$pb+0x16>
  40635e:	45 31 e4             	xor    %r12d,%r12d
  406361:	48 89 5c 24 60       	mov    %rbx,0x60(%rsp)
  406366:	bf ff 00 00 00       	mov    $0xff,%edi
  40636b:	48 89 cb             	mov    %rcx,%rbx
  40636e:	68 75 63 40 00       	pushq  $0x406375
  406373:	ff e3                	jmpq   *%rbx

0000000000406375 <.L17712$pb>:
  406375:	48 89 d9             	mov    %rbx,%rcx
  406378:	48 8b 5c 24 60       	mov    0x60(%rsp),%rbx
  40637d:	42 88 44 25 00       	mov    %al,0x0(%rbp,%r12,1)
  406382:	49 ff c4             	inc    %r12
  406385:	4c 39 63 10          	cmp    %r12,0x10(%rbx)
  406389:	77 db                	ja     406366 <.L17612$pb+0x19>
  40638b:	83 3b 00             	cmpl   $0x0,(%rbx)
  40638e:	75 7d                	jne    40640d <.L17812$pb+0x2b>
  406390:	48 c7 43 18 64 00 00 	movq   $0x64,0x18(%rbx)
  406397:	00 
  406398:	41 b8 64 00 00 00    	mov    $0x64,%r8d
  40639e:	41 bc 00 69 40 00    	mov    $0x406900,%r12d
  4063a4:	bd 00 4f f5 00       	mov    $0xf54f00,%ebp
  4063a9:	48 8b 4b 10          	mov    0x10(%rbx),%rcx
  4063ad:	c4 43 fb f0 f4 0c    	rorx   $0xc,%r12,%r14
  4063b3:	67 4f 03 34 f7       	add    (%r15d,%r14d,8),%r14
  4063b8:	c4 c3 fb f0 c6 34    	rorx   $0x34,%r14,%rax
  4063be:	48 8b 54 24 48       	mov    0x48(%rsp),%rdx
  4063c3:	48 89 14 24          	mov    %rdx,(%rsp)
  4063c7:	48 8b 7c 24 18       	mov    0x18(%rsp),%rdi
  4063cc:	48 8b 74 24 28       	mov    0x28(%rsp),%rsi
  4063d1:	48 8b 54 24 10       	mov    0x10(%rsp),%rdx
  4063d6:	4c 8b 4c 24 38       	mov    0x38(%rsp),%r9
  4063db:	68 e2 63 40 00       	pushq  $0x4063e2
  4063e0:	ff e0                	jmpq   *%rax

00000000004063e2 <.L17812$pb>:
  4063e2:	c4 63 fb f0 f5 0c    	rorx   $0xc,%rbp,%r14
  4063e8:	67 4f 03 34 f7       	add    (%r15d,%r14d,8),%r14
  4063ed:	c4 c3 fb f0 ce 34    	rorx   $0x34,%r14,%rcx
  4063f3:	48 3b 01             	cmp    (%rcx),%rax
  4063f6:	77 15                	ja     40640d <.L17812$pb+0x2b>
  4063f8:	4c 8b 43 18          	mov    0x18(%rbx),%r8
  4063fc:	49 83 c0 0a          	add    $0xa,%r8
  406400:	4c 89 43 18          	mov    %r8,0x18(%rbx)
  406404:	49 81 f8 20 a1 07 00 	cmp    $0x7a120,%r8
  40640b:	72 9c                	jb     4063a9 <.L17712$pb+0x34>
  40640d:	45 31 e4             	xor    %r12d,%r12d
  406410:	48 8b 6c 24 48       	mov    0x48(%rsp),%rbp
  406415:	48 8b 4b 10          	mov    0x10(%rbx),%rcx
  406419:	4c 8b 43 18          	mov    0x18(%rbx),%r8
  40641d:	b8 00 69 40 00       	mov    $0x406900,%eax
  406422:	c4 63 fb f0 f0 0c    	rorx   $0xc,%rax,%r14
  406428:	67 4f 03 34 f7       	add    (%r15d,%r14d,8),%r14
  40642d:	c4 c3 fb f0 c6 34    	rorx   $0x34,%r14,%rax
  406433:	48 89 2c 24          	mov    %rbp,(%rsp)
  406437:	48 8b 7c 24 18       	mov    0x18(%rsp),%rdi
  40643c:	48 8b 74 24 28       	mov    0x28(%rsp),%rsi
  406441:	48 8b 54 24 10       	mov    0x10(%rsp),%rdx
  406446:	4c 8b 4c 24 38       	mov    0x38(%rsp),%r9
  40644b:	68 52 64 40 00       	pushq  $0x406452
  406450:	ff e0                	jmpq   *%rax

0000000000406452 <.L17912$pb>:
  406452:	49 01 c4             	add    %rax,%r12
  406455:	b8 80 4f f5 00       	mov    $0xf54f80,%eax
  40645a:	c4 63 fb f0 f0 0c    	rorx   $0xc,%rax,%r14
  406460:	67 4f 03 34 f7       	add    (%r15d,%r14d,8),%r14
  406465:	c4 c3 fb f0 de 34    	rorx   $0x34,%r14,%rbx
  40646b:	f3 0f 7e 43 18       	movq   0x18(%rbx),%xmm0
  406470:	49 81 ed 08 00 00 00 	sub    $0x8,%r13
  406477:	9c                   	pushfq 
  406478:	49 be 50 0a 45 00 00 	movabs $0x450a50,%r14
  40647f:	00 00 00 
  406482:	c4 43 fb f0 f6 0c    	rorx   $0xc,%r14,%r14
  406488:	67 4f 03 34 f7       	add    (%r15d,%r14d,8),%r14
  40648d:	c4 43 fb f0 f6 34    	rorx   $0x34,%r14,%r14
  406493:	49 81 c5 08 00 00 00 	add    $0x8,%r13
  40649a:	9d                   	popfq  
  40649b:	66 41 0f 62 06       	punpckldq (%r14),%xmm0
  4064a0:	49 81 ed 08 00 00 00 	sub    $0x8,%r13
  4064a7:	9c                   	pushfq 
  4064a8:	49 be 60 0a 45 00 00 	movabs $0x450a60,%r14
  4064af:	00 00 00 
  4064b2:	c4 43 fb f0 f6 0c    	rorx   $0xc,%r14,%r14
  4064b8:	67 4f 03 34 f7       	add    (%r15d,%r14d,8),%r14
  4064bd:	c4 43 fb f0 f6 34    	rorx   $0x34,%r14,%r14
  4064c3:	49 81 c5 08 00 00 00 	add    $0x8,%r13
  4064ca:	9d                   	popfq  
  4064cb:	66 41 0f 5c 06       	subpd  (%r14),%xmm0
  4064d0:	66 0f 70 c8 4e       	pshufd $0x4e,%xmm0,%xmm1
  4064d5:	66 0f 58 c8          	addpd  %xmm0,%xmm1
  4064d9:	f2 0f 10 44 24 40    	movsd  0x40(%rsp),%xmm0
  4064df:	f2 0f 58 c1          	addsd  %xmm1,%xmm0
  4064e3:	f2 0f 11 44 24 40    	movsd  %xmm0,0x40(%rsp)
  4064e9:	b8 40 27 41 00       	mov    $0x412740,%eax
  4064ee:	c4 63 fb f0 f0 0c    	rorx   $0xc,%rax,%r14
  4064f4:	67 4f 03 34 f7       	add    (%r15d,%r14d,8),%r14
  4064f9:	c4 c3 fb f0 c6 34    	rorx   $0x34,%r14,%rax
  4064ff:	4c 89 e7             	mov    %r12,%rdi
  406502:	68 09 65 40 00       	pushq  $0x406509
  406507:	ff e0                	jmpq   *%rax

0000000000406509 <.L18012$pb>:
  406509:	48 8b 7c 24 18       	mov    0x18(%rsp),%rdi
  40650e:	48 3b 43 08          	cmp    0x8(%rbx),%rax
  406512:	0f 82 fd fe ff ff    	jb     406415 <.L17812$pb+0x33>
  406518:	b8 80 27 41 00       	mov    $0x412780,%eax
  40651d:	c4 63 fb f0 f0 0c    	rorx   $0xc,%rax,%r14
  406523:	67 4f 03 34 f7       	add    (%r15d,%r14d,8),%r14
  406528:	c4 c3 fb f0 c6 34    	rorx   $0x34,%r14,%rax
  40652e:	48 89 44 24 38       	mov    %rax,0x38(%rsp)
  406533:	b8 10 22 41 00       	mov    $0x412210,%eax
  406538:	c4 63 fb f0 f0 0c    	rorx   $0xc,%rax,%r14
  40653e:	67 4f 03 34 f7       	add    (%r15d,%r14d,8),%r14
  406543:	c4 c3 fb f0 ee 34    	rorx   $0x34,%r14,%rbp
  406549:	48 8b 74 24 30       	mov    0x30(%rsp),%rsi
  40654e:	68 55 65 40 00       	pushq  $0x406555
  406553:	ff e5                	jmpq   *%rbp

0000000000406555 <.L18112$pb>:
  406555:	48 8b 7c 24 28       	mov    0x28(%rsp),%rdi
  40655a:	48 8b 74 24 30       	mov    0x30(%rsp),%rsi
  40655f:	68 66 65 40 00       	pushq  $0x406566
  406564:	ff e5                	jmpq   *%rbp

0000000000406566 <.L18212$pb>:
  406566:	48 8b 7c 24 10       	mov    0x10(%rsp),%rdi
  40656b:	48 8b 74 24 30       	mov    0x30(%rsp),%rsi
  406570:	68 77 65 40 00       	pushq  $0x406577
  406575:	ff e5                	jmpq   *%rbp

0000000000406577 <.L18312$pb>:
  406577:	4c 89 e7             	mov    %r12,%rdi
  40657a:	48 8b 6c 24 38       	mov    0x38(%rsp),%rbp
  40657f:	68 86 65 40 00       	pushq  $0x406586
  406584:	ff e5                	jmpq   *%rbp

0000000000406586 <.L18412$pb>:
  406586:	f2 0f 10 4c 24 40    	movsd  0x40(%rsp),%xmm1
  40658c:	f2 0f 5e c8          	divsd  %xmm0,%xmm1
  406590:	f2 0f 11 4b 20       	movsd  %xmm1,0x20(%rbx)
  406595:	48 8d 84 24 f0 00 00 	lea    0xf0(%rsp),%rax
  40659c:	00 
  40659d:	49 8d 9d f0 00 00 00 	lea    0xf0(%r13),%rbx
  4065a4:	4c 89 e7             	mov    %r12,%rdi
  4065a7:	68 ae 65 40 00       	pushq  $0x4065ae
  4065ac:	ff e5                	jmpq   *%rbp

00000000004065ae <.L18512$pb>:
  4065ae:	f2 0f 5e 44 24 40    	divsd  0x40(%rsp),%xmm0
  4065b4:	b8 00 30 42 00       	mov    $0x423000,%eax
  4065b9:	c4 63 fb f0 f0 0c    	rorx   $0xc,%rax,%r14
  4065bf:	67 4f 03 34 f7       	add    (%r15d,%r14d,8),%r14
  4065c4:	c4 c3 fb f0 ce 34    	rorx   $0x34,%r14,%rcx
  4065ca:	be e0 0b 45 00       	mov    $0x450be0,%esi
  4065cf:	b0 01                	mov    $0x1,%al
  4065d1:	48 89 df             	mov    %rbx,%rdi
  4065d4:	68 db 65 40 00       	pushq  $0x4065db
  4065d9:	ff e1                	jmpq   *%rcx

00000000004065db <.L18612$pb>:
  4065db:	b8 80 63 42 00       	mov    $0x426380,%eax
  4065e0:	c4 63 fb f0 f0 0c    	rorx   $0xc,%rax,%r14
  4065e6:	67 4f 03 34 f7       	add    (%r15d,%r14d,8),%r14
  4065eb:	c4 c3 fb f0 c6 34    	rorx   $0x34,%r14,%rax
  4065f1:	48 89 df             	mov    %rbx,%rdi
  4065f4:	68 fb 65 40 00       	pushq  $0x4065fb
  4065f9:	ff e0                	jmpq   *%rax

00000000004065fb <.L18712$pb>:
  4065fb:	b8 80 4f f5 00       	mov    $0xf54f80,%eax
  406600:	c4 63 fb f0 f0 0c    	rorx   $0xc,%rax,%r14
  406606:	67 4f 03 34 f7       	add    (%r15d,%r14d,8),%r14
  40660b:	c4 c3 fb f0 c6 34    	rorx   $0x34,%r14,%rax
  406611:	83 38 00             	cmpl   $0x0,(%rax)
  406614:	75 06                	jne    40661c <.L18712$pb+0x21>
  406616:	c7 00 01 00 00 00    	movl   $0x1,(%rax)
  40661c:	48 8b 9c 24 a0 01 00 	mov    0x1a0(%rsp),%rbx
  406623:	00 
  406624:	4c 8b a4 24 a8 01 00 	mov    0x1a8(%rsp),%r12
  40662b:	00 
  40662c:	48 8b ac 24 b0 01 00 	mov    0x1b0(%rsp),%rbp
  406633:	00 
  406634:	4c 8b ac 24 b8 01 00 	mov    0x1b8(%rsp),%r13
  40663b:	00 
  40663c:	c4 43 fb f0 f5 0c    	rorx   $0xc,%r13,%r14
  406642:	67 4f 03 34 f7       	add    (%r15d,%r14d,8),%r14
  406647:	c4 c3 fb f0 e6 34    	rorx   $0x34,%r14,%rsp
  40664d:	c4 63 fb f0 74 24 f8 	rorx   $0xc,-0x8(%rsp),%r14
  406654:	0c 
  406655:	67 4f 03 34 f7       	add    (%r15d,%r14d,8),%r14
  40665a:	c4 43 fb f0 f6 34    	rorx   $0x34,%r14,%r14
  406660:	41 ff e6             	jmpq   *%r14
  406663:	66 66 66 66 2e 0f 1f 	data32 data32 data32 nopw %cs:0x0(%rax,%rax,1)
  40666a:	84 00 00 00 00 00 

0000000000406670 <en_key_idea>:
  406670:	49 81 ed 08 00 00 00 	sub    $0x8,%r13
  406677:	c4 63 fb f0 f7 0c    	rorx   $0xc,%rdi,%r14
  40667d:	67 4f 03 34 f7       	add    (%r15d,%r14d,8),%r14
  406682:	c4 c3 fb f0 ce 34    	rorx   $0x34,%r14,%rcx
  406688:	c4 63 fb f0 f6 0c    	rorx   $0xc,%rsi,%r14
  40668e:	67 4f 03 34 f7       	add    (%r15d,%r14d,8),%r14
  406693:	c4 c3 fb f0 c6 34    	rorx   $0x34,%r14,%rax
  406699:	31 d2                	xor    %edx,%edx
  40669b:	0f b7 34 51          	movzwl (%rcx,%rdx,2),%esi
  40669f:	66 89 34 50          	mov    %si,(%rax,%rdx,2)
  4066a3:	48 ff c2             	inc    %rdx
  4066a6:	48 83 fa 08          	cmp    $0x8,%rdx
  4066aa:	75 ef                	jne    40669b <en_key_idea+0x2b>
  4066ac:	31 d2                	xor    %edx,%edx
  4066ae:	b9 07 00 00 00       	mov    $0x7,%ecx
  4066b3:	8d 72 01             	lea    0x1(%rdx),%esi
  4066b6:	41 89 f1             	mov    %esi,%r9d
  4066b9:	41 83 e1 07          	and    $0x7,%r9d
  4066bd:	46 0f b7 04 48       	movzwl (%rax,%r9,2),%r8d
  4066c2:	8d 7a 02             	lea    0x2(%rdx),%edi
  4066c5:	83 e7 07             	and    $0x7,%edi
  4066c8:	0f b7 3c 78          	movzwl (%rax,%rdi,2),%edi
  4066cc:	66 44 0f ac c7 07    	shrd   $0x7,%r8w,%di
  4066d2:	83 ca 08             	or     $0x8,%edx
  4066d5:	66 89 3c 50          	mov    %di,(%rax,%rdx,2)
  4066d9:	83 e6 08             	and    $0x8,%esi
  4066dc:	48 8d 04 70          	lea    (%rax,%rsi,2),%rax
  4066e0:	ff c1                	inc    %ecx
  4066e2:	83 f9 33             	cmp    $0x33,%ecx
  4066e5:	44 89 ca             	mov    %r9d,%edx
  4066e8:	7c c9                	jl     4066b3 <en_key_idea+0x43>
  4066ea:	49 81 c5 08 00 00 00 	add    $0x8,%r13
  4066f1:	41 5e                	pop    %r14
  4066f3:	c4 43 fb f0 f6 0c    	rorx   $0xc,%r14,%r14
  4066f9:	67 4f 03 34 f7       	add    (%r15d,%r14d,8),%r14
  4066fe:	c4 43 fb f0 f6 34    	rorx   $0x34,%r14,%r14
  406704:	41 ff e6             	jmpq   *%r14
  406707:	66 0f 1f 84 00 00 00 	nopw   0x0(%rax,%rax,1)
  40670e:	00 00 

0000000000406710 <de_key_idea>:
  406710:	c4 43 fb f0 f5 3c    	rorx   $0x3c,%r13,%r14
  406716:	66 41 81 fe 80 0d    	cmp    $0xd80,%r14w
  40671c:	73 22                	jae    406740 <de_key_idea+0x30>
  40671e:	49 c1 ee 10          	shr    $0x10,%r14
  406722:	67 4f 03 74 f7 f8    	add    -0x8(%r15d,%r14d,8),%r14
  406728:	49 c1 e6 0c          	shl    $0xc,%r14
  40672c:	49 8d 26             	lea    (%r14),%rsp
  40672f:	54                   	push   %rsp
