
cjpeg:     file format elf64-x86-64


Disassembly of section .text:

0000000034800120 <enclave_main>:
    34800120:	41 54                	push   %r12
    34800122:	53                   	push   %rbx
    34800123:	48 81 ec 18 03 00 00 	sub    $0x318,%rsp
    3480012a:	48 89 3d bf 12 23 00 	mov    %rdi,0x2312bf(%rip)        # 34a313f0 <_edata>
    34800131:	48 c7 05 bc 12 23 00 	movq   $0x3482d2b8,0x2312bc(%rip)        # 34a313f8 <progname>
    34800138:	b8 d2 82 34 
    3480013c:	45 31 e4             	xor    %r12d,%r12d
    3480013f:	48 8d 9c 24 d0 00 00 	lea    0xd0(%rsp),%rbx
    34800146:	00 
    34800147:	66 0f 1f 84 00 00 00 	nopw   0x0(%rax,%rax,1)
    3480014e:	00 00 
    34800150:	e8 eb 40 02 00       	callq  34824240 <clock>
    34800155:	48 89 44 24 20       	mov    %rax,0x20(%rsp)
    3480015a:	48 8d 7c 24 28       	lea    0x28(%rsp),%rdi
    3480015f:	e8 3c 92 00 00       	callq  348093a0 <jpeg_std_error>
    34800164:	48 89 84 24 d0 00 00 	mov    %rax,0xd0(%rsp)
    3480016b:	00 
    3480016c:	be 5a 00 00 00       	mov    $0x5a,%esi
    34800171:	ba 48 02 00 00       	mov    $0x248,%edx
    34800176:	48 89 df             	mov    %rbx,%rdi
    34800179:	e8 82 0d 00 00       	callq  34800f00 <jpeg_CreateCompress>
    3480017e:	48 c7 84 24 c0 00 00 	movq   $0x3482d860,0xc0(%rsp)
    34800185:	00 60 d8 82 34 
    3480018a:	48 b8 e8 03 00 00 14 	movabs $0x414000003e8,%rax
    34800191:	04 00 00 
    34800194:	48 89 84 24 c8 00 00 	mov    %rax,0xc8(%rsp)
    3480019b:	00 
    3480019c:	c7 84 24 0c 01 00 00 	movl   $0x2,0x10c(%rsp)
    348001a3:	02 00 00 00 
    348001a7:	48 89 df             	mov    %rbx,%rdi
    348001aa:	e8 71 5a 00 00       	callq  34805c20 <jpeg_set_defaults>
    348001af:	48 89 df             	mov    %rbx,%rdi
    348001b2:	e8 c9 01 00 00       	callq  34800380 <parse_switches>
    348001b7:	48 8b 3d 32 12 23 00 	mov    0x231232(%rip),%rdi        # 34a313f0 <_edata>
    348001be:	be cc ed 82 34       	mov    $0x3482edcc,%esi
    348001c3:	e8 68 f0 01 00       	callq  3481f230 <fopen>
    348001c8:	48 85 c0             	test   %rax,%rax
    348001cb:	0f 84 5f 01 00 00    	je     34800330 <enclave_main+0x210>
    348001d1:	48 89 44 24 10       	mov    %rax,0x10(%rsp)
    348001d6:	bf 14 d8 82 34       	mov    $0x3482d814,%edi
    348001db:	be 15 e3 82 34       	mov    $0x3482e315,%esi
    348001e0:	e8 4b f0 01 00       	callq  3481f230 <fopen>
    348001e5:	48 85 c0             	test   %rax,%rax
    348001e8:	0f 84 5f 01 00 00    	je     3480034d <enclave_main+0x22d>
    348001ee:	4c 89 64 24 18       	mov    %r12,0x18(%rsp)
    348001f3:	48 89 df             	mov    %rbx,%rdi
    348001f6:	48 89 44 24 08       	mov    %rax,0x8(%rsp)
    348001fb:	e8 a0 01 00 00       	callq  348003a0 <select_file_type>
    34800200:	49 89 c4             	mov    %rax,%r12
    34800203:	48 8b 44 24 10       	mov    0x10(%rsp),%rax
    34800208:	49 89 44 24 18       	mov    %rax,0x18(%r12)
    3480020d:	48 89 df             	mov    %rbx,%rdi
    34800210:	4c 89 e6             	mov    %r12,%rsi
    34800213:	41 ff 14 24          	callq  *(%r12)
    34800217:	48 89 df             	mov    %rbx,%rdi
    3480021a:	e8 91 5c 00 00       	callq  34805eb0 <jpeg_default_colorspace>
    3480021f:	48 89 df             	mov    %rbx,%rdi
    34800222:	e8 59 01 00 00       	callq  34800380 <parse_switches>
    34800227:	48 89 df             	mov    %rbx,%rdi
    3480022a:	48 8b 74 24 08       	mov    0x8(%rsp),%rsi
    3480022f:	e8 ac 8c 00 00       	callq  34808ee0 <jpeg_stdio_dest>
    34800234:	be 01 00 00 00       	mov    $0x1,%esi
    34800239:	48 89 df             	mov    %rbx,%rdi
    3480023c:	e8 af 13 00 00       	callq  348015f0 <jpeg_start_compress>
    34800241:	e9 24 00 00 00       	jmpq   3480026a <enclave_main+0x14a>
    34800246:	66 2e 0f 1f 84 00 00 	nopw   %cs:0x0(%rax,%rax,1)
    3480024d:	00 00 00 
    34800250:	48 89 df             	mov    %rbx,%rdi
    34800253:	4c 89 e6             	mov    %r12,%rsi
    34800256:	41 ff 54 24 08       	callq  *0x8(%r12)
    3480025b:	49 8b 74 24 20       	mov    0x20(%r12),%rsi
    34800260:	48 89 df             	mov    %rbx,%rdi
    34800263:	89 c2                	mov    %eax,%edx
    34800265:	e8 56 14 00 00       	callq  348016c0 <jpeg_write_scanlines>
    3480026a:	8b 84 24 28 02 00 00 	mov    0x228(%rsp),%eax
    34800271:	3b 84 24 04 01 00 00 	cmp    0x104(%rsp),%eax
    34800278:	0f 82 d2 ff ff ff    	jb     34800250 <enclave_main+0x130>
    3480027e:	48 89 df             	mov    %rbx,%rdi
    34800281:	4c 89 e6             	mov    %r12,%rsi
    34800284:	41 ff 54 24 10       	callq  *0x10(%r12)
    34800289:	48 89 df             	mov    %rbx,%rdi
    3480028c:	e8 4f 0f 00 00       	callq  348011e0 <jpeg_finish_compress>
    34800291:	48 89 df             	mov    %rbx,%rdi
    34800294:	e8 37 0e 00 00       	callq  348010d0 <jpeg_destroy_compress>
    34800299:	48 8b 7c 24 10       	mov    0x10(%rsp),%rdi
    3480029e:	48 3b 3d 63 0c 23 00 	cmp    0x230c63(%rip),%rdi        # 34a30f08 <stdin>
    348002a5:	0f 84 05 00 00 00    	je     348002b0 <enclave_main+0x190>
    348002ab:	e8 30 ec 01 00       	callq  3481eee0 <fclose>
    348002b0:	48 8b 7c 24 08       	mov    0x8(%rsp),%rdi
    348002b5:	48 3b 3d 54 0c 23 00 	cmp    0x230c54(%rip),%rdi        # 34a30f10 <stdout>
    348002bc:	4c 8b 64 24 18       	mov    0x18(%rsp),%r12
    348002c1:	0f 84 05 00 00 00    	je     348002cc <enclave_main+0x1ac>
    348002c7:	e8 14 ec 01 00       	callq  3481eee0 <fclose>
    348002cc:	e8 6f 3f 02 00       	callq  34824240 <clock>
    348002d1:	48 2b 44 24 20       	sub    0x20(%rsp),%rax
    348002d6:	66 48 0f 6e c8       	movq   %rax,%xmm1
    348002db:	66 0f 62 0d ad cf 02 	punpckldq 0x2cfad(%rip),%xmm1        # 3482d290 <fabs+0x10>
    348002e2:	00 
    348002e3:	66 0f 5c 0d b5 cf 02 	subpd  0x2cfb5(%rip),%xmm1        # 3482d2a0 <fabs+0x20>
    348002ea:	00 
    348002eb:	66 0f 70 c1 4e       	pshufd $0x4e,%xmm1,%xmm0
    348002f0:	66 0f 58 c1          	addpd  %xmm1,%xmm0
    348002f4:	f2 0f 5e 05 b4 cf 02 	divsd  0x2cfb4(%rip),%xmm0        # 3482d2b0 <fabs+0x30>
    348002fb:	00 
    348002fc:	bf d1 d2 82 34       	mov    $0x3482d2d1,%edi
    34800301:	b0 01                	mov    $0x1,%al
    34800303:	e8 d8 39 02 00       	callq  34823ce0 <printf>
    34800308:	41 83 fc 13          	cmp    $0x13,%r12d
    3480030c:	41 8d 44 24 01       	lea    0x1(%r12),%eax
    34800311:	41 89 c4             	mov    %eax,%r12d
    34800314:	0f 8c 36 fe ff ff    	jl     34800150 <enclave_main+0x30>
    3480031a:	31 ff                	xor    %edi,%edi
    3480031c:	48 83 bc 24 a8 00 00 	cmpq   $0x0,0xa8(%rsp)
    34800323:	00 00 
    34800325:	40 0f 95 c7          	setne  %dil
    34800329:	01 ff                	add    %edi,%edi
    3480032b:	e8 90 43 02 00       	callq  348246c0 <exit>
    34800330:	48 8b 15 c1 10 23 00 	mov    0x2310c1(%rip),%rdx        # 34a313f8 <progname>
    34800337:	48 8b 0d b2 10 23 00 	mov    0x2310b2(%rip),%rcx        # 34a313f0 <_edata>
    3480033e:	bf 30 21 33 35       	mov    $0x35332130,%edi
    34800343:	be be d2 82 34       	mov    $0x3482d2be,%esi
    34800348:	e9 16 00 00 00       	jmpq   34800363 <enclave_main+0x243>
    3480034d:	48 8b 15 a4 10 23 00 	mov    0x2310a4(%rip),%rdx        # 34a313f8 <progname>
    34800354:	bf 30 21 33 35       	mov    $0x35332130,%edi
    34800359:	be be d2 82 34       	mov    $0x3482d2be,%esi
    3480035e:	b9 14 d8 82 34       	mov    $0x3482d814,%ecx
    34800363:	31 c0                	xor    %eax,%eax
    34800365:	e8 26 3a 02 00       	callq  34823d90 <sprintf>
    3480036a:	bf 30 21 33 35       	mov    $0x35332130,%edi
    3480036f:	e8 8c 3f 02 00       	callq  34824300 <puts>
    34800374:	bf 01 00 00 00       	mov    $0x1,%edi
    34800379:	e8 42 43 02 00       	callq  348246c0 <exit>
    3480037e:	66 90                	xchg   %ax,%ax

0000000034800380 <parse_switches>:
    34800380:	48 8b 07             	mov    (%rdi),%rax
    34800383:	c7 40 7c 00 00 00 00 	movl   $0x0,0x7c(%rax)
    3480038a:	c7 87 38 01 00 00 00 	movl   $0x0,0x138(%rdi)
    34800391:	00 00 00 
    34800394:	c3                   	retq   
    34800395:	66 66 2e 0f 1f 84 00 	data32 nopw %cs:0x0(%rax,%rax,1)
    3480039c:	00 00 00 00 

00000000348003a0 <select_file_type>:
    348003a0:	e9 0b 00 00 00       	jmpq   348003b0 <jinit_read_ppm>
    348003a5:	66 2e 0f 1f 84 00 00 	nopw   %cs:0x0(%rax,%rax,1)
    348003ac:	00 00 00 
    348003af:	90                   	nop

00000000348003b0 <jinit_read_ppm>:
    348003b0:	50                   	push   %rax
    348003b1:	48 8b 47 08          	mov    0x8(%rdi),%rax
    348003b5:	be 01 00 00 00       	mov    $0x1,%esi
    348003ba:	ba 50 00 00 00       	mov    $0x50,%edx
    348003bf:	ff 10                	callq  *(%rax)
    348003c1:	48 c7 00 e0 03 80 34 	movq   $0x348003e0,(%rax)
    348003c8:	48 c7 40 10 c0 08 80 	movq   $0x348008c0,0x10(%rax)
    348003cf:	34 
    348003d0:	59                   	pop    %rcx
    348003d1:	c3                   	retq   
    348003d2:	66 66 66 66 66 2e 0f 	data32 data32 data32 data32 nopw %cs:0x0(%rax,%rax,1)
    348003d9:	1f 84 00 00 00 00 00 

00000000348003e0 <start_input_ppm>:
    348003e0:	41 54                	push   %r12
    348003e2:	53                   	push   %rbx
    348003e3:	48 83 ec 38          	sub    $0x38,%rsp
    348003e7:	48 89 f3             	mov    %rsi,%rbx
    348003ea:	48 89 7c 24 28       	mov    %rdi,0x28(%rsp)
    348003ef:	48 8b 7b 18          	mov    0x18(%rbx),%rdi
    348003f3:	e8 a8 f3 01 00       	callq  3481f7a0 <getc>
    348003f8:	83 f8 50             	cmp    $0x50,%eax
    348003fb:	0f 84 11 00 00 00    	je     34800412 <start_input_ppm+0x32>
    34800401:	48 8b 7c 24 28       	mov    0x28(%rsp),%rdi
    34800406:	48 8b 07             	mov    (%rdi),%rax
    34800409:	c7 40 28 04 04 00 00 	movl   $0x404,0x28(%rax)
    34800410:	ff 10                	callq  *(%rax)
    34800412:	48 89 5c 24 30       	mov    %rbx,0x30(%rsp)
    34800417:	48 8b 7b 18          	mov    0x18(%rbx),%rdi
    3480041b:	e8 80 f3 01 00       	callq  3481f7a0 <getc>
    34800420:	89 c3                	mov    %eax,%ebx
    34800422:	83 fb 36             	cmp    $0x36,%ebx
    34800425:	0f 87 96 01 00 00    	ja     348005c1 <start_input_ppm+0x1e1>
    3480042b:	89 d8                	mov    %ebx,%eax
    3480042d:	48 b9 00 00 00 00 00 	movabs $0x6c000000000000,%rcx
    34800434:	00 6c 00 
    34800437:	48 0f a3 c1          	bt     %rax,%rcx
    3480043b:	0f 83 80 01 00 00    	jae    348005c1 <start_input_ppm+0x1e1>
    34800441:	89 5c 24 18          	mov    %ebx,0x18(%rsp)
    34800445:	48 8b 5c 24 30       	mov    0x30(%rsp),%rbx
    3480044a:	48 8b 73 18          	mov    0x18(%rbx),%rsi
    3480044e:	4c 8b 64 24 28       	mov    0x28(%rsp),%r12
    34800453:	4c 89 e7             	mov    %r12,%rdi
    34800456:	e8 75 04 00 00       	callq  348008d0 <read_pbm_integer>
    3480045b:	89 44 24 10          	mov    %eax,0x10(%rsp)
    3480045f:	48 8b 73 18          	mov    0x18(%rbx),%rsi
    34800463:	4c 89 e7             	mov    %r12,%rdi
    34800466:	e8 65 04 00 00       	callq  348008d0 <read_pbm_integer>
    3480046b:	89 44 24 0c          	mov    %eax,0xc(%rsp)
    3480046f:	48 8b 73 18          	mov    0x18(%rbx),%rsi
    34800473:	4c 89 e3             	mov    %r12,%rbx
    34800476:	48 89 df             	mov    %rbx,%rdi
    34800479:	e8 52 04 00 00       	callq  348008d0 <read_pbm_integer>
    3480047e:	8b 54 24 0c          	mov    0xc(%rsp),%edx
    34800482:	41 89 c4             	mov    %eax,%r12d
    34800485:	83 7c 24 10 00       	cmpl   $0x0,0x10(%rsp)
    3480048a:	44 89 64 24 24       	mov    %r12d,0x24(%rsp)
    3480048f:	0f 84 11 00 00 00    	je     348004a6 <start_input_ppm+0xc6>
    34800495:	85 d2                	test   %edx,%edx
    34800497:	0f 84 09 00 00 00    	je     348004a6 <start_input_ppm+0xc6>
    3480049d:	45 85 e4             	test   %r12d,%r12d
    348004a0:	0f 85 1a 00 00 00    	jne    348004c0 <start_input_ppm+0xe0>
    348004a6:	48 8b 03             	mov    (%rbx),%rax
    348004a9:	c7 40 28 04 04 00 00 	movl   $0x404,0x28(%rax)
    348004b0:	48 89 df             	mov    %rbx,%rdi
    348004b3:	41 89 d4             	mov    %edx,%r12d
    348004b6:	ff 10                	callq  *(%rax)
    348004b8:	44 89 e2             	mov    %r12d,%edx
    348004bb:	44 8b 64 24 24       	mov    0x24(%rsp),%r12d
    348004c0:	c7 43 58 08 00 00 00 	movl   $0x8,0x58(%rbx)
    348004c7:	8b 44 24 10          	mov    0x10(%rsp),%eax
    348004cb:	89 43 30             	mov    %eax,0x30(%rbx)
    348004ce:	89 53 34             	mov    %edx,0x34(%rbx)
    348004d1:	8b 44 24 18          	mov    0x18(%rsp),%eax
    348004d5:	83 f8 34             	cmp    $0x34,%eax
    348004d8:	0f 8f 52 00 00 00    	jg     34800530 <start_input_ppm+0x150>
    348004de:	83 f8 32             	cmp    $0x32,%eax
    348004e1:	0f 84 f0 00 00 00    	je     348005d7 <start_input_ppm+0x1f7>
    348004e7:	83 f8 33             	cmp    $0x33,%eax
    348004ea:	0f 85 b2 00 00 00    	jne    348005a2 <start_input_ppm+0x1c2>
    348004f0:	48 8d 43 38          	lea    0x38(%rbx),%rax
    348004f4:	48 89 44 24 18       	mov    %rax,0x18(%rsp)
    348004f9:	48 b8 03 00 00 00 02 	movabs $0x200000003,%rax
    34800500:	00 00 00 
    34800503:	48 89 43 38          	mov    %rax,0x38(%rbx)
    34800507:	48 8b 03             	mov    (%rbx),%rax
    3480050a:	c7 40 28 08 04 00 00 	movl   $0x408,0x28(%rax)
    34800511:	8b 4c 24 10          	mov    0x10(%rsp),%ecx
    34800515:	89 48 2c             	mov    %ecx,0x2c(%rax)
    34800518:	89 50 30             	mov    %edx,0x30(%rax)
    3480051b:	be 01 00 00 00       	mov    $0x1,%esi
    34800520:	48 89 df             	mov    %rbx,%rdi
    34800523:	ff 50 08             	callq  *0x8(%rax)
    34800526:	b8 10 0a 80 34       	mov    $0x34800a10,%eax
    3480052b:	e9 e2 00 00 00       	jmpq   34800612 <start_input_ppm+0x232>
    34800530:	83 f8 35             	cmp    $0x35,%eax
    34800533:	0f 84 f7 00 00 00    	je     34800630 <start_input_ppm+0x250>
    34800539:	83 f8 36             	cmp    $0x36,%eax
    3480053c:	0f 85 60 00 00 00    	jne    348005a2 <start_input_ppm+0x1c2>
    34800542:	48 8d 43 38          	lea    0x38(%rbx),%rax
    34800546:	48 89 44 24 18       	mov    %rax,0x18(%rsp)
    3480054b:	48 b8 03 00 00 00 02 	movabs $0x200000003,%rax
    34800552:	00 00 00 
    34800555:	48 89 43 38          	mov    %rax,0x38(%rbx)
    34800559:	48 8b 03             	mov    (%rbx),%rax
    3480055c:	c7 40 28 07 04 00 00 	movl   $0x407,0x28(%rax)
    34800563:	8b 4c 24 10          	mov    0x10(%rsp),%ecx
    34800567:	89 48 2c             	mov    %ecx,0x2c(%rax)
    3480056a:	89 50 30             	mov    %edx,0x30(%rax)
    3480056d:	c7 44 24 0c 01 00 00 	movl   $0x1,0xc(%rsp)
    34800574:	00 
    34800575:	be 01 00 00 00       	mov    $0x1,%esi
    3480057a:	48 89 df             	mov    %rbx,%rdi
    3480057d:	ff 50 08             	callq  *0x8(%rax)
    34800580:	41 81 fc 00 01 00 00 	cmp    $0x100,%r12d
    34800587:	0f 82 09 01 00 00    	jb     34800696 <start_input_ppm+0x2b6>
    3480058d:	49 89 dc             	mov    %rbx,%r12
    34800590:	48 8b 5c 24 30       	mov    0x30(%rsp),%rbx
    34800595:	48 c7 43 08 e0 0c 80 	movq   $0x34800ce0,0x8(%rbx)
    3480059c:	34 
    3480059d:	e9 e9 00 00 00       	jmpq   3480068b <start_input_ppm+0x2ab>
    348005a2:	48 8d 4b 38          	lea    0x38(%rbx),%rcx
    348005a6:	c7 44 24 0c 01 00 00 	movl   $0x1,0xc(%rsp)
    348005ad:	00 
    348005ae:	b0 01                	mov    $0x1,%al
    348005b0:	89 44 24 14          	mov    %eax,0x14(%rsp)
    348005b4:	49 89 dc             	mov    %rbx,%r12
    348005b7:	48 8b 5c 24 30       	mov    0x30(%rsp),%rbx
    348005bc:	e9 62 01 00 00       	jmpq   34800723 <start_input_ppm+0x343>
    348005c1:	48 8b 7c 24 28       	mov    0x28(%rsp),%rdi
    348005c6:	48 8b 07             	mov    (%rdi),%rax
    348005c9:	c7 40 28 04 04 00 00 	movl   $0x404,0x28(%rax)
    348005d0:	ff 10                	callq  *(%rax)
    348005d2:	e9 6a fe ff ff       	jmpq   34800441 <start_input_ppm+0x61>
    348005d7:	48 8d 43 38          	lea    0x38(%rbx),%rax
    348005db:	48 89 44 24 18       	mov    %rax,0x18(%rsp)
    348005e0:	48 b8 01 00 00 00 01 	movabs $0x100000001,%rax
    348005e7:	00 00 00 
    348005ea:	48 89 43 38          	mov    %rax,0x38(%rbx)
    348005ee:	48 8b 03             	mov    (%rbx),%rax
    348005f1:	c7 40 28 06 04 00 00 	movl   $0x406,0x28(%rax)
    348005f8:	8b 4c 24 10          	mov    0x10(%rsp),%ecx
    348005fc:	89 48 2c             	mov    %ecx,0x2c(%rax)
    348005ff:	89 50 30             	mov    %edx,0x30(%rax)
    34800602:	be 01 00 00 00       	mov    $0x1,%esi
    34800607:	48 89 df             	mov    %rbx,%rdi
    3480060a:	ff 50 08             	callq  *0x8(%rax)
    3480060d:	b8 a0 09 80 34       	mov    $0x348009a0,%eax
    34800612:	49 89 dc             	mov    %rbx,%r12
    34800615:	48 8b 5c 24 30       	mov    0x30(%rsp),%rbx
    3480061a:	48 89 43 08          	mov    %rax,0x8(%rbx)
    3480061e:	49 8d 44 24 08       	lea    0x8(%r12),%rax
    34800623:	c7 44 24 0c 01 00 00 	movl   $0x1,0xc(%rsp)
    3480062a:	00 
    3480062b:	e9 3f 01 00 00       	jmpq   3480076f <start_input_ppm+0x38f>
    34800630:	48 8d 43 38          	lea    0x38(%rbx),%rax
    34800634:	48 89 44 24 18       	mov    %rax,0x18(%rsp)
    34800639:	48 b8 01 00 00 00 01 	movabs $0x100000001,%rax
    34800640:	00 00 00 
    34800643:	48 89 43 38          	mov    %rax,0x38(%rbx)
    34800647:	48 8b 03             	mov    (%rbx),%rax
    3480064a:	c7 40 28 05 04 00 00 	movl   $0x405,0x28(%rax)
    34800651:	8b 4c 24 10          	mov    0x10(%rsp),%ecx
    34800655:	89 48 2c             	mov    %ecx,0x2c(%rax)
    34800658:	89 50 30             	mov    %edx,0x30(%rax)
    3480065b:	be 01 00 00 00       	mov    $0x1,%esi
    34800660:	48 89 df             	mov    %rbx,%rdi
    34800663:	ff 50 08             	callq  *0x8(%rax)
    34800666:	41 81 fc 00 01 00 00 	cmp    $0x100,%r12d
    3480066d:	0f 82 52 00 00 00    	jb     348006c5 <start_input_ppm+0x2e5>
    34800673:	c7 44 24 0c 01 00 00 	movl   $0x1,0xc(%rsp)
    3480067a:	00 
    3480067b:	49 89 dc             	mov    %rbx,%r12
    3480067e:	48 8b 5c 24 30       	mov    0x30(%rsp),%rbx
    34800683:	48 c7 43 08 b0 0a 80 	movq   $0x34800ab0,0x8(%rbx)
    3480068a:	34 
    3480068b:	b0 01                	mov    $0x1,%al
    3480068d:	89 44 24 14          	mov    %eax,0x14(%rsp)
    34800691:	e9 88 00 00 00       	jmpq   3480071e <start_input_ppm+0x33e>
    34800696:	41 81 fc ff 00 00 00 	cmp    $0xff,%r12d
    3480069d:	0f 85 5b 00 00 00    	jne    348006fe <start_input_ppm+0x31e>
    348006a3:	48 8b 5c 24 30       	mov    0x30(%rsp),%rbx
    348006a8:	48 c7 43 08 a0 0b 80 	movq   $0x34800ba0,0x8(%rbx)
    348006af:	34 
    348006b0:	c7 44 24 14 00 00 00 	movl   $0x0,0x14(%rsp)
    348006b7:	00 
    348006b8:	c7 44 24 0c 00 00 00 	movl   $0x0,0xc(%rsp)
    348006bf:	00 
    348006c0:	e9 54 00 00 00       	jmpq   34800719 <start_input_ppm+0x339>
    348006c5:	41 81 fc ff 00 00 00 	cmp    $0xff,%r12d
    348006cc:	48 8b 5c 24 30       	mov    0x30(%rsp),%rbx
    348006d1:	48 8b 4c 24 18       	mov    0x18(%rsp),%rcx
    348006d6:	0f 85 b9 01 00 00    	jne    34800895 <start_input_ppm+0x4b5>
    348006dc:	48 c7 43 08 a0 0b 80 	movq   $0x34800ba0,0x8(%rbx)
    348006e3:	34 
    348006e4:	c7 44 24 14 00 00 00 	movl   $0x0,0x14(%rsp)
    348006eb:	00 
    348006ec:	c7 44 24 0c 00 00 00 	movl   $0x0,0xc(%rsp)
    348006f3:	00 
    348006f4:	4c 8b 64 24 28       	mov    0x28(%rsp),%r12
    348006f9:	e9 25 00 00 00       	jmpq   34800723 <start_input_ppm+0x343>
    348006fe:	48 8b 5c 24 30       	mov    0x30(%rsp),%rbx
    34800703:	48 c7 43 08 a0 0d 80 	movq   $0x34800da0,0x8(%rbx)
    3480070a:	34 
    3480070b:	c7 44 24 0c 01 00 00 	movl   $0x1,0xc(%rsp)
    34800712:	00 
    34800713:	b0 01                	mov    $0x1,%al
    34800715:	89 44 24 14          	mov    %eax,0x14(%rsp)
    34800719:	4c 8b 64 24 28       	mov    0x28(%rsp),%r12
    3480071e:	48 8b 4c 24 18       	mov    0x18(%rsp),%rcx
    34800723:	8b 44 24 10          	mov    0x10(%rsp),%eax
    34800727:	48 89 4c 24 18       	mov    %rcx,0x18(%rsp)
    3480072c:	48 63 11             	movslq (%rcx),%rdx
    3480072f:	81 7c 24 24 00 01 00 	cmpl   $0x100,0x24(%rsp)
    34800736:	00 
    34800737:	b9 02 00 00 00       	mov    $0x2,%ecx
    3480073c:	48 83 d9 00          	sbb    $0x0,%rcx
    34800740:	48 0f af d0          	imul   %rax,%rdx
    34800744:	48 0f af d1          	imul   %rcx,%rdx
    34800748:	48 89 53 40          	mov    %rdx,0x40(%rbx)
    3480074c:	49 8b 44 24 08       	mov    0x8(%r12),%rax
    34800751:	be 01 00 00 00       	mov    $0x1,%esi
    34800756:	4c 89 e7             	mov    %r12,%rdi
    34800759:	ff 10                	callq  *(%rax)
    3480075b:	48 89 43 30          	mov    %rax,0x30(%rbx)
    3480075f:	80 7c 24 14 00       	cmpb   $0x0,0x14(%rsp)
    34800764:	0f 84 32 00 00 00    	je     3480079c <start_input_ppm+0x3bc>
    3480076a:	49 8d 44 24 08       	lea    0x8(%r12),%rax
    3480076f:	48 8b 00             	mov    (%rax),%rax
    34800772:	48 8b 4c 24 18       	mov    0x18(%rsp),%rcx
    34800777:	8b 11                	mov    (%rcx),%edx
    34800779:	0f af 54 24 10       	imul   0x10(%rsp),%edx
    3480077e:	be 01 00 00 00       	mov    $0x1,%esi
    34800783:	b9 01 00 00 00       	mov    $0x1,%ecx
    34800788:	4c 89 64 24 28       	mov    %r12,0x28(%rsp)
    3480078d:	4c 89 e7             	mov    %r12,%rdi
    34800790:	ff 50 10             	callq  *0x10(%rax)
    34800793:	48 89 43 20          	mov    %rax,0x20(%rbx)
    34800797:	e9 11 00 00 00       	jmpq   348007ad <start_input_ppm+0x3cd>
    3480079c:	4c 89 64 24 28       	mov    %r12,0x28(%rsp)
    348007a1:	48 8d 4b 38          	lea    0x38(%rbx),%rcx
    348007a5:	48 89 43 38          	mov    %rax,0x38(%rbx)
    348007a9:	48 89 4b 20          	mov    %rcx,0x20(%rbx)
    348007ad:	8b 44 24 0c          	mov    0xc(%rsp),%eax
    348007b1:	c7 43 28 01 00 00 00 	movl   $0x1,0x28(%rbx)
    348007b8:	85 c0                	test   %eax,%eax
    348007ba:	0f 84 cd 00 00 00    	je     3480088d <start_input_ppm+0x4ad>
    348007c0:	48 8b 7c 24 28       	mov    0x28(%rsp),%rdi
    348007c5:	48 8b 47 08          	mov    0x8(%rdi),%rax
    348007c9:	44 8b 64 24 24       	mov    0x24(%rsp),%r12d
    348007ce:	49 8d 54 24 01       	lea    0x1(%r12),%rdx
    348007d3:	be 01 00 00 00       	mov    $0x1,%esi
    348007d8:	ff 10                	callq  *(%rax)
    348007da:	48 89 c6             	mov    %rax,%rsi
    348007dd:	48 89 73 48          	mov    %rsi,0x48(%rbx)
    348007e1:	8b 4c 24 24          	mov    0x24(%rsp),%ecx
    348007e5:	41 89 c9             	mov    %ecx,%r9d
    348007e8:	41 d1 e9             	shr    %r9d
    348007eb:	31 d2                	xor    %edx,%edx
    348007ed:	44 89 c8             	mov    %r9d,%eax
    348007f0:	f7 f1                	div    %ecx
    348007f2:	88 06                	mov    %al,(%rsi)
    348007f4:	85 c9                	test   %ecx,%ecx
    348007f6:	0f 84 91 00 00 00    	je     3480088d <start_input_ppm+0x4ad>
    348007fc:	45 89 e0             	mov    %r12d,%r8d
    348007ff:	41 83 e0 01          	and    $0x1,%r8d
    34800803:	83 7c 24 24 01       	cmpl   $0x1,0x24(%rsp)
    34800808:	0f 85 13 00 00 00    	jne    34800821 <start_input_ppm+0x441>
    3480080e:	bf 01 00 00 00       	mov    $0x1,%edi
    34800813:	4d 85 c0             	test   %r8,%r8
    34800816:	0f 85 58 00 00 00    	jne    34800874 <start_input_ppm+0x494>
    3480081c:	e9 6c 00 00 00       	jmpq   3480088d <start_input_ppm+0x4ad>
    34800821:	4d 89 e2             	mov    %r12,%r10
    34800824:	4d 29 c2             	sub    %r8,%r10
    34800827:	49 8d b1 fe 01 00 00 	lea    0x1fe(%r9),%rsi
    3480082e:	31 ff                	xor    %edi,%edi
    34800830:	48 8b 4b 48          	mov    0x48(%rbx),%rcx
    34800834:	48 8d 86 01 ff ff ff 	lea    -0xff(%rsi),%rax
    3480083b:	31 d2                	xor    %edx,%edx
    3480083d:	49 f7 f4             	div    %r12
    34800840:	88 44 39 01          	mov    %al,0x1(%rcx,%rdi,1)
    34800844:	48 8b 4b 48          	mov    0x48(%rbx),%rcx
    34800848:	31 d2                	xor    %edx,%edx
    3480084a:	48 89 f0             	mov    %rsi,%rax
    3480084d:	49 f7 f4             	div    %r12
    34800850:	88 44 39 02          	mov    %al,0x2(%rcx,%rdi,1)
    34800854:	48 83 c7 02          	add    $0x2,%rdi
    34800858:	48 81 c6 fe 01 00 00 	add    $0x1fe,%rsi
    3480085f:	49 39 fa             	cmp    %rdi,%r10
    34800862:	0f 85 c8 ff ff ff    	jne    34800830 <start_input_ppm+0x450>
    34800868:	48 ff c7             	inc    %rdi
    3480086b:	4d 85 c0             	test   %r8,%r8
    3480086e:	0f 84 19 00 00 00    	je     3480088d <start_input_ppm+0x4ad>
    34800874:	48 8b 4b 48          	mov    0x48(%rbx),%rcx
    34800878:	48 89 f8             	mov    %rdi,%rax
    3480087b:	48 c1 e0 08          	shl    $0x8,%rax
    3480087f:	48 29 f8             	sub    %rdi,%rax
    34800882:	4c 01 c8             	add    %r9,%rax
    34800885:	31 d2                	xor    %edx,%edx
    34800887:	49 f7 f4             	div    %r12
    3480088a:	88 04 39             	mov    %al,(%rcx,%rdi,1)
    3480088d:	48 83 c4 38          	add    $0x38,%rsp
    34800891:	5b                   	pop    %rbx
    34800892:	41 5c                	pop    %r12
    34800894:	c3                   	retq   
    34800895:	48 c7 43 08 f0 0b 80 	movq   $0x34800bf0,0x8(%rbx)
    3480089c:	34 
    3480089d:	c7 44 24 0c 01 00 00 	movl   $0x1,0xc(%rsp)
    348008a4:	00 
    348008a5:	b0 01                	mov    $0x1,%al
    348008a7:	89 44 24 14          	mov    %eax,0x14(%rsp)
    348008ab:	4c 8b 64 24 28       	mov    0x28(%rsp),%r12
    348008b0:	e9 6e fe ff ff       	jmpq   34800723 <start_input_ppm+0x343>
    348008b5:	66 66 2e 0f 1f 84 00 	data32 nopw %cs:0x0(%rax,%rax,1)
    348008bc:	00 00 00 00 

00000000348008c0 <finish_input_ppm>:
    348008c0:	c3                   	retq   
    348008c1:	66 66 66 66 66 66 2e 	data32 data32 data32 data32 data32 nopw %cs:0x0(%rax,%rax,1)
    348008c8:	0f 1f 84 00 00 00 00 
    348008cf:	00 

00000000348008d0 <read_pbm_integer>:
    348008d0:	41 54                	push   %r12
    348008d2:	53                   	push   %rbx
    348008d3:	50                   	push   %rax
    348008d4:	48 89 34 24          	mov    %rsi,(%rsp)
    348008d8:	0f 1f 84 00 00 00 00 	nopl   0x0(%rax,%rax,1)
    348008df:	00 
    348008e0:	49 89 fc             	mov    %rdi,%r12
    348008e3:	48 8b 3c 24          	mov    (%rsp),%rdi
    348008e7:	e8 d4 05 00 00       	callq  34800ec0 <pbm_getc>
    348008ec:	4c 89 e7             	mov    %r12,%rdi
    348008ef:	89 c3                	mov    %eax,%ebx
    348008f1:	8d 43 01             	lea    0x1(%rbx),%eax
    348008f4:	83 f8 21             	cmp    $0x21,%eax
    348008f7:	0f 87 3d 00 00 00    	ja     3480093a <read_pbm_integer+0x6a>
    348008fd:	48 b9 00 4c 00 00 02 	movabs $0x200004c00,%rcx
    34800904:	00 00 00 
    34800907:	48 0f a3 c1          	bt     %rax,%rcx
    3480090b:	0f 82 cf ff ff ff    	jb     348008e0 <read_pbm_integer+0x10>
    34800911:	48 85 c0             	test   %rax,%rax
    34800914:	0f 85 20 00 00 00    	jne    3480093a <read_pbm_integer+0x6a>
    3480091a:	48 8b 07             	mov    (%rdi),%rax
    3480091d:	c7 40 28 2c 00 00 00 	movl   $0x2c,0x28(%rax)
    34800924:	4c 89 e7             	mov    %r12,%rdi
    34800927:	ff 10                	callq  *(%rax)
    34800929:	4c 89 e7             	mov    %r12,%rdi
    3480092c:	bb cf ff ff ff       	mov    $0xffffffcf,%ebx
    34800931:	4c 8b 24 24          	mov    (%rsp),%r12
    34800935:	e9 10 00 00 00       	jmpq   3480094a <read_pbm_integer+0x7a>
    3480093a:	83 c3 d0             	add    $0xffffffd0,%ebx
    3480093d:	83 fb 0a             	cmp    $0xa,%ebx
    34800940:	4c 8b 24 24          	mov    (%rsp),%r12
    34800944:	0f 82 0c 00 00 00    	jb     34800956 <read_pbm_integer+0x86>
    3480094a:	48 8b 07             	mov    (%rdi),%rax
    3480094d:	c7 40 28 03 04 00 00 	movl   $0x403,0x28(%rax)
    34800954:	ff 10                	callq  *(%rax)
    34800956:	4c 89 e7             	mov    %r12,%rdi
    34800959:	e8 62 05 00 00       	callq  34800ec0 <pbm_getc>
    3480095e:	83 c0 d0             	add    $0xffffffd0,%eax
    34800961:	83 f8 09             	cmp    $0x9,%eax
    34800964:	0f 87 20 00 00 00    	ja     3480098a <read_pbm_integer+0xba>
    3480096a:	66 0f 1f 44 00 00    	nopw   0x0(%rax,%rax,1)
    34800970:	8d 0c 9b             	lea    (%rbx,%rbx,4),%ecx
    34800973:	8d 1c 48             	lea    (%rax,%rcx,2),%ebx
    34800976:	4c 89 e7             	mov    %r12,%rdi
    34800979:	e8 42 05 00 00       	callq  34800ec0 <pbm_getc>
    3480097e:	83 c0 d0             	add    $0xffffffd0,%eax
    34800981:	83 f8 0a             	cmp    $0xa,%eax
    34800984:	0f 82 e6 ff ff ff    	jb     34800970 <read_pbm_integer+0xa0>
    3480098a:	89 d8                	mov    %ebx,%eax
    3480098c:	48 83 c4 08          	add    $0x8,%rsp
    34800990:	5b                   	pop    %rbx
    34800991:	41 5c                	pop    %r12
    34800993:	c3                   	retq   
    34800994:	66 66 66 2e 0f 1f 84 	data32 data32 nopw %cs:0x0(%rax,%rax,1)
    3480099b:	00 00 00 00 00 

00000000348009a0 <get_text_gray_row>:
    348009a0:	41 54                	push   %r12
    348009a2:	53                   	push   %rbx
    348009a3:	48 83 ec 18          	sub    $0x18,%rsp
    348009a7:	49 89 fc             	mov    %rdi,%r12
    348009aa:	41 8b 4c 24 30       	mov    0x30(%r12),%ecx
    348009af:	85 c9                	test   %ecx,%ecx
    348009b1:	0f 84 46 00 00 00    	je     348009fd <get_text_gray_row+0x5d>
    348009b7:	48 8b 46 18          	mov    0x18(%rsi),%rax
    348009bb:	48 89 44 24 10       	mov    %rax,0x10(%rsp)
    348009c0:	48 8b 46 48          	mov    0x48(%rsi),%rax
    348009c4:	48 89 44 24 08       	mov    %rax,0x8(%rsp)
    348009c9:	48 8b 46 20          	mov    0x20(%rsi),%rax
    348009cd:	48 8b 18             	mov    (%rax),%rbx
    348009d0:	89 4c 24 04          	mov    %ecx,0x4(%rsp)
    348009d4:	4c 89 e7             	mov    %r12,%rdi
    348009d7:	48 8b 74 24 10       	mov    0x10(%rsp),%rsi
    348009dc:	e8 ef fe ff ff       	callq  348008d0 <read_pbm_integer>
    348009e1:	8b 4c 24 04          	mov    0x4(%rsp),%ecx
    348009e5:	89 c0                	mov    %eax,%eax
    348009e7:	48 8b 54 24 08       	mov    0x8(%rsp),%rdx
    348009ec:	0f b6 04 02          	movzbl (%rdx,%rax,1),%eax
    348009f0:	88 03                	mov    %al,(%rbx)
    348009f2:	48 ff c3             	inc    %rbx
    348009f5:	ff c9                	dec    %ecx
    348009f7:	0f 85 d3 ff ff ff    	jne    348009d0 <get_text_gray_row+0x30>
    348009fd:	b8 01 00 00 00       	mov    $0x1,%eax
    34800a02:	48 83 c4 18          	add    $0x18,%rsp
    34800a06:	5b                   	pop    %rbx
    34800a07:	41 5c                	pop    %r12
    34800a09:	c3                   	retq   
    34800a0a:	66 0f 1f 44 00 00    	nopw   0x0(%rax,%rax,1)

0000000034800a10 <get_text_rgb_row>:
    34800a10:	41 54                	push   %r12
    34800a12:	53                   	push   %rbx
    34800a13:	48 83 ec 18          	sub    $0x18,%rsp
    34800a17:	49 89 fc             	mov    %rdi,%r12
    34800a1a:	41 8b 4c 24 30       	mov    0x30(%r12),%ecx
    34800a1f:	85 c9                	test   %ecx,%ecx
    34800a21:	0f 84 7a 00 00 00    	je     34800aa1 <get_text_rgb_row+0x91>
    34800a27:	48 8b 46 18          	mov    0x18(%rsi),%rax
    34800a2b:	48 89 44 24 08       	mov    %rax,0x8(%rsp)
    34800a30:	48 8b 46 48          	mov    0x48(%rsi),%rax
    34800a34:	48 89 04 24          	mov    %rax,(%rsp)
    34800a38:	48 8b 46 20          	mov    0x20(%rsi),%rax
    34800a3c:	48 8b 18             	mov    (%rax),%rbx
    34800a3f:	90                   	nop
    34800a40:	89 4c 24 14          	mov    %ecx,0x14(%rsp)
    34800a44:	4c 89 e7             	mov    %r12,%rdi
    34800a47:	48 8b 74 24 08       	mov    0x8(%rsp),%rsi
    34800a4c:	e8 7f fe ff ff       	callq  348008d0 <read_pbm_integer>
    34800a51:	89 c0                	mov    %eax,%eax
    34800a53:	48 8b 0c 24          	mov    (%rsp),%rcx
    34800a57:	0f b6 04 01          	movzbl (%rcx,%rax,1),%eax
    34800a5b:	88 03                	mov    %al,(%rbx)
    34800a5d:	4c 89 e7             	mov    %r12,%rdi
    34800a60:	48 8b 74 24 08       	mov    0x8(%rsp),%rsi
    34800a65:	e8 66 fe ff ff       	callq  348008d0 <read_pbm_integer>
    34800a6a:	89 c0                	mov    %eax,%eax
    34800a6c:	48 8b 0c 24          	mov    (%rsp),%rcx
    34800a70:	0f b6 04 01          	movzbl (%rcx,%rax,1),%eax
    34800a74:	88 43 01             	mov    %al,0x1(%rbx)
    34800a77:	4c 89 e7             	mov    %r12,%rdi
    34800a7a:	48 8b 74 24 08       	mov    0x8(%rsp),%rsi
    34800a7f:	e8 4c fe ff ff       	callq  348008d0 <read_pbm_integer>
    34800a84:	8b 4c 24 14          	mov    0x14(%rsp),%ecx
    34800a88:	89 c0                	mov    %eax,%eax
    34800a8a:	48 8b 14 24          	mov    (%rsp),%rdx
    34800a8e:	0f b6 04 02          	movzbl (%rdx,%rax,1),%eax
    34800a92:	88 43 02             	mov    %al,0x2(%rbx)
    34800a95:	48 83 c3 03          	add    $0x3,%rbx
    34800a99:	ff c9                	dec    %ecx
    34800a9b:	0f 85 9f ff ff ff    	jne    34800a40 <get_text_rgb_row+0x30>
    34800aa1:	b8 01 00 00 00       	mov    $0x1,%eax
    34800aa6:	48 83 c4 18          	add    $0x18,%rsp
    34800aaa:	5b                   	pop    %rbx
    34800aab:	41 5c                	pop    %r12
    34800aad:	c3                   	retq   
    34800aae:	66 90                	xchg   %ax,%ax

0000000034800ab0 <get_word_gray_row>:
    34800ab0:	41 54                	push   %r12
    34800ab2:	53                   	push   %rbx
    34800ab3:	50                   	push   %rax
    34800ab4:	48 89 f3             	mov    %rsi,%rbx
    34800ab7:	48 89 3c 24          	mov    %rdi,(%rsp)
    34800abb:	4c 8b 63 48          	mov    0x48(%rbx),%r12
    34800abf:	48 8b 4b 18          	mov    0x18(%rbx),%rcx
    34800ac3:	48 8b 7b 30          	mov    0x30(%rbx),%rdi
    34800ac7:	48 8b 53 40          	mov    0x40(%rbx),%rdx
    34800acb:	be 01 00 00 00       	mov    $0x1,%esi
    34800ad0:	e8 7b e8 01 00       	callq  3481f350 <fread>
    34800ad5:	48 3b 43 40          	cmp    0x40(%rbx),%rax
    34800ad9:	0f 84 10 00 00 00    	je     34800aef <get_word_gray_row+0x3f>
    34800adf:	48 8b 3c 24          	mov    (%rsp),%rdi
    34800ae3:	48 8b 07             	mov    (%rdi),%rax
    34800ae6:	c7 40 28 2c 00 00 00 	movl   $0x2c,0x28(%rax)
    34800aed:	ff 10                	callq  *(%rax)
    34800aef:	48 8b 04 24          	mov    (%rsp),%rax
    34800af3:	8b 70 30             	mov    0x30(%rax),%esi
    34800af6:	85 f6                	test   %esi,%esi
    34800af8:	0f 84 8f 00 00 00    	je     34800b8d <get_word_gray_row+0xdd>
    34800afe:	48 8b 4b 20          	mov    0x20(%rbx),%rcx
    34800b02:	48 8b 43 30          	mov    0x30(%rbx),%rax
    34800b06:	48 8b 09             	mov    (%rcx),%rcx
    34800b09:	40 f6 c6 01          	test   $0x1,%sil
    34800b0d:	0f 85 10 00 00 00    	jne    34800b23 <get_word_gray_row+0x73>
    34800b13:	89 f2                	mov    %esi,%edx
    34800b15:	83 fe 01             	cmp    $0x1,%esi
    34800b18:	0f 85 32 00 00 00    	jne    34800b50 <get_word_gray_row+0xa0>
    34800b1e:	e9 6a 00 00 00       	jmpq   34800b8d <get_word_gray_row+0xdd>
    34800b23:	0f b6 10             	movzbl (%rax),%edx
    34800b26:	48 c1 e2 08          	shl    $0x8,%rdx
    34800b2a:	0f b6 78 01          	movzbl 0x1(%rax),%edi
    34800b2e:	48 83 c0 02          	add    $0x2,%rax
    34800b32:	48 09 d7             	or     %rdx,%rdi
    34800b35:	41 8a 14 3c          	mov    (%r12,%rdi,1),%dl
    34800b39:	88 11                	mov    %dl,(%rcx)
    34800b3b:	48 ff c1             	inc    %rcx
    34800b3e:	8d 56 ff             	lea    -0x1(%rsi),%edx
    34800b41:	83 fe 01             	cmp    $0x1,%esi
    34800b44:	0f 84 43 00 00 00    	je     34800b8d <get_word_gray_row+0xdd>
    34800b4a:	66 0f 1f 44 00 00    	nopw   0x0(%rax,%rax,1)
    34800b50:	0f b6 30             	movzbl (%rax),%esi
    34800b53:	48 c1 e6 08          	shl    $0x8,%rsi
    34800b57:	0f b6 78 01          	movzbl 0x1(%rax),%edi
    34800b5b:	48 09 f7             	or     %rsi,%rdi
    34800b5e:	41 0f b6 1c 3c       	movzbl (%r12,%rdi,1),%ebx
    34800b63:	88 19                	mov    %bl,(%rcx)
    34800b65:	0f b6 70 02          	movzbl 0x2(%rax),%esi
    34800b69:	48 c1 e6 08          	shl    $0x8,%rsi
    34800b6d:	0f b6 78 03          	movzbl 0x3(%rax),%edi
    34800b71:	48 09 f7             	or     %rsi,%rdi
    34800b74:	41 0f b6 1c 3c       	movzbl (%r12,%rdi,1),%ebx
    34800b79:	88 59 01             	mov    %bl,0x1(%rcx)
    34800b7c:	48 83 c0 04          	add    $0x4,%rax
    34800b80:	48 83 c1 02          	add    $0x2,%rcx
    34800b84:	83 c2 fe             	add    $0xfffffffe,%edx
    34800b87:	0f 85 c3 ff ff ff    	jne    34800b50 <get_word_gray_row+0xa0>
    34800b8d:	b8 01 00 00 00       	mov    $0x1,%eax
    34800b92:	48 83 c4 08          	add    $0x8,%rsp
    34800b96:	5b                   	pop    %rbx
    34800b97:	41 5c                	pop    %r12
    34800b99:	c3                   	retq   
    34800b9a:	66 0f 1f 44 00 00    	nopw   0x0(%rax,%rax,1)

0000000034800ba0 <get_raw_row>:
    34800ba0:	41 54                	push   %r12
    34800ba2:	53                   	push   %rbx
    34800ba3:	50                   	push   %rax
    34800ba4:	48 89 f3             	mov    %rsi,%rbx
    34800ba7:	49 89 fc             	mov    %rdi,%r12
    34800baa:	48 8b 4b 18          	mov    0x18(%rbx),%rcx
    34800bae:	48 8b 7b 30          	mov    0x30(%rbx),%rdi
    34800bb2:	48 8b 53 40          	mov    0x40(%rbx),%rdx
    34800bb6:	be 01 00 00 00       	mov    $0x1,%esi
    34800bbb:	e8 90 e7 01 00       	callq  3481f350 <fread>
    34800bc0:	48 3b 43 40          	cmp    0x40(%rbx),%rax
    34800bc4:	0f 84 10 00 00 00    	je     34800bda <get_raw_row+0x3a>
    34800bca:	49 8b 04 24          	mov    (%r12),%rax
    34800bce:	c7 40 28 2c 00 00 00 	movl   $0x2c,0x28(%rax)
    34800bd5:	4c 89 e7             	mov    %r12,%rdi
    34800bd8:	ff 10                	callq  *(%rax)
    34800bda:	b8 01 00 00 00       	mov    $0x1,%eax
    34800bdf:	48 83 c4 08          	add    $0x8,%rsp
    34800be3:	5b                   	pop    %rbx
    34800be4:	41 5c                	pop    %r12
    34800be6:	c3                   	retq   
    34800be7:	66 0f 1f 84 00 00 00 	nopw   0x0(%rax,%rax,1)
    34800bee:	00 00 

0000000034800bf0 <get_scaled_gray_row>:
    34800bf0:	41 54                	push   %r12
    34800bf2:	53                   	push   %rbx
    34800bf3:	50                   	push   %rax
    34800bf4:	48 89 f3             	mov    %rsi,%rbx
    34800bf7:	48 89 3c 24          	mov    %rdi,(%rsp)
    34800bfb:	4c 8b 63 48          	mov    0x48(%rbx),%r12
    34800bff:	48 8b 4b 18          	mov    0x18(%rbx),%rcx
    34800c03:	48 8b 7b 30          	mov    0x30(%rbx),%rdi
    34800c07:	48 8b 53 40          	mov    0x40(%rbx),%rdx
    34800c0b:	be 01 00 00 00       	mov    $0x1,%esi
    34800c10:	e8 3b e7 01 00       	callq  3481f350 <fread>
    34800c15:	48 3b 43 40          	cmp    0x40(%rbx),%rax
    34800c19:	0f 84 10 00 00 00    	je     34800c2f <get_scaled_gray_row+0x3f>
    34800c1f:	48 8b 3c 24          	mov    (%rsp),%rdi
    34800c23:	48 8b 07             	mov    (%rdi),%rax
    34800c26:	c7 40 28 2c 00 00 00 	movl   $0x2c,0x28(%rax)
    34800c2d:	ff 10                	callq  *(%rax)
    34800c2f:	48 8b 04 24          	mov    (%rsp),%rax
    34800c33:	8b 40 30             	mov    0x30(%rax),%eax
    34800c36:	85 c0                	test   %eax,%eax
    34800c38:	0f 84 91 00 00 00    	je     34800ccf <get_scaled_gray_row+0xdf>
    34800c3e:	48 8b 53 20          	mov    0x20(%rbx),%rdx
    34800c42:	48 8b 4b 30          	mov    0x30(%rbx),%rcx
    34800c46:	48 8b 12             	mov    (%rdx),%rdx
    34800c49:	8d 70 ff             	lea    -0x1(%rax),%esi
    34800c4c:	89 c7                	mov    %eax,%edi
    34800c4e:	83 e7 03             	and    $0x3,%edi
    34800c51:	0f 84 23 00 00 00    	je     34800c7a <get_scaled_gray_row+0x8a>
    34800c57:	f7 df                	neg    %edi
    34800c59:	0f 1f 80 00 00 00 00 	nopl   0x0(%rax)
    34800c60:	0f b6 19             	movzbl (%rcx),%ebx
    34800c63:	48 ff c1             	inc    %rcx
    34800c66:	41 0f b6 1c 1c       	movzbl (%r12,%rbx,1),%ebx
    34800c6b:	88 1a                	mov    %bl,(%rdx)
    34800c6d:	48 ff c2             	inc    %rdx
    34800c70:	ff c8                	dec    %eax
    34800c72:	ff c7                	inc    %edi
    34800c74:	0f 85 e6 ff ff ff    	jne    34800c60 <get_scaled_gray_row+0x70>
    34800c7a:	83 fe 03             	cmp    $0x3,%esi
    34800c7d:	0f 82 4c 00 00 00    	jb     34800ccf <get_scaled_gray_row+0xdf>
    34800c83:	66 66 66 66 2e 0f 1f 	data32 data32 data32 nopw %cs:0x0(%rax,%rax,1)
    34800c8a:	84 00 00 00 00 00 
    34800c90:	0f b6 31             	movzbl (%rcx),%esi
    34800c93:	41 0f b6 1c 34       	movzbl (%r12,%rsi,1),%ebx
    34800c98:	88 1a                	mov    %bl,(%rdx)
    34800c9a:	0f b6 71 01          	movzbl 0x1(%rcx),%esi
    34800c9e:	41 0f b6 1c 34       	movzbl (%r12,%rsi,1),%ebx
    34800ca3:	88 5a 01             	mov    %bl,0x1(%rdx)
    34800ca6:	0f b6 71 02          	movzbl 0x2(%rcx),%esi
    34800caa:	41 0f b6 1c 34       	movzbl (%r12,%rsi,1),%ebx
    34800caf:	88 5a 02             	mov    %bl,0x2(%rdx)
    34800cb2:	0f b6 71 03          	movzbl 0x3(%rcx),%esi
    34800cb6:	41 0f b6 1c 34       	movzbl (%r12,%rsi,1),%ebx
    34800cbb:	88 5a 03             	mov    %bl,0x3(%rdx)
    34800cbe:	48 83 c1 04          	add    $0x4,%rcx
    34800cc2:	48 83 c2 04          	add    $0x4,%rdx
    34800cc6:	83 c0 fc             	add    $0xfffffffc,%eax
    34800cc9:	0f 85 c1 ff ff ff    	jne    34800c90 <get_scaled_gray_row+0xa0>
    34800ccf:	b8 01 00 00 00       	mov    $0x1,%eax
    34800cd4:	48 83 c4 08          	add    $0x8,%rsp
    34800cd8:	5b                   	pop    %rbx
    34800cd9:	41 5c                	pop    %r12
    34800cdb:	c3                   	retq   
    34800cdc:	0f 1f 40 00          	nopl   0x0(%rax)

0000000034800ce0 <get_word_rgb_row>:
    34800ce0:	41 54                	push   %r12
    34800ce2:	53                   	push   %rbx
    34800ce3:	50                   	push   %rax
    34800ce4:	48 89 f3             	mov    %rsi,%rbx
    34800ce7:	48 89 3c 24          	mov    %rdi,(%rsp)
    34800ceb:	4c 8b 63 48          	mov    0x48(%rbx),%r12
    34800cef:	48 8b 4b 18          	mov    0x18(%rbx),%rcx
    34800cf3:	48 8b 7b 30          	mov    0x30(%rbx),%rdi
    34800cf7:	48 8b 53 40          	mov    0x40(%rbx),%rdx
    34800cfb:	be 01 00 00 00       	mov    $0x1,%esi
    34800d00:	e8 4b e6 01 00       	callq  3481f350 <fread>
    34800d05:	48 3b 43 40          	cmp    0x40(%rbx),%rax
    34800d09:	0f 84 10 00 00 00    	je     34800d1f <get_word_rgb_row+0x3f>
    34800d0f:	48 8b 3c 24          	mov    (%rsp),%rdi
    34800d13:	48 8b 07             	mov    (%rdi),%rax
    34800d16:	c7 40 28 2c 00 00 00 	movl   $0x2c,0x28(%rax)
    34800d1d:	ff 10                	callq  *(%rax)
    34800d1f:	48 8b 04 24          	mov    (%rsp),%rax
    34800d23:	8b 40 30             	mov    0x30(%rax),%eax
    34800d26:	85 c0                	test   %eax,%eax
    34800d28:	0f 84 65 00 00 00    	je     34800d93 <get_word_rgb_row+0xb3>
    34800d2e:	48 8b 53 20          	mov    0x20(%rbx),%rdx
    34800d32:	48 8b 4b 30          	mov    0x30(%rbx),%rcx
    34800d36:	48 8b 12             	mov    (%rdx),%rdx
    34800d39:	0f 1f 80 00 00 00 00 	nopl   0x0(%rax)
    34800d40:	0f b6 31             	movzbl (%rcx),%esi
    34800d43:	48 c1 e6 08          	shl    $0x8,%rsi
    34800d47:	0f b6 79 01          	movzbl 0x1(%rcx),%edi
    34800d4b:	48 09 f7             	or     %rsi,%rdi
    34800d4e:	41 0f b6 1c 3c       	movzbl (%r12,%rdi,1),%ebx
    34800d53:	88 1a                	mov    %bl,(%rdx)
    34800d55:	0f b6 71 02          	movzbl 0x2(%rcx),%esi
    34800d59:	48 c1 e6 08          	shl    $0x8,%rsi
    34800d5d:	0f b6 79 03          	movzbl 0x3(%rcx),%edi
    34800d61:	48 09 f7             	or     %rsi,%rdi
    34800d64:	41 0f b6 1c 3c       	movzbl (%r12,%rdi,1),%ebx
    34800d69:	88 5a 01             	mov    %bl,0x1(%rdx)
    34800d6c:	0f b6 71 04          	movzbl 0x4(%rcx),%esi
    34800d70:	48 c1 e6 08          	shl    $0x8,%rsi
    34800d74:	0f b6 79 05          	movzbl 0x5(%rcx),%edi
    34800d78:	48 09 f7             	or     %rsi,%rdi
    34800d7b:	41 0f b6 1c 3c       	movzbl (%r12,%rdi,1),%ebx
    34800d80:	88 5a 02             	mov    %bl,0x2(%rdx)
    34800d83:	48 83 c1 06          	add    $0x6,%rcx
    34800d87:	48 83 c2 03          	add    $0x3,%rdx
    34800d8b:	ff c8                	dec    %eax
    34800d8d:	0f 85 ad ff ff ff    	jne    34800d40 <get_word_rgb_row+0x60>
    34800d93:	b8 01 00 00 00       	mov    $0x1,%eax
    34800d98:	48 83 c4 08          	add    $0x8,%rsp
    34800d9c:	5b                   	pop    %rbx
    34800d9d:	41 5c                	pop    %r12
    34800d9f:	c3                   	retq   

0000000034800da0 <get_scaled_rgb_row>:
    34800da0:	41 54                	push   %r12
    34800da2:	53                   	push   %rbx
    34800da3:	50                   	push   %rax
    34800da4:	48 89 f3             	mov    %rsi,%rbx
    34800da7:	48 89 3c 24          	mov    %rdi,(%rsp)
    34800dab:	4c 8b 63 48          	mov    0x48(%rbx),%r12
    34800daf:	48 8b 4b 18          	mov    0x18(%rbx),%rcx
    34800db3:	48 8b 7b 30          	mov    0x30(%rbx),%rdi
    34800db7:	48 8b 53 40          	mov    0x40(%rbx),%rdx
    34800dbb:	be 01 00 00 00       	mov    $0x1,%esi
    34800dc0:	e8 8b e5 01 00       	callq  3481f350 <fread>
    34800dc5:	48 3b 43 40          	cmp    0x40(%rbx),%rax
    34800dc9:	0f 84 10 00 00 00    	je     34800ddf <get_scaled_rgb_row+0x3f>
    34800dcf:	48 8b 3c 24          	mov    (%rsp),%rdi
    34800dd3:	48 8b 07             	mov    (%rdi),%rax
    34800dd6:	c7 40 28 2c 00 00 00 	movl   $0x2c,0x28(%rax)
    34800ddd:	ff 10                	callq  *(%rax)
    34800ddf:	48 8b 04 24          	mov    (%rsp),%rax
    34800de3:	8b 70 30             	mov    0x30(%rax),%esi
    34800de6:	85 f6                	test   %esi,%esi
    34800de8:	0f 84 b9 00 00 00    	je     34800ea7 <get_scaled_rgb_row+0x107>
    34800dee:	48 8b 4b 20          	mov    0x20(%rbx),%rcx
    34800df2:	48 8b 43 30          	mov    0x30(%rbx),%rax
    34800df6:	48 8b 09             	mov    (%rcx),%rcx
    34800df9:	40 f6 c6 01          	test   $0x1,%sil
    34800dfd:	0f 85 10 00 00 00    	jne    34800e13 <get_scaled_rgb_row+0x73>
    34800e03:	89 f2                	mov    %esi,%edx
    34800e05:	83 fe 01             	cmp    $0x1,%esi
    34800e08:	0f 85 42 00 00 00    	jne    34800e50 <get_scaled_rgb_row+0xb0>
    34800e0e:	e9 94 00 00 00       	jmpq   34800ea7 <get_scaled_rgb_row+0x107>
    34800e13:	0f b6 10             	movzbl (%rax),%edx
    34800e16:	41 8a 14 14          	mov    (%r12,%rdx,1),%dl
    34800e1a:	88 11                	mov    %dl,(%rcx)
    34800e1c:	0f b6 50 01          	movzbl 0x1(%rax),%edx
    34800e20:	41 8a 14 14          	mov    (%r12,%rdx,1),%dl
    34800e24:	88 51 01             	mov    %dl,0x1(%rcx)
    34800e27:	0f b6 50 02          	movzbl 0x2(%rax),%edx
    34800e2b:	48 83 c0 03          	add    $0x3,%rax
    34800e2f:	41 8a 14 14          	mov    (%r12,%rdx,1),%dl
    34800e33:	88 51 02             	mov    %dl,0x2(%rcx)
    34800e36:	48 83 c1 03          	add    $0x3,%rcx
    34800e3a:	8d 56 ff             	lea    -0x1(%rsi),%edx
    34800e3d:	83 fe 01             	cmp    $0x1,%esi
    34800e40:	0f 84 61 00 00 00    	je     34800ea7 <get_scaled_rgb_row+0x107>
    34800e46:	66 2e 0f 1f 84 00 00 	nopw   %cs:0x0(%rax,%rax,1)
    34800e4d:	00 00 00 
    34800e50:	0f b6 30             	movzbl (%rax),%esi
    34800e53:	41 0f b6 1c 34       	movzbl (%r12,%rsi,1),%ebx
    34800e58:	88 19                	mov    %bl,(%rcx)
    34800e5a:	0f b6 70 01          	movzbl 0x1(%rax),%esi
    34800e5e:	41 0f b6 1c 34       	movzbl (%r12,%rsi,1),%ebx
    34800e63:	88 59 01             	mov    %bl,0x1(%rcx)
    34800e66:	0f b6 70 02          	movzbl 0x2(%rax),%esi
    34800e6a:	41 0f b6 1c 34       	movzbl (%r12,%rsi,1),%ebx
    34800e6f:	88 59 02             	mov    %bl,0x2(%rcx)
    34800e72:	0f b6 70 03          	movzbl 0x3(%rax),%esi
    34800e76:	41 0f b6 1c 34       	movzbl (%r12,%rsi,1),%ebx
    34800e7b:	88 59 03             	mov    %bl,0x3(%rcx)
    34800e7e:	0f b6 70 04          	movzbl 0x4(%rax),%esi
    34800e82:	41 0f b6 1c 34       	movzbl (%r12,%rsi,1),%ebx
    34800e87:	88 59 04             	mov    %bl,0x4(%rcx)
    34800e8a:	0f b6 70 05          	movzbl 0x5(%rax),%esi
    34800e8e:	41 0f b6 1c 34       	movzbl (%r12,%rsi,1),%ebx
    34800e93:	88 59 05             	mov    %bl,0x5(%rcx)
    34800e96:	48 83 c0 06          	add    $0x6,%rax
    34800e9a:	48 83 c1 06          	add    $0x6,%rcx
    34800e9e:	83 c2 fe             	add    $0xfffffffe,%edx
    34800ea1:	0f 85 a9 ff ff ff    	jne    34800e50 <get_scaled_rgb_row+0xb0>
    34800ea7:	b8 01 00 00 00       	mov    $0x1,%eax
    34800eac:	48 83 c4 08          	add    $0x8,%rsp
    34800eb0:	5b                   	pop    %rbx
    34800eb1:	41 5c                	pop    %r12
    34800eb3:	c3                   	retq   
    34800eb4:	66 66 66 2e 0f 1f 84 	data32 data32 nopw %cs:0x0(%rax,%rax,1)
    34800ebb:	00 00 00 00 00 

0000000034800ec0 <pbm_getc>:
    34800ec0:	53                   	push   %rbx
    34800ec1:	48 89 fb             	mov    %rdi,%rbx
    34800ec4:	e8 d7 e8 01 00       	callq  3481f7a0 <getc>
    34800ec9:	83 f8 23             	cmp    $0x23,%eax
    34800ecc:	0f 85 28 00 00 00    	jne    34800efa <pbm_getc+0x3a>
    34800ed2:	66 66 66 66 66 2e 0f 	data32 data32 data32 data32 nopw %cs:0x0(%rax,%rax,1)
    34800ed9:	1f 84 00 00 00 00 00 
    34800ee0:	48 89 df             	mov    %rbx,%rdi
    34800ee3:	e8 b8 e8 01 00       	callq  3481f7a0 <getc>
    34800ee8:	83 f8 0a             	cmp    $0xa,%eax
    34800eeb:	0f 84 09 00 00 00    	je     34800efa <pbm_getc+0x3a>
    34800ef1:	83 f8 ff             	cmp    $0xffffffff,%eax
    34800ef4:	0f 85 e6 ff ff ff    	jne    34800ee0 <pbm_getc+0x20>
    34800efa:	5b                   	pop    %rbx
    34800efb:	c3                   	retq   
    34800efc:	0f 1f 40 00          	nopl   0x0(%rax)

0000000034800f00 <jpeg_CreateCompress>:
    34800f00:	55                   	push   %rbp
    34800f01:	48 89 e5             	mov    %rsp,%rbp
    34800f04:	48 83 ec 40          	sub    $0x40,%rsp
    34800f08:	48 c7 47 08 00 00 00 	movq   $0x0,0x8(%rdi)
    34800f0f:	00 
    34800f10:	83 fe 5a             	cmp    $0x5a,%esi
    34800f13:	89 75 fc             	mov    %esi,-0x4(%rbp)
    34800f16:	48 89 7d f0          	mov    %rdi,-0x10(%rbp)
    34800f1a:	48 89 55 e8          	mov    %rdx,-0x18(%rbp)
    34800f1e:	0f 84 2c 00 00 00    	je     34800f50 <jpeg_CreateCompress+0x50>
    34800f24:	48 8b 45 f0          	mov    -0x10(%rbp),%rax
    34800f28:	48 8b 08             	mov    (%rax),%rcx
    34800f2b:	c7 41 28 0d 00 00 00 	movl   $0xd,0x28(%rcx)
    34800f32:	48 8b 08             	mov    (%rax),%rcx
    34800f35:	c7 41 2c 5a 00 00 00 	movl   $0x5a,0x2c(%rcx)
    34800f3c:	48 8b 08             	mov    (%rax),%rcx
    34800f3f:	8b 55 fc             	mov    -0x4(%rbp),%edx
    34800f42:	89 51 30             	mov    %edx,0x30(%rcx)
    34800f45:	48 8b 08             	mov    (%rax),%rcx
    34800f48:	48 8b 09             	mov    (%rcx),%rcx
    34800f4b:	48 89 c7             	mov    %rax,%rdi
    34800f4e:	ff d1                	callq  *%rcx
    34800f50:	48 8b 45 e8          	mov    -0x18(%rbp),%rax
    34800f54:	48 3d 48 02 00 00    	cmp    $0x248,%rax
    34800f5a:	0f 84 2f 00 00 00    	je     34800f8f <jpeg_CreateCompress+0x8f>
    34800f60:	48 8b 45 f0          	mov    -0x10(%rbp),%rax
    34800f64:	48 8b 08             	mov    (%rax),%rcx
    34800f67:	c7 41 28 16 00 00 00 	movl   $0x16,0x28(%rcx)
    34800f6e:	48 8b 08             	mov    (%rax),%rcx
    34800f71:	c7 41 2c 48 02 00 00 	movl   $0x248,0x2c(%rcx)
    34800f78:	48 8b 4d e8          	mov    -0x18(%rbp),%rcx
    34800f7c:	89 ca                	mov    %ecx,%edx
    34800f7e:	48 8b 30             	mov    (%rax),%rsi
    34800f81:	89 56 30             	mov    %edx,0x30(%rsi)
    34800f84:	48 8b 30             	mov    (%rax),%rsi
    34800f87:	48 8b 36             	mov    (%rsi),%rsi
    34800f8a:	48 89 c7             	mov    %rax,%rdi
    34800f8d:	ff d6                	callq  *%rsi
    34800f8f:	31 f6                	xor    %esi,%esi
    34800f91:	b8 40 02 00 00       	mov    $0x240,%eax
    34800f96:	89 c2                	mov    %eax,%edx
    34800f98:	48 8b 4d f0          	mov    -0x10(%rbp),%rcx
    34800f9c:	48 8b 39             	mov    (%rcx),%rdi
    34800f9f:	4c 8b 41 18          	mov    0x18(%rcx),%r8
    34800fa3:	48 83 c1 08          	add    $0x8,%rcx
    34800fa7:	48 89 7d e0          	mov    %rdi,-0x20(%rbp)
    34800fab:	48 89 cf             	mov    %rcx,%rdi
    34800fae:	4c 89 45 d8          	mov    %r8,-0x28(%rbp)
    34800fb2:	e8 c0 2c 02 00       	callq  34823c77 <memset>
    34800fb7:	48 8b 4d f0          	mov    -0x10(%rbp),%rcx
    34800fbb:	48 8b 55 e0          	mov    -0x20(%rbp),%rdx
    34800fbf:	48 89 11             	mov    %rdx,(%rcx)
    34800fc2:	48 8b 55 d8          	mov    -0x28(%rbp),%rdx
    34800fc6:	48 89 51 18          	mov    %rdx,0x18(%rcx)
    34800fca:	c7 41 20 00 00 00 00 	movl   $0x0,0x20(%rcx)
    34800fd1:	48 89 cf             	mov    %rcx,%rdi
    34800fd4:	e8 e7 88 00 00       	callq  348098c0 <jinit_memory_mgr>
    34800fd9:	31 c0                	xor    %eax,%eax
    34800fdb:	48 8b 4d f0          	mov    -0x10(%rbp),%rcx
    34800fdf:	48 c7 41 10 00 00 00 	movq   $0x0,0x10(%rcx)
    34800fe6:	00 
    34800fe7:	48 c7 41 28 00 00 00 	movq   $0x0,0x28(%rcx)
    34800fee:	00 
    34800fef:	48 c7 41 68 00 00 00 	movq   $0x0,0x68(%rcx)
    34800ff6:	00 
    34800ff7:	89 45 d4             	mov    %eax,-0x2c(%rbp)
    34800ffa:	8b 45 d4             	mov    -0x2c(%rbp),%eax
    34800ffd:	83 f8 04             	cmp    $0x4,%eax
    34801000:	89 45 d0             	mov    %eax,-0x30(%rbp)
    34801003:	0f 8d 29 00 00 00    	jge    34801032 <jpeg_CreateCompress+0x132>
    34801009:	8b 45 d0             	mov    -0x30(%rbp),%eax
    3480100c:	48 63 c8             	movslq %eax,%rcx
    3480100f:	48 8b 55 f0          	mov    -0x10(%rbp),%rdx
    34801013:	48 c7 44 ca 70 00 00 	movq   $0x0,0x70(%rdx,%rcx,8)
    3480101a:	00 00 
    3480101c:	c7 84 8a 90 00 00 00 	movl   $0x64,0x90(%rdx,%rcx,4)
    34801023:	64 00 00 00 
    34801027:	83 c0 01             	add    $0x1,%eax
    3480102a:	89 45 d4             	mov    %eax,-0x2c(%rbp)
    3480102d:	e9 c8 ff ff ff       	jmpq   34800ffa <jpeg_CreateCompress+0xfa>
    34801032:	31 c0                	xor    %eax,%eax
    34801034:	89 45 cc             	mov    %eax,-0x34(%rbp)
    34801037:	e9 00 00 00 00       	jmpq   3480103c <jpeg_CreateCompress+0x13c>
    3480103c:	8b 45 cc             	mov    -0x34(%rbp),%eax
    3480103f:	83 f8 04             	cmp    $0x4,%eax
    34801042:	89 45 c8             	mov    %eax,-0x38(%rbp)
    34801045:	0f 8d 2d 00 00 00    	jge    34801078 <jpeg_CreateCompress+0x178>
    3480104b:	8b 45 c8             	mov    -0x38(%rbp),%eax
    3480104e:	48 63 c8             	movslq %eax,%rcx
    34801051:	48 8b 55 f0          	mov    -0x10(%rbp),%rdx
    34801055:	48 c7 84 ca a0 00 00 	movq   $0x0,0xa0(%rdx,%rcx,8)
    3480105c:	00 00 00 00 00 
    34801061:	48 c7 84 ca c0 00 00 	movq   $0x0,0xc0(%rdx,%rcx,8)
    34801068:	00 00 00 00 00 
    3480106d:	83 c0 01             	add    $0x1,%eax
    34801070:	89 45 cc             	mov    %eax,-0x34(%rbp)
    34801073:	e9 c4 ff ff ff       	jmpq   3480103c <jpeg_CreateCompress+0x13c>
    34801078:	f2 0f 10 05 48 c9 02 	movsd  0x2c948(%rip),%xmm0        # 3482d9c8 <cdjpeg_message_table+0x168>
    3480107f:	00 
    34801080:	48 b8 f0 f3 82 34 00 	movabs $0x3482f3f0,%rax
    34801087:	00 00 00 
    3480108a:	48 8b 4d f0          	mov    -0x10(%rbp),%rcx
    3480108e:	c7 81 dc 01 00 00 08 	movl   $0x8,0x1dc(%rcx)
    34801095:	00 00 00 
    34801098:	48 89 81 e0 01 00 00 	mov    %rax,0x1e0(%rcx)
    3480109f:	c7 81 e8 01 00 00 3f 	movl   $0x3f,0x1e8(%rcx)
    348010a6:	00 00 00 
    348010a9:	48 c7 81 38 02 00 00 	movq   $0x0,0x238(%rcx)
    348010b0:	00 00 00 00 
    348010b4:	f2 0f 11 41 40       	movsd  %xmm0,0x40(%rcx)
    348010b9:	c7 41 24 64 00 00 00 	movl   $0x64,0x24(%rcx)
    348010c0:	48 83 c4 40          	add    $0x40,%rsp
    348010c4:	5d                   	pop    %rbp
    348010c5:	c3                   	retq   
    348010c6:	66 2e 0f 1f 84 00 00 	nopw   %cs:0x0(%rax,%rax,1)
    348010cd:	00 00 00 

00000000348010d0 <jpeg_destroy_compress>:
    348010d0:	55                   	push   %rbp
    348010d1:	48 89 e5             	mov    %rsp,%rbp
    348010d4:	e8 a7 47 00 00       	callq  34805880 <jpeg_destroy>
    348010d9:	5d                   	pop    %rbp
    348010da:	c3                   	retq   
    348010db:	0f 1f 44 00 00       	nopl   0x0(%rax,%rax,1)

00000000348010e0 <jpeg_abort_compress>:
    348010e0:	55                   	push   %rbp
    348010e1:	48 89 e5             	mov    %rsp,%rbp
    348010e4:	e8 f7 46 00 00       	callq  348057e0 <jpeg_abort>
    348010e9:	5d                   	pop    %rbp
    348010ea:	c3                   	retq   
    348010eb:	0f 1f 44 00 00       	nopl   0x0(%rax,%rax,1)

00000000348010f0 <jpeg_suppress_tables>:
    348010f0:	55                   	push   %rbp
    348010f1:	48 89 e5             	mov    %rsp,%rbp
    348010f4:	31 c0                	xor    %eax,%eax
    348010f6:	48 89 7d f8          	mov    %rdi,-0x8(%rbp)
    348010fa:	89 75 f4             	mov    %esi,-0xc(%rbp)
    348010fd:	89 45 f0             	mov    %eax,-0x10(%rbp)
    34801100:	e9 00 00 00 00       	jmpq   34801105 <jpeg_suppress_tables+0x15>
    34801105:	8b 45 f0             	mov    -0x10(%rbp),%eax
    34801108:	83 f8 04             	cmp    $0x4,%eax
    3480110b:	89 45 ec             	mov    %eax,-0x14(%rbp)
    3480110e:	0f 8d 38 00 00 00    	jge    3480114c <jpeg_suppress_tables+0x5c>
    34801114:	8b 45 ec             	mov    -0x14(%rbp),%eax
    34801117:	48 63 c8             	movslq %eax,%rcx
    3480111a:	48 8b 55 f8          	mov    -0x8(%rbp),%rdx
    3480111e:	48 8b 4c ca 70       	mov    0x70(%rdx,%rcx,8),%rcx
    34801123:	48 83 f9 00          	cmp    $0x0,%rcx
    34801127:	48 89 4d e0          	mov    %rcx,-0x20(%rbp)
    3480112b:	0f 84 0d 00 00 00    	je     3480113e <jpeg_suppress_tables+0x4e>
    34801131:	48 8b 45 e0          	mov    -0x20(%rbp),%rax
    34801135:	8b 4d f4             	mov    -0xc(%rbp),%ecx
    34801138:	89 88 80 00 00 00    	mov    %ecx,0x80(%rax)
    3480113e:	8b 45 ec             	mov    -0x14(%rbp),%eax
    34801141:	83 c0 01             	add    $0x1,%eax
    34801144:	89 45 f0             	mov    %eax,-0x10(%rbp)
    34801147:	e9 b9 ff ff ff       	jmpq   34801105 <jpeg_suppress_tables+0x15>
    3480114c:	31 c0                	xor    %eax,%eax
    3480114e:	89 45 dc             	mov    %eax,-0x24(%rbp)
    34801151:	e9 00 00 00 00       	jmpq   34801156 <jpeg_suppress_tables+0x66>
    34801156:	8b 45 dc             	mov    -0x24(%rbp),%eax
    34801159:	83 f8 04             	cmp    $0x4,%eax
    3480115c:	89 45 d8             	mov    %eax,-0x28(%rbp)
    3480115f:	0f 8d 6a 00 00 00    	jge    348011cf <jpeg_suppress_tables+0xdf>
    34801165:	8b 45 d8             	mov    -0x28(%rbp),%eax
    34801168:	48 63 c8             	movslq %eax,%rcx
    3480116b:	48 8b 55 f8          	mov    -0x8(%rbp),%rdx
    3480116f:	48 8b b4 ca a0 00 00 	mov    0xa0(%rdx,%rcx,8),%rsi
    34801176:	00 
    34801177:	48 83 fe 00          	cmp    $0x0,%rsi
    3480117b:	48 89 4d d0          	mov    %rcx,-0x30(%rbp)
    3480117f:	48 89 75 c8          	mov    %rsi,-0x38(%rbp)
    34801183:	0f 84 0d 00 00 00    	je     34801196 <jpeg_suppress_tables+0xa6>
    34801189:	48 8b 45 c8          	mov    -0x38(%rbp),%rax
    3480118d:	8b 4d f4             	mov    -0xc(%rbp),%ecx
    34801190:	89 88 14 01 00 00    	mov    %ecx,0x114(%rax)
    34801196:	48 8b 45 f8          	mov    -0x8(%rbp),%rax
    3480119a:	48 8b 4d d0          	mov    -0x30(%rbp),%rcx
    3480119e:	48 8b 94 c8 c0 00 00 	mov    0xc0(%rax,%rcx,8),%rdx
    348011a5:	00 
    348011a6:	48 83 fa 00          	cmp    $0x0,%rdx
    348011aa:	48 89 55 c0          	mov    %rdx,-0x40(%rbp)
    348011ae:	0f 84 0d 00 00 00    	je     348011c1 <jpeg_suppress_tables+0xd1>
    348011b4:	48 8b 45 c0          	mov    -0x40(%rbp),%rax
    348011b8:	8b 4d f4             	mov    -0xc(%rbp),%ecx
    348011bb:	89 88 14 01 00 00    	mov    %ecx,0x114(%rax)
    348011c1:	8b 45 d8             	mov    -0x28(%rbp),%eax
    348011c4:	83 c0 01             	add    $0x1,%eax
    348011c7:	89 45 dc             	mov    %eax,-0x24(%rbp)
    348011ca:	e9 87 ff ff ff       	jmpq   34801156 <jpeg_suppress_tables+0x66>
    348011cf:	5d                   	pop    %rbp
    348011d0:	c3                   	retq   
    348011d1:	66 66 66 66 66 66 2e 	data32 data32 data32 data32 data32 nopw %cs:0x0(%rax,%rax,1)
    348011d8:	0f 1f 84 00 00 00 00 
    348011df:	00 

00000000348011e0 <jpeg_finish_compress>:
    348011e0:	55                   	push   %rbp
    348011e1:	48 89 e5             	mov    %rsp,%rbp
    348011e4:	48 83 ec 70          	sub    $0x70,%rsp
    348011e8:	48 89 f8             	mov    %rdi,%rax
    348011eb:	48 83 c0 24          	add    $0x24,%rax
    348011ef:	8b 4f 24             	mov    0x24(%rdi),%ecx
    348011f2:	89 ca                	mov    %ecx,%edx
    348011f4:	83 c2 9b             	add    $0xffffff9b,%edx
    348011f7:	83 ea 02             	sub    $0x2,%edx
    348011fa:	48 89 7d f8          	mov    %rdi,-0x8(%rbp)
    348011fe:	48 89 45 f0          	mov    %rax,-0x10(%rbp)
    34801202:	89 4d ec             	mov    %ecx,-0x14(%rbp)
    34801205:	89 55 e8             	mov    %edx,-0x18(%rbp)
    34801208:	0f 82 19 00 00 00    	jb     34801227 <jpeg_finish_compress+0x47>
    3480120e:	e9 00 00 00 00       	jmpq   34801213 <jpeg_finish_compress+0x33>
    34801213:	8b 45 ec             	mov    -0x14(%rbp),%eax
    34801216:	83 e8 67             	sub    $0x67,%eax
    34801219:	89 45 e4             	mov    %eax,-0x1c(%rbp)
    3480121c:	0f 84 6c 00 00 00    	je     3480128e <jpeg_finish_compress+0xae>
    34801222:	e9 42 00 00 00       	jmpq   34801269 <jpeg_finish_compress+0x89>
    34801227:	48 8b 45 f8          	mov    -0x8(%rbp),%rax
    3480122b:	8b 88 58 01 00 00    	mov    0x158(%rax),%ecx
    34801231:	3b 48 34             	cmp    0x34(%rax),%ecx
    34801234:	0f 83 19 00 00 00    	jae    34801253 <jpeg_finish_compress+0x73>
    3480123a:	48 8b 45 f8          	mov    -0x8(%rbp),%rax
    3480123e:	48 8b 08             	mov    (%rax),%rcx
    34801241:	c7 41 28 45 00 00 00 	movl   $0x45,0x28(%rcx)
    34801248:	48 8b 08             	mov    (%rax),%rcx
    3480124b:	48 8b 09             	mov    (%rcx),%rcx
    3480124e:	48 89 c7             	mov    %rax,%rdi
    34801251:	ff d1                	callq  *%rcx
    34801253:	48 8b 45 f8          	mov    -0x8(%rbp),%rax
    34801257:	48 8b 88 f0 01 00 00 	mov    0x1f0(%rax),%rcx
    3480125e:	48 89 c7             	mov    %rax,%rdi
    34801261:	ff 51 10             	callq  *0x10(%rcx)
    34801264:	e9 25 00 00 00       	jmpq   3480128e <jpeg_finish_compress+0xae>
    34801269:	48 8b 45 f8          	mov    -0x8(%rbp),%rax
    3480126d:	48 8b 08             	mov    (%rax),%rcx
    34801270:	c7 41 28 15 00 00 00 	movl   $0x15,0x28(%rcx)
    34801277:	48 8b 4d f0          	mov    -0x10(%rbp),%rcx
    3480127b:	8b 11                	mov    (%rcx),%edx
    3480127d:	48 8b 30             	mov    (%rax),%rsi
    34801280:	89 56 2c             	mov    %edx,0x2c(%rsi)
    34801283:	48 8b 30             	mov    (%rax),%rsi
    34801286:	48 8b 36             	mov    (%rsi),%rsi
    34801289:	48 89 c7             	mov    %rax,%rdi
    3480128c:	ff d6                	callq  *%rsi
    3480128e:	48 8b 45 f8          	mov    -0x8(%rbp),%rax
    34801292:	48 05 f0 01 00 00    	add    $0x1f0,%rax
    34801298:	48 8b 4d f8          	mov    -0x8(%rbp),%rcx
    3480129c:	48 81 c1 70 01 00 00 	add    $0x170,%rcx
    348012a3:	48 8b 55 f8          	mov    -0x8(%rbp),%rdx
    348012a7:	48 83 c2 10          	add    $0x10,%rdx
    348012ab:	48 8b 75 f8          	mov    -0x8(%rbp),%rsi
    348012af:	48 8b 7d f8          	mov    -0x8(%rbp),%rdi
    348012b3:	48 81 c7 08 02 00 00 	add    $0x208,%rdi
    348012ba:	4c 8b 45 f8          	mov    -0x8(%rbp),%r8
    348012be:	48 89 45 d8          	mov    %rax,-0x28(%rbp)
    348012c2:	48 89 4d d0          	mov    %rcx,-0x30(%rbp)
    348012c6:	48 89 55 c8          	mov    %rdx,-0x38(%rbp)
    348012ca:	48 89 75 c0          	mov    %rsi,-0x40(%rbp)
    348012ce:	48 89 7d b8          	mov    %rdi,-0x48(%rbp)
    348012d2:	4c 89 45 b0          	mov    %r8,-0x50(%rbp)
    348012d6:	48 8b 45 d8          	mov    -0x28(%rbp),%rax
    348012da:	48 8b 08             	mov    (%rax),%rcx
    348012dd:	83 79 1c 00          	cmpl   $0x0,0x1c(%rcx)
    348012e1:	48 89 4d a8          	mov    %rcx,-0x58(%rbp)
    348012e5:	0f 85 c0 00 00 00    	jne    348013ab <jpeg_finish_compress+0x1cb>
    348012eb:	48 8b 7d f8          	mov    -0x8(%rbp),%rdi
    348012ef:	48 8b 45 a8          	mov    -0x58(%rbp),%rax
    348012f3:	ff 10                	callq  *(%rax)
    348012f5:	31 c9                	xor    %ecx,%ecx
    348012f7:	89 4d a4             	mov    %ecx,-0x5c(%rbp)
    348012fa:	8b 45 a4             	mov    -0x5c(%rbp),%eax
    348012fd:	48 8b 4d d0          	mov    -0x30(%rbp),%rcx
    34801301:	3b 01                	cmp    (%rcx),%eax
    34801303:	89 45 a0             	mov    %eax,-0x60(%rbp)
    34801306:	0f 83 8c 00 00 00    	jae    34801398 <jpeg_finish_compress+0x1b8>
    3480130c:	48 8b 45 c8          	mov    -0x38(%rbp),%rax
    34801310:	48 8b 08             	mov    (%rax),%rcx
    34801313:	48 83 f9 00          	cmp    $0x0,%rcx
    34801317:	48 89 4d 98          	mov    %rcx,-0x68(%rbp)
    3480131b:	0f 84 37 00 00 00    	je     34801358 <jpeg_finish_compress+0x178>
    34801321:	8b 45 a0             	mov    -0x60(%rbp),%eax
    34801324:	89 c1                	mov    %eax,%ecx
    34801326:	89 ca                	mov    %ecx,%edx
    34801328:	48 8b 75 98          	mov    -0x68(%rbp),%rsi
    3480132c:	48 89 56 08          	mov    %rdx,0x8(%rsi)
    34801330:	48 8b 55 d0          	mov    -0x30(%rbp),%rdx
    34801334:	8b 0a                	mov    (%rdx),%ecx
    34801336:	89 cf                	mov    %ecx,%edi
    34801338:	4c 8b 45 c8          	mov    -0x38(%rbp),%r8
    3480133c:	4d 8b 08             	mov    (%r8),%r9
    3480133f:	49 89 79 10          	mov    %rdi,0x10(%r9)
    34801343:	49 8b 38             	mov    (%r8),%rdi
    34801346:	4c 8b 4d c0          	mov    -0x40(%rbp),%r9
    3480134a:	48 89 7d 90          	mov    %rdi,-0x70(%rbp)
    3480134e:	4c 89 cf             	mov    %r9,%rdi
    34801351:	4c 8b 55 90          	mov    -0x70(%rbp),%r10
    34801355:	41 ff 12             	callq  *(%r10)
    34801358:	31 c0                	xor    %eax,%eax
    3480135a:	89 c6                	mov    %eax,%esi
    3480135c:	48 8b 4d b8          	mov    -0x48(%rbp),%rcx
    34801360:	48 8b 11             	mov    (%rcx),%rdx
    34801363:	48 8b 7d f8          	mov    -0x8(%rbp),%rdi
    34801367:	ff 52 08             	callq  *0x8(%rdx)
    3480136a:	83 f8 00             	cmp    $0x0,%eax
    3480136d:	0f 85 17 00 00 00    	jne    3480138a <jpeg_finish_compress+0x1aa>
    34801373:	48 8b 45 f8          	mov    -0x8(%rbp),%rax
    34801377:	48 8b 08             	mov    (%rax),%rcx
    3480137a:	c7 41 28 19 00 00 00 	movl   $0x19,0x28(%rcx)
    34801381:	48 8b 08             	mov    (%rax),%rcx
    34801384:	48 8b 7d b0          	mov    -0x50(%rbp),%rdi
    34801388:	ff 11                	callq  *(%rcx)
    3480138a:	8b 45 a0             	mov    -0x60(%rbp),%eax
    3480138d:	83 c0 01             	add    $0x1,%eax
    34801390:	89 45 a4             	mov    %eax,-0x5c(%rbp)
    34801393:	e9 62 ff ff ff       	jmpq   348012fa <jpeg_finish_compress+0x11a>
    34801398:	48 8b 45 d8          	mov    -0x28(%rbp),%rax
    3480139c:	48 8b 08             	mov    (%rax),%rcx
    3480139f:	48 8b 7d f8          	mov    -0x8(%rbp),%rdi
    348013a3:	ff 51 10             	callq  *0x10(%rcx)
    348013a6:	e9 2b ff ff ff       	jmpq   348012d6 <jpeg_finish_compress+0xf6>
    348013ab:	48 8b 45 f8          	mov    -0x8(%rbp),%rax
    348013af:	48 8b 88 10 02 00 00 	mov    0x210(%rax),%rcx
    348013b6:	48 89 c7             	mov    %rax,%rdi
    348013b9:	ff 51 18             	callq  *0x18(%rcx)
    348013bc:	48 8b 45 f8          	mov    -0x8(%rbp),%rax
    348013c0:	48 8b 48 28          	mov    0x28(%rax),%rcx
    348013c4:	48 89 c7             	mov    %rax,%rdi
    348013c7:	ff 51 20             	callq  *0x20(%rcx)
    348013ca:	48 8b 45 f8          	mov    -0x8(%rbp),%rax
    348013ce:	48 89 c7             	mov    %rax,%rdi
    348013d1:	e8 0a 44 00 00       	callq  348057e0 <jpeg_abort>
    348013d6:	48 83 c4 70          	add    $0x70,%rsp
    348013da:	5d                   	pop    %rbp
    348013db:	c3                   	retq   
    348013dc:	0f 1f 40 00          	nopl   0x0(%rax)

00000000348013e0 <jpeg_write_marker>:
    348013e0:	55                   	push   %rbp
    348013e1:	48 89 e5             	mov    %rsp,%rbp
    348013e4:	48 83 ec 50          	sub    $0x50,%rsp
    348013e8:	83 bf 58 01 00 00 00 	cmpl   $0x0,0x158(%rdi)
    348013ef:	48 89 55 f8          	mov    %rdx,-0x8(%rbp)
    348013f3:	89 75 f4             	mov    %esi,-0xc(%rbp)
    348013f6:	48 89 7d e8          	mov    %rdi,-0x18(%rbp)
    348013fa:	89 4d e4             	mov    %ecx,-0x1c(%rbp)
    348013fd:	0f 85 13 00 00 00    	jne    34801416 <jpeg_write_marker+0x36>
    34801403:	48 8b 45 e8          	mov    -0x18(%rbp),%rax
    34801407:	8b 48 24             	mov    0x24(%rax),%ecx
    3480140a:	83 c1 9b             	add    $0xffffff9b,%ecx
    3480140d:	83 f9 03             	cmp    $0x3,%ecx
    34801410:	0f 82 22 00 00 00    	jb     34801438 <jpeg_write_marker+0x58>
    34801416:	48 8b 45 e8          	mov    -0x18(%rbp),%rax
    3480141a:	48 8b 08             	mov    (%rax),%rcx
    3480141d:	c7 41 28 15 00 00 00 	movl   $0x15,0x28(%rcx)
    34801424:	8b 50 24             	mov    0x24(%rax),%edx
    34801427:	48 8b 08             	mov    (%rax),%rcx
    3480142a:	89 51 2c             	mov    %edx,0x2c(%rcx)
    3480142d:	48 8b 08             	mov    (%rax),%rcx
    34801430:	48 8b 09             	mov    (%rcx),%rcx
    34801433:	48 89 c7             	mov    %rax,%rdi
    34801436:	ff d1                	callq  *%rcx
    34801438:	48 8b 45 e8          	mov    -0x18(%rbp),%rax
    3480143c:	48 8b 88 10 02 00 00 	mov    0x210(%rax),%rcx
    34801443:	48 89 c7             	mov    %rax,%rdi
    34801446:	8b 75 f4             	mov    -0xc(%rbp),%esi
    34801449:	8b 55 e4             	mov    -0x1c(%rbp),%edx
    3480144c:	ff 51 28             	callq  *0x28(%rcx)
    3480144f:	48 8b 45 e8          	mov    -0x18(%rbp),%rax
    34801453:	48 8b 88 10 02 00 00 	mov    0x210(%rax),%rcx
    3480145a:	48 8b 49 30          	mov    0x30(%rcx),%rcx
    3480145e:	8b 55 e4             	mov    -0x1c(%rbp),%edx
    34801461:	48 8b 7d f8          	mov    -0x8(%rbp),%rdi
    34801465:	48 89 4d d8          	mov    %rcx,-0x28(%rbp)
    34801469:	89 55 d4             	mov    %edx,-0x2c(%rbp)
    3480146c:	48 89 7d c8          	mov    %rdi,-0x38(%rbp)
    34801470:	48 8b 45 c8          	mov    -0x38(%rbp),%rax
    34801474:	8b 4d d4             	mov    -0x2c(%rbp),%ecx
    34801477:	83 f9 00             	cmp    $0x0,%ecx
    3480147a:	48 89 45 c0          	mov    %rax,-0x40(%rbp)
    3480147e:	89 4d bc             	mov    %ecx,-0x44(%rbp)
    34801481:	0f 84 31 00 00 00    	je     348014b8 <jpeg_write_marker+0xd8>
    34801487:	8b 45 bc             	mov    -0x44(%rbp),%eax
    3480148a:	83 c0 ff             	add    $0xffffffff,%eax
    3480148d:	48 8b 4d c0          	mov    -0x40(%rbp),%rcx
    34801491:	0f b6 31             	movzbl (%rcx),%esi
    34801494:	48 8b 7d e8          	mov    -0x18(%rbp),%rdi
    34801498:	48 8b 55 d8          	mov    -0x28(%rbp),%rdx
    3480149c:	89 45 b8             	mov    %eax,-0x48(%rbp)
    3480149f:	ff d2                	callq  *%rdx
    348014a1:	48 8b 4d c0          	mov    -0x40(%rbp),%rcx
    348014a5:	48 83 c1 01          	add    $0x1,%rcx
    348014a9:	8b 45 b8             	mov    -0x48(%rbp),%eax
    348014ac:	89 45 d4             	mov    %eax,-0x2c(%rbp)
    348014af:	48 89 4d c8          	mov    %rcx,-0x38(%rbp)
    348014b3:	e9 b8 ff ff ff       	jmpq   34801470 <jpeg_write_marker+0x90>
    348014b8:	48 83 c4 50          	add    $0x50,%rsp
    348014bc:	5d                   	pop    %rbp
    348014bd:	c3                   	retq   
    348014be:	66 90                	xchg   %ax,%ax

00000000348014c0 <jpeg_write_m_header>:
    348014c0:	55                   	push   %rbp
    348014c1:	48 89 e5             	mov    %rsp,%rbp
    348014c4:	48 83 ec 20          	sub    $0x20,%rsp
    348014c8:	83 bf 58 01 00 00 00 	cmpl   $0x0,0x158(%rdi)
    348014cf:	89 75 fc             	mov    %esi,-0x4(%rbp)
    348014d2:	48 89 7d f0          	mov    %rdi,-0x10(%rbp)
    348014d6:	89 55 ec             	mov    %edx,-0x14(%rbp)
    348014d9:	0f 85 13 00 00 00    	jne    348014f2 <jpeg_write_m_header+0x32>
    348014df:	48 8b 45 f0          	mov    -0x10(%rbp),%rax
    348014e3:	8b 48 24             	mov    0x24(%rax),%ecx
    348014e6:	83 c1 9b             	add    $0xffffff9b,%ecx
    348014e9:	83 f9 03             	cmp    $0x3,%ecx
    348014ec:	0f 82 22 00 00 00    	jb     34801514 <jpeg_write_m_header+0x54>
    348014f2:	48 8b 45 f0          	mov    -0x10(%rbp),%rax
    348014f6:	48 8b 08             	mov    (%rax),%rcx
    348014f9:	c7 41 28 15 00 00 00 	movl   $0x15,0x28(%rcx)
    34801500:	8b 50 24             	mov    0x24(%rax),%edx
    34801503:	48 8b 08             	mov    (%rax),%rcx
    34801506:	89 51 2c             	mov    %edx,0x2c(%rcx)
    34801509:	48 8b 08             	mov    (%rax),%rcx
    3480150c:	48 8b 09             	mov    (%rcx),%rcx
    3480150f:	48 89 c7             	mov    %rax,%rdi
    34801512:	ff d1                	callq  *%rcx
    34801514:	48 8b 45 f0          	mov    -0x10(%rbp),%rax
    34801518:	48 8b 88 10 02 00 00 	mov    0x210(%rax),%rcx
    3480151f:	48 89 c7             	mov    %rax,%rdi
    34801522:	8b 75 fc             	mov    -0x4(%rbp),%esi
    34801525:	8b 55 ec             	mov    -0x14(%rbp),%edx
    34801528:	ff 51 28             	callq  *0x28(%rcx)
    3480152b:	48 83 c4 20          	add    $0x20,%rsp
    3480152f:	5d                   	pop    %rbp
    34801530:	c3                   	retq   
    34801531:	66 66 66 66 66 66 2e 	data32 data32 data32 data32 data32 nopw %cs:0x0(%rax,%rax,1)
    34801538:	0f 1f 84 00 00 00 00 
    3480153f:	00 

0000000034801540 <jpeg_write_m_byte>:
    34801540:	55                   	push   %rbp
    34801541:	48 89 e5             	mov    %rsp,%rbp
    34801544:	48 8b 87 10 02 00 00 	mov    0x210(%rdi),%rax
    3480154b:	ff 50 30             	callq  *0x30(%rax)
    3480154e:	5d                   	pop    %rbp
    3480154f:	c3                   	retq   

0000000034801550 <jpeg_write_tables>:
    34801550:	55                   	push   %rbp
    34801551:	48 89 e5             	mov    %rsp,%rbp
    34801554:	48 83 ec 10          	sub    $0x10,%rsp
    34801558:	48 89 f8             	mov    %rdi,%rax
    3480155b:	48 83 c0 24          	add    $0x24,%rax
    3480155f:	83 7f 24 64          	cmpl   $0x64,0x24(%rdi)
    34801563:	48 89 7d f8          	mov    %rdi,-0x8(%rbp)
    34801567:	48 89 45 f0          	mov    %rax,-0x10(%rbp)
    3480156b:	0f 84 25 00 00 00    	je     34801596 <jpeg_write_tables+0x46>
    34801571:	48 8b 45 f8          	mov    -0x8(%rbp),%rax
    34801575:	48 8b 08             	mov    (%rax),%rcx
    34801578:	c7 41 28 15 00 00 00 	movl   $0x15,0x28(%rcx)
    3480157f:	48 8b 4d f0          	mov    -0x10(%rbp),%rcx
    34801583:	8b 11                	mov    (%rcx),%edx
    34801585:	48 8b 30             	mov    (%rax),%rsi
    34801588:	89 56 2c             	mov    %edx,0x2c(%rsi)
    3480158b:	48 8b 30             	mov    (%rax),%rsi
    3480158e:	48 8b 36             	mov    (%rsi),%rsi
    34801591:	48 89 c7             	mov    %rax,%rdi
    34801594:	ff d6                	callq  *%rsi
    34801596:	48 8b 45 f8          	mov    -0x8(%rbp),%rax
    3480159a:	48 8b 08             	mov    (%rax),%rcx
    3480159d:	48 8b 49 20          	mov    0x20(%rcx),%rcx
    348015a1:	48 89 c7             	mov    %rax,%rdi
    348015a4:	ff d1                	callq  *%rcx
    348015a6:	48 8b 45 f8          	mov    -0x8(%rbp),%rax
    348015aa:	48 8b 48 28          	mov    0x28(%rax),%rcx
    348015ae:	48 89 c7             	mov    %rax,%rdi
    348015b1:	ff 51 10             	callq  *0x10(%rcx)
    348015b4:	48 8b 7d f8          	mov    -0x8(%rbp),%rdi
    348015b8:	e8 63 09 00 00       	callq  34801f20 <jinit_marker_writer>
    348015bd:	48 8b 45 f8          	mov    -0x8(%rbp),%rax
    348015c1:	48 8b 88 10 02 00 00 	mov    0x210(%rax),%rcx
    348015c8:	48 89 c7             	mov    %rax,%rdi
    348015cb:	ff 51 20             	callq  *0x20(%rcx)
    348015ce:	48 8b 45 f8          	mov    -0x8(%rbp),%rax
    348015d2:	48 8b 48 28          	mov    0x28(%rax),%rcx
    348015d6:	48 89 c7             	mov    %rax,%rdi
    348015d9:	ff 51 20             	callq  *0x20(%rcx)
    348015dc:	48 83 c4 10          	add    $0x10,%rsp
    348015e0:	5d                   	pop    %rbp
    348015e1:	c3                   	retq   
    348015e2:	66 2e 0f 1f 84 00 00 	nopw   %cs:0x0(%rax,%rax,1)
    348015e9:	00 00 00 
    348015ec:	0f 1f 40 00          	nopl   0x0(%rax)

00000000348015f0 <jpeg_start_compress>:
    348015f0:	55                   	push   %rbp
    348015f1:	48 89 e5             	mov    %rsp,%rbp
    348015f4:	48 83 ec 20          	sub    $0x20,%rsp
    348015f8:	48 89 f8             	mov    %rdi,%rax
    348015fb:	48 83 c0 24          	add    $0x24,%rax
    348015ff:	83 7f 24 64          	cmpl   $0x64,0x24(%rdi)
    34801603:	48 89 7d f8          	mov    %rdi,-0x8(%rbp)
    34801607:	89 75 f4             	mov    %esi,-0xc(%rbp)
    3480160a:	48 89 45 e8          	mov    %rax,-0x18(%rbp)
    3480160e:	0f 84 25 00 00 00    	je     34801639 <jpeg_start_compress+0x49>
    34801614:	48 8b 45 f8          	mov    -0x8(%rbp),%rax
    34801618:	48 8b 08             	mov    (%rax),%rcx
    3480161b:	c7 41 28 15 00 00 00 	movl   $0x15,0x28(%rcx)
    34801622:	48 8b 4d e8          	mov    -0x18(%rbp),%rcx
    34801626:	8b 11                	mov    (%rcx),%edx
    34801628:	48 8b 30             	mov    (%rax),%rsi
    3480162b:	89 56 2c             	mov    %edx,0x2c(%rsi)
    3480162e:	48 8b 30             	mov    (%rax),%rsi
    34801631:	48 8b 36             	mov    (%rsi),%rsi
    34801634:	48 89 c7             	mov    %rax,%rdi
    34801637:	ff d6                	callq  *%rsi
    34801639:	8b 45 f4             	mov    -0xc(%rbp),%eax
    3480163c:	83 f8 00             	cmp    $0x0,%eax
    3480163f:	0f 84 0b 00 00 00    	je     34801650 <jpeg_start_compress+0x60>
    34801645:	31 f6                	xor    %esi,%esi
    34801647:	48 8b 7d f8          	mov    -0x8(%rbp),%rdi
    3480164b:	e8 a0 fa ff ff       	callq  348010f0 <jpeg_suppress_tables>
    34801650:	48 8b 45 f8          	mov    -0x8(%rbp),%rax
    34801654:	48 8b 08             	mov    (%rax),%rcx
    34801657:	48 8b 49 20          	mov    0x20(%rcx),%rcx
    3480165b:	48 89 c7             	mov    %rax,%rdi
    3480165e:	ff d1                	callq  *%rcx
    34801660:	48 8b 45 f8          	mov    -0x8(%rbp),%rax
    34801664:	48 8b 48 28          	mov    0x28(%rax),%rcx
    34801668:	48 89 c7             	mov    %rax,%rdi
    3480166b:	ff 51 10             	callq  *0x10(%rcx)
    3480166e:	48 8b 7d f8          	mov    -0x8(%rbp),%rdi
    34801672:	e8 59 03 00 00       	callq  348019d0 <jinit_compress_master>
    34801677:	48 8b 45 f8          	mov    -0x8(%rbp),%rax
    3480167b:	48 8b 88 f0 01 00 00 	mov    0x1f0(%rax),%rcx
    34801682:	48 89 c7             	mov    %rax,%rdi
    34801685:	ff 11                	callq  *(%rcx)
    34801687:	ba 65 00 00 00       	mov    $0x65,%edx
    3480168c:	be 66 00 00 00       	mov    $0x66,%esi
    34801691:	48 8b 45 f8          	mov    -0x8(%rbp),%rax
    34801695:	c7 80 58 01 00 00 00 	movl   $0x0,0x158(%rax)
    3480169c:	00 00 00 
    3480169f:	83 b8 20 01 00 00 00 	cmpl   $0x0,0x120(%rax)
    348016a6:	0f 45 d6             	cmovne %esi,%edx
    348016a9:	48 8b 4d e8          	mov    -0x18(%rbp),%rcx
    348016ad:	89 11                	mov    %edx,(%rcx)
    348016af:	48 83 c4 20          	add    $0x20,%rsp
    348016b3:	5d                   	pop    %rbp
    348016b4:	c3                   	retq   
    348016b5:	66 66 2e 0f 1f 84 00 	data32 nopw %cs:0x0(%rax,%rax,1)
    348016bc:	00 00 00 00 

00000000348016c0 <jpeg_write_scanlines>:
    348016c0:	55                   	push   %rbp
    348016c1:	48 89 e5             	mov    %rsp,%rbp
    348016c4:	48 83 ec 60          	sub    $0x60,%rsp
    348016c8:	48 89 f8             	mov    %rdi,%rax
    348016cb:	48 83 c0 24          	add    $0x24,%rax
    348016cf:	83 7f 24 65          	cmpl   $0x65,0x24(%rdi)
    348016d3:	48 89 75 f0          	mov    %rsi,-0x10(%rbp)
    348016d7:	48 89 7d e8          	mov    %rdi,-0x18(%rbp)
    348016db:	89 55 e4             	mov    %edx,-0x1c(%rbp)
    348016de:	48 89 45 d8          	mov    %rax,-0x28(%rbp)
    348016e2:	0f 84 25 00 00 00    	je     3480170d <jpeg_write_scanlines+0x4d>
    348016e8:	48 8b 45 e8          	mov    -0x18(%rbp),%rax
    348016ec:	48 8b 08             	mov    (%rax),%rcx
    348016ef:	c7 41 28 15 00 00 00 	movl   $0x15,0x28(%rcx)
    348016f6:	48 8b 4d d8          	mov    -0x28(%rbp),%rcx
    348016fa:	8b 11                	mov    (%rcx),%edx
    348016fc:	48 8b 30             	mov    (%rax),%rsi
    348016ff:	89 56 2c             	mov    %edx,0x2c(%rsi)
    34801702:	48 8b 30             	mov    (%rax),%rsi
    34801705:	48 8b 36             	mov    (%rsi),%rsi
    34801708:	48 89 c7             	mov    %rax,%rdi
    3480170b:	ff d6                	callq  *%rsi
    3480170d:	48 8b 45 e8          	mov    -0x18(%rbp),%rax
    34801711:	48 05 58 01 00 00    	add    $0x158,%rax
    34801717:	48 8b 4d e8          	mov    -0x18(%rbp),%rcx
    3480171b:	8b 91 58 01 00 00    	mov    0x158(%rcx),%edx
    34801721:	48 83 c1 34          	add    $0x34,%rcx
    34801725:	48 8b 75 e8          	mov    -0x18(%rbp),%rsi
    34801729:	3b 56 34             	cmp    0x34(%rsi),%edx
    3480172c:	48 89 45 d0          	mov    %rax,-0x30(%rbp)
    34801730:	48 89 4d c8          	mov    %rcx,-0x38(%rbp)
    34801734:	0f 82 1f 00 00 00    	jb     34801759 <jpeg_write_scanlines+0x99>
    3480173a:	be ff ff ff ff       	mov    $0xffffffff,%esi
    3480173f:	48 8b 45 e8          	mov    -0x18(%rbp),%rax
    34801743:	48 8b 08             	mov    (%rax),%rcx
    34801746:	c7 41 28 7e 00 00 00 	movl   $0x7e,0x28(%rcx)
    3480174d:	48 8b 08             	mov    (%rax),%rcx
    34801750:	48 8b 49 08          	mov    0x8(%rcx),%rcx
    34801754:	48 89 c7             	mov    %rax,%rdi
    34801757:	ff d1                	callq  *%rcx
    34801759:	48 8b 45 e8          	mov    -0x18(%rbp),%rax
    3480175d:	48 83 c0 10          	add    $0x10,%rax
    34801761:	48 8b 4d e8          	mov    -0x18(%rbp),%rcx
    34801765:	48 8b 51 10          	mov    0x10(%rcx),%rdx
    34801769:	48 83 fa 00          	cmp    $0x0,%rdx
    3480176d:	48 89 45 c0          	mov    %rax,-0x40(%rbp)
    34801771:	48 89 55 b8          	mov    %rdx,-0x48(%rbp)
    34801775:	0f 84 3b 00 00 00    	je     348017b6 <jpeg_write_scanlines+0xf6>
    3480177b:	48 8b 45 d0          	mov    -0x30(%rbp),%rax
    3480177f:	8b 08                	mov    (%rax),%ecx
    34801781:	89 ca                	mov    %ecx,%edx
    34801783:	48 8b 75 b8          	mov    -0x48(%rbp),%rsi
    34801787:	48 89 56 08          	mov    %rdx,0x8(%rsi)
    3480178b:	48 8b 55 c8          	mov    -0x38(%rbp),%rdx
    3480178f:	8b 0a                	mov    (%rdx),%ecx
    34801791:	89 cf                	mov    %ecx,%edi
    34801793:	4c 8b 45 c0          	mov    -0x40(%rbp),%r8
    34801797:	4d 8b 08             	mov    (%r8),%r9
    3480179a:	49 89 79 10          	mov    %rdi,0x10(%r9)
    3480179e:	49 8b 38             	mov    (%r8),%rdi
    348017a1:	48 8b 3f             	mov    (%rdi),%rdi
    348017a4:	4c 8b 4d e8          	mov    -0x18(%rbp),%r9
    348017a8:	48 89 7d b0          	mov    %rdi,-0x50(%rbp)
    348017ac:	4c 89 cf             	mov    %r9,%rdi
    348017af:	4c 8b 4d b0          	mov    -0x50(%rbp),%r9
    348017b3:	41 ff d1             	callq  *%r9
    348017b6:	48 8b 45 e8          	mov    -0x18(%rbp),%rax
    348017ba:	48 8b 88 f0 01 00 00 	mov    0x1f0(%rax),%rcx
    348017c1:	83 79 18 00          	cmpl   $0x0,0x18(%rcx)
    348017c5:	48 89 4d a8          	mov    %rcx,-0x58(%rbp)
    348017c9:	0f 84 0b 00 00 00    	je     348017da <jpeg_write_scanlines+0x11a>
    348017cf:	48 8b 7d e8          	mov    -0x18(%rbp),%rdi
    348017d3:	48 8b 45 a8          	mov    -0x58(%rbp),%rax
    348017d7:	ff 50 08             	callq  *0x8(%rax)
    348017da:	48 8d 55 fc          	lea    -0x4(%rbp),%rdx
    348017de:	48 8b 45 c8          	mov    -0x38(%rbp),%rax
    348017e2:	8b 08                	mov    (%rax),%ecx
    348017e4:	48 8b 75 d0          	mov    -0x30(%rbp),%rsi
    348017e8:	2b 0e                	sub    (%rsi),%ecx
    348017ea:	8b 7d e4             	mov    -0x1c(%rbp),%edi
    348017ed:	39 f9                	cmp    %edi,%ecx
    348017ef:	0f 42 f9             	cmovb  %ecx,%edi
    348017f2:	c7 45 fc 00 00 00 00 	movl   $0x0,-0x4(%rbp)
    348017f9:	4c 8b 45 e8          	mov    -0x18(%rbp),%r8
    348017fd:	4d 8b 88 f8 01 00 00 	mov    0x1f8(%r8),%r9
    34801804:	89 7d a4             	mov    %edi,-0x5c(%rbp)
    34801807:	4c 89 c7             	mov    %r8,%rdi
    3480180a:	48 8b 75 f0          	mov    -0x10(%rbp),%rsi
    3480180e:	8b 4d a4             	mov    -0x5c(%rbp),%ecx
    34801811:	41 ff 51 08          	callq  *0x8(%r9)
    34801815:	8b 4d fc             	mov    -0x4(%rbp),%ecx
    34801818:	41 89 ca             	mov    %ecx,%r10d
    3480181b:	48 8b 45 d0          	mov    -0x30(%rbp),%rax
    3480181f:	44 03 10             	add    (%rax),%r10d
    34801822:	44 89 10             	mov    %r10d,(%rax)
    34801825:	89 c8                	mov    %ecx,%eax
    34801827:	48 83 c4 60          	add    $0x60,%rsp
    3480182b:	5d                   	pop    %rbp
    3480182c:	c3                   	retq   
    3480182d:	0f 1f 00             	nopl   (%rax)

0000000034801830 <jpeg_write_raw_data>:
    34801830:	55                   	push   %rbp
    34801831:	48 89 e5             	mov    %rsp,%rbp
    34801834:	48 83 ec 60          	sub    $0x60,%rsp
    34801838:	48 89 f8             	mov    %rdi,%rax
    3480183b:	48 83 c0 24          	add    $0x24,%rax
    3480183f:	83 7f 24 66          	cmpl   $0x66,0x24(%rdi)
    34801843:	48 89 75 f8          	mov    %rsi,-0x8(%rbp)
    34801847:	48 89 7d f0          	mov    %rdi,-0x10(%rbp)
    3480184b:	89 55 ec             	mov    %edx,-0x14(%rbp)
    3480184e:	48 89 45 e0          	mov    %rax,-0x20(%rbp)
    34801852:	0f 84 25 00 00 00    	je     3480187d <jpeg_write_raw_data+0x4d>
    34801858:	48 8b 45 f0          	mov    -0x10(%rbp),%rax
    3480185c:	48 8b 08             	mov    (%rax),%rcx
    3480185f:	c7 41 28 15 00 00 00 	movl   $0x15,0x28(%rcx)
    34801866:	48 8b 4d e0          	mov    -0x20(%rbp),%rcx
    3480186a:	8b 11                	mov    (%rcx),%edx
    3480186c:	48 8b 30             	mov    (%rax),%rsi
    3480186f:	89 56 2c             	mov    %edx,0x2c(%rsi)
    34801872:	48 8b 30             	mov    (%rax),%rsi
    34801875:	48 8b 36             	mov    (%rsi),%rsi
    34801878:	48 89 c7             	mov    %rax,%rdi
    3480187b:	ff d6                	callq  *%rsi
    3480187d:	48 8b 45 f0          	mov    -0x10(%rbp),%rax
    34801881:	48 05 58 01 00 00    	add    $0x158,%rax
    34801887:	48 8b 4d f0          	mov    -0x10(%rbp),%rcx
    3480188b:	8b 91 58 01 00 00    	mov    0x158(%rcx),%edx
    34801891:	48 83 c1 34          	add    $0x34,%rcx
    34801895:	48 8b 75 f0          	mov    -0x10(%rbp),%rsi
    34801899:	3b 56 34             	cmp    0x34(%rsi),%edx
    3480189c:	48 89 45 d8          	mov    %rax,-0x28(%rbp)
    348018a0:	48 89 4d d0          	mov    %rcx,-0x30(%rbp)
    348018a4:	89 55 cc             	mov    %edx,-0x34(%rbp)
    348018a7:	0f 82 29 00 00 00    	jb     348018d6 <jpeg_write_raw_data+0xa6>
    348018ad:	be ff ff ff ff       	mov    $0xffffffff,%esi
    348018b2:	48 8b 45 f0          	mov    -0x10(%rbp),%rax
    348018b6:	48 8b 08             	mov    (%rax),%rcx
    348018b9:	c7 41 28 7e 00 00 00 	movl   $0x7e,0x28(%rcx)
    348018c0:	48 8b 08             	mov    (%rax),%rcx
    348018c3:	48 8b 49 08          	mov    0x8(%rcx),%rcx
    348018c7:	48 89 c7             	mov    %rax,%rdi
    348018ca:	ff d1                	callq  *%rcx
    348018cc:	31 f6                	xor    %esi,%esi
    348018ce:	89 75 c8             	mov    %esi,-0x38(%rbp)
    348018d1:	e9 ec 00 00 00       	jmpq   348019c2 <jpeg_write_raw_data+0x192>
    348018d6:	48 8b 45 f0          	mov    -0x10(%rbp),%rax
    348018da:	48 83 c0 10          	add    $0x10,%rax
    348018de:	48 8b 4d f0          	mov    -0x10(%rbp),%rcx
    348018e2:	48 8b 51 10          	mov    0x10(%rcx),%rdx
    348018e6:	48 83 fa 00          	cmp    $0x0,%rdx
    348018ea:	48 89 45 c0          	mov    %rax,-0x40(%rbp)
    348018ee:	48 89 55 b8          	mov    %rdx,-0x48(%rbp)
    348018f2:	0f 84 3a 00 00 00    	je     34801932 <jpeg_write_raw_data+0x102>
    348018f8:	8b 45 cc             	mov    -0x34(%rbp),%eax
    348018fb:	89 c1                	mov    %eax,%ecx
    348018fd:	89 ca                	mov    %ecx,%edx
    348018ff:	48 8b 75 b8          	mov    -0x48(%rbp),%rsi
    34801903:	48 89 56 08          	mov    %rdx,0x8(%rsi)
    34801907:	48 8b 55 d0          	mov    -0x30(%rbp),%rdx
    3480190b:	8b 0a                	mov    (%rdx),%ecx
    3480190d:	89 cf                	mov    %ecx,%edi
    3480190f:	4c 8b 45 c0          	mov    -0x40(%rbp),%r8
    34801913:	4d 8b 08             	mov    (%r8),%r9
    34801916:	49 89 79 10          	mov    %rdi,0x10(%r9)
    3480191a:	49 8b 38             	mov    (%r8),%rdi
    3480191d:	48 8b 3f             	mov    (%rdi),%rdi
    34801920:	4c 8b 4d f0          	mov    -0x10(%rbp),%r9
    34801924:	48 89 7d b0          	mov    %rdi,-0x50(%rbp)
    34801928:	4c 89 cf             	mov    %r9,%rdi
    3480192b:	4c 8b 4d b0          	mov    -0x50(%rbp),%r9
    3480192f:	41 ff d1             	callq  *%r9
    34801932:	48 8b 45 f0          	mov    -0x10(%rbp),%rax
    34801936:	48 8b 88 f0 01 00 00 	mov    0x1f0(%rax),%rcx
    3480193d:	83 79 18 00          	cmpl   $0x0,0x18(%rcx)
    34801941:	48 89 4d a8          	mov    %rcx,-0x58(%rbp)
    34801945:	0f 84 0b 00 00 00    	je     34801956 <jpeg_write_raw_data+0x126>
    3480194b:	48 8b 7d f0          	mov    -0x10(%rbp),%rdi
    3480194f:	48 8b 45 a8          	mov    -0x58(%rbp),%rax
    34801953:	ff 50 08             	callq  *0x8(%rax)
    34801956:	48 8b 45 f0          	mov    -0x10(%rbp),%rax
    3480195a:	8b 88 64 01 00 00    	mov    0x164(%rax),%ecx
    34801960:	0f af 88 6c 01 00 00 	imul   0x16c(%rax),%ecx
    34801967:	8b 55 ec             	mov    -0x14(%rbp),%edx
    3480196a:	39 d1                	cmp    %edx,%ecx
    3480196c:	89 4d a4             	mov    %ecx,-0x5c(%rbp)
    3480196f:	0f 86 19 00 00 00    	jbe    3480198e <jpeg_write_raw_data+0x15e>
    34801975:	48 8b 45 f0          	mov    -0x10(%rbp),%rax
    34801979:	48 8b 08             	mov    (%rax),%rcx
    3480197c:	c7 41 28 18 00 00 00 	movl   $0x18,0x28(%rcx)
    34801983:	48 8b 08             	mov    (%rax),%rcx
    34801986:	48 8b 09             	mov    (%rcx),%rcx
    34801989:	48 89 c7             	mov    %rax,%rdi
    3480198c:	ff d1                	callq  *%rcx
    3480198e:	48 8b 45 f0          	mov    -0x10(%rbp),%rax
    34801992:	48 8b 88 08 02 00 00 	mov    0x208(%rax),%rcx
    34801999:	48 89 c7             	mov    %rax,%rdi
    3480199c:	48 8b 75 f8          	mov    -0x8(%rbp),%rsi
    348019a0:	ff 51 08             	callq  *0x8(%rcx)
    348019a3:	31 d2                	xor    %edx,%edx
    348019a5:	83 f8 00             	cmp    $0x0,%eax
    348019a8:	89 55 c8             	mov    %edx,-0x38(%rbp)
    348019ab:	0f 84 11 00 00 00    	je     348019c2 <jpeg_write_raw_data+0x192>
    348019b1:	8b 45 a4             	mov    -0x5c(%rbp),%eax
    348019b4:	48 8b 4d d8          	mov    -0x28(%rbp),%rcx
    348019b8:	03 01                	add    (%rcx),%eax
    348019ba:	89 01                	mov    %eax,(%rcx)
    348019bc:	8b 45 a4             	mov    -0x5c(%rbp),%eax
    348019bf:	89 45 c8             	mov    %eax,-0x38(%rbp)
    348019c2:	8b 45 c8             	mov    -0x38(%rbp),%eax
    348019c5:	48 83 c4 60          	add    $0x60,%rsp
    348019c9:	5d                   	pop    %rbp
    348019ca:	c3                   	retq   
    348019cb:	0f 1f 44 00 00       	nopl   0x0(%rax,%rax,1)

00000000348019d0 <jinit_compress_master>:
    348019d0:	55                   	push   %rbp
    348019d1:	48 89 e5             	mov    %rsp,%rbp
    348019d4:	48 83 ec 20          	sub    $0x20,%rsp
    348019d8:	48 89 f8             	mov    %rdi,%rax
    348019db:	48 83 c0 58          	add    $0x58,%rax
    348019df:	83 7f 58 08          	cmpl   $0x8,0x58(%rdi)
    348019e3:	48 89 7d f8          	mov    %rdi,-0x8(%rbp)
    348019e7:	48 89 45 f0          	mov    %rax,-0x10(%rbp)
    348019eb:	0f 84 25 00 00 00    	je     34801a16 <jinit_compress_master+0x46>
    348019f1:	48 8b 45 f8          	mov    -0x8(%rbp),%rax
    348019f5:	48 8b 08             	mov    (%rax),%rcx
    348019f8:	c7 41 28 10 00 00 00 	movl   $0x10,0x28(%rcx)
    348019ff:	48 8b 4d f0          	mov    -0x10(%rbp),%rcx
    34801a03:	8b 11                	mov    (%rcx),%edx
    34801a05:	48 8b 30             	mov    (%rax),%rsi
    34801a08:	89 56 2c             	mov    %edx,0x2c(%rsi)
    34801a0b:	48 8b 30             	mov    (%rax),%rsi
    34801a0e:	48 8b 36             	mov    (%rsi),%rsi
    34801a11:	48 89 c7             	mov    %rax,%rdi
    34801a14:	ff d6                	callq  *%rsi
    34801a16:	48 8b 45 f8          	mov    -0x8(%rbp),%rax
    34801a1a:	83 78 34 00          	cmpl   $0x0,0x34(%rax)
    34801a1e:	0f 84 1c 00 00 00    	je     34801a40 <jinit_compress_master+0x70>
    34801a24:	48 8b 45 f8          	mov    -0x8(%rbp),%rax
    34801a28:	83 78 30 00          	cmpl   $0x0,0x30(%rax)
    34801a2c:	0f 84 0e 00 00 00    	je     34801a40 <jinit_compress_master+0x70>
    34801a32:	48 8b 45 f8          	mov    -0x8(%rbp),%rax
    34801a36:	83 78 38 01          	cmpl   $0x1,0x38(%rax)
    34801a3a:	0f 8d 19 00 00 00    	jge    34801a59 <jinit_compress_master+0x89>
    34801a40:	48 8b 45 f8          	mov    -0x8(%rbp),%rax
    34801a44:	48 8b 08             	mov    (%rax),%rcx
    34801a47:	c7 41 28 21 00 00 00 	movl   $0x21,0x28(%rcx)
    34801a4e:	48 8b 08             	mov    (%rax),%rcx
    34801a51:	48 8b 09             	mov    (%rcx),%rcx
    34801a54:	48 89 c7             	mov    %rax,%rdi
    34801a57:	ff d1                	callq  *%rcx
    34801a59:	b8 ff ff ff ff       	mov    $0xffffffff,%eax
    34801a5e:	89 c1                	mov    %eax,%ecx
    34801a60:	48 8b 55 f8          	mov    -0x8(%rbp),%rdx
    34801a64:	8b 42 30             	mov    0x30(%rdx),%eax
    34801a67:	89 c6                	mov    %eax,%esi
    34801a69:	48 63 7a 38          	movslq 0x38(%rdx),%rdi
    34801a6d:	48 0f af fe          	imul   %rsi,%rdi
    34801a71:	48 89 fe             	mov    %rdi,%rsi
    34801a74:	48 21 ce             	and    %rcx,%rsi
    34801a77:	48 39 fe             	cmp    %rdi,%rsi
    34801a7a:	0f 84 19 00 00 00    	je     34801a99 <jinit_compress_master+0xc9>
    34801a80:	48 8b 45 f8          	mov    -0x8(%rbp),%rax
    34801a84:	48 8b 08             	mov    (%rax),%rcx
    34801a87:	c7 41 28 48 00 00 00 	movl   $0x48,0x28(%rcx)
    34801a8e:	48 8b 08             	mov    (%rax),%rcx
    34801a91:	48 8b 09             	mov    (%rcx),%rcx
    34801a94:	48 89 c7             	mov    %rax,%rdi
    34801a97:	ff d1                	callq  *%rcx
    34801a99:	31 f6                	xor    %esi,%esi
    34801a9b:	48 8b 7d f8          	mov    -0x8(%rbp),%rdi
    34801a9f:	e8 9c 1f 00 00       	callq  34803a40 <jinit_c_master_control>
    34801aa4:	48 8b 7d f8          	mov    -0x8(%rbp),%rdi
    34801aa8:	83 bf 20 01 00 00 00 	cmpl   $0x0,0x120(%rdi)
    34801aaf:	0f 85 1d 00 00 00    	jne    34801ad2 <jinit_compress_master+0x102>
    34801ab5:	48 8b 7d f8          	mov    -0x8(%rbp),%rdi
    34801ab9:	e8 c2 d5 00 00       	callq  3480f080 <jinit_color_converter>
    34801abe:	48 8b 7d f8          	mov    -0x8(%rbp),%rdi
    34801ac2:	e8 49 60 00 00       	callq  34807b10 <jinit_downsampler>
    34801ac7:	31 f6                	xor    %esi,%esi
    34801ac9:	48 8b 7d f8          	mov    -0x8(%rbp),%rdi
    34801acd:	e8 6e 53 00 00       	callq  34806e40 <jinit_c_prep_controller>
    34801ad2:	48 8b 7d f8          	mov    -0x8(%rbp),%rdi
    34801ad6:	e8 b5 e8 00 00       	callq  34810390 <jinit_forward_dct>
    34801adb:	48 8b 7d f8          	mov    -0x8(%rbp),%rdi
    34801adf:	83 bf 24 01 00 00 00 	cmpl   $0x0,0x124(%rdi)
    34801ae6:	0f 84 0e 00 00 00    	je     34801afa <jinit_compress_master+0x12a>
    34801aec:	48 8b 7d f8          	mov    -0x8(%rbp),%rdi
    34801af0:	e8 fb 9a 00 00       	callq  3480b5f0 <jinit_arith_encoder>
    34801af5:	e9 09 00 00 00       	jmpq   34801b03 <jinit_compress_master+0x133>
    34801afa:	48 8b 7d f8          	mov    -0x8(%rbp),%rdi
    34801afe:	e8 8d fb 00 00       	callq  34811690 <jinit_huff_encoder>
    34801b03:	b8 01 00 00 00       	mov    $0x1,%eax
    34801b08:	48 8b 4d f8          	mov    -0x8(%rbp),%rcx
    34801b0c:	83 b9 10 01 00 00 01 	cmpl   $0x1,0x110(%rcx)
    34801b13:	89 45 ec             	mov    %eax,-0x14(%rbp)
    34801b16:	0f 8f 17 00 00 00    	jg     34801b33 <jinit_compress_master+0x163>
    34801b1c:	48 8b 45 f8          	mov    -0x8(%rbp),%rax
    34801b20:	83 b8 28 01 00 00 00 	cmpl   $0x0,0x128(%rax)
    34801b27:	0f 95 c1             	setne  %cl
    34801b2a:	80 e1 01             	and    $0x1,%cl
    34801b2d:	0f b6 d1             	movzbl %cl,%edx
    34801b30:	89 55 ec             	mov    %edx,-0x14(%rbp)
    34801b33:	8b 45 ec             	mov    -0x14(%rbp),%eax
    34801b36:	48 8b 7d f8          	mov    -0x8(%rbp),%rdi
    34801b3a:	89 c6                	mov    %eax,%esi
    34801b3c:	e8 5f c3 00 00       	callq  3480dea0 <jinit_c_coef_controller>
    34801b41:	31 f6                	xor    %esi,%esi
    34801b43:	48 8b 7d f8          	mov    -0x8(%rbp),%rdi
    34801b47:	e8 44 00 00 00       	callq  34801b90 <jinit_c_main_controller>
    34801b4c:	48 8b 7d f8          	mov    -0x8(%rbp),%rdi
    34801b50:	e8 cb 03 00 00       	callq  34801f20 <jinit_marker_writer>
    34801b55:	48 8b 7d f8          	mov    -0x8(%rbp),%rdi
    34801b59:	48 8b 4f 08          	mov    0x8(%rdi),%rcx
    34801b5d:	48 8b 49 30          	mov    0x30(%rcx),%rcx
    34801b61:	ff d1                	callq  *%rcx
    34801b63:	48 8b 4d f8          	mov    -0x8(%rbp),%rcx
    34801b67:	48 8b b9 10 02 00 00 	mov    0x210(%rcx),%rdi
    34801b6e:	48 89 7d e0          	mov    %rdi,-0x20(%rbp)
    34801b72:	48 89 cf             	mov    %rcx,%rdi
    34801b75:	48 8b 55 e0          	mov    -0x20(%rbp),%rdx
    34801b79:	ff 12                	callq  *(%rdx)
    34801b7b:	48 83 c4 20          	add    $0x20,%rsp
    34801b7f:	5d                   	pop    %rbp
    34801b80:	c3                   	retq   
    34801b81:	66 2e 0f 1f 84 00 00 	nopw   %cs:0x0(%rax,%rax,1)
    34801b88:	00 00 00 
    34801b8b:	0f 1f 44 00 00       	nopl   0x0(%rax,%rax,1)

0000000034801b90 <jinit_c_main_controller>:
    34801b90:	55                   	push   %rbp
    34801b91:	48 89 e5             	mov    %rsp,%rbp
    34801b94:	48 83 ec 60          	sub    $0x60,%rsp
    34801b98:	b8 01 00 00 00       	mov    $0x1,%eax
    34801b9d:	b9 70 00 00 00       	mov    $0x70,%ecx
    34801ba2:	89 ca                	mov    %ecx,%edx
    34801ba4:	49 89 f8             	mov    %rdi,%r8
    34801ba7:	49 83 c0 08          	add    $0x8,%r8
    34801bab:	4c 8b 4f 08          	mov    0x8(%rdi),%r9
    34801baf:	4d 8b 09             	mov    (%r9),%r9
    34801bb2:	49 89 fa             	mov    %rdi,%r10
    34801bb5:	48 89 7d f8          	mov    %rdi,-0x8(%rbp)
    34801bb9:	4c 89 d7             	mov    %r10,%rdi
    34801bbc:	89 75 f4             	mov    %esi,-0xc(%rbp)
    34801bbf:	89 c6                	mov    %eax,%esi
    34801bc1:	4c 89 55 e8          	mov    %r10,-0x18(%rbp)
    34801bc5:	4c 89 45 e0          	mov    %r8,-0x20(%rbp)
    34801bc9:	41 ff d1             	callq  *%r9
    34801bcc:	48 ba d0 1c 80 34 00 	movabs $0x34801cd0,%rdx
    34801bd3:	00 00 00 
    34801bd6:	48 8b 7d f8          	mov    -0x8(%rbp),%rdi
    34801bda:	48 89 87 f8 01 00 00 	mov    %rax,0x1f8(%rdi)
    34801be1:	48 89 10             	mov    %rdx,(%rax)
    34801be4:	83 bf 20 01 00 00 00 	cmpl   $0x0,0x120(%rdi)
    34801beb:	48 89 45 d8          	mov    %rax,-0x28(%rbp)
    34801bef:	0f 85 cb 00 00 00    	jne    34801cc0 <jinit_c_main_controller+0x130>
    34801bf5:	8b 45 f4             	mov    -0xc(%rbp),%eax
    34801bf8:	83 f8 00             	cmp    $0x0,%eax
    34801bfb:	0f 84 1c 00 00 00    	je     34801c1d <jinit_c_main_controller+0x8d>
    34801c01:	48 8b 45 f8          	mov    -0x8(%rbp),%rax
    34801c05:	48 8b 08             	mov    (%rax),%rcx
    34801c08:	c7 41 28 03 00 00 00 	movl   $0x3,0x28(%rcx)
    34801c0f:	48 8b 08             	mov    (%rax),%rcx
    34801c12:	48 8b 7d e8          	mov    -0x18(%rbp),%rdi
    34801c16:	ff 11                	callq  *(%rcx)
    34801c18:	e9 a3 00 00 00       	jmpq   34801cc0 <jinit_c_main_controller+0x130>
    34801c1d:	31 c0                	xor    %eax,%eax
    34801c1f:	48 8b 4d f8          	mov    -0x8(%rbp),%rcx
    34801c23:	48 8b 51 68          	mov    0x68(%rcx),%rdx
    34801c27:	48 83 c1 5c          	add    $0x5c,%rcx
    34801c2b:	48 8b 75 d8          	mov    -0x28(%rbp),%rsi
    34801c2f:	48 83 c6 20          	add    $0x20,%rsi
    34801c33:	48 89 75 d0          	mov    %rsi,-0x30(%rbp)
    34801c37:	48 89 4d c8          	mov    %rcx,-0x38(%rbp)
    34801c3b:	89 45 c4             	mov    %eax,-0x3c(%rbp)
    34801c3e:	48 89 55 b8          	mov    %rdx,-0x48(%rbp)
    34801c42:	48 8b 45 b8          	mov    -0x48(%rbp),%rax
    34801c46:	8b 4d c4             	mov    -0x3c(%rbp),%ecx
    34801c49:	48 8b 55 c8          	mov    -0x38(%rbp),%rdx
    34801c4d:	3b 0a                	cmp    (%rdx),%ecx
    34801c4f:	48 89 45 b0          	mov    %rax,-0x50(%rbp)
    34801c53:	89 4d ac             	mov    %ecx,-0x54(%rbp)
    34801c56:	0f 8d 64 00 00 00    	jge    34801cc0 <jinit_c_main_controller+0x130>
    34801c5c:	be 01 00 00 00       	mov    $0x1,%esi
    34801c61:	48 8b 45 e0          	mov    -0x20(%rbp),%rax
    34801c65:	48 8b 08             	mov    (%rax),%rcx
    34801c68:	48 8b 49 10          	mov    0x10(%rcx),%rcx
    34801c6c:	48 8b 55 b0          	mov    -0x50(%rbp),%rdx
    34801c70:	8b 7a 1c             	mov    0x1c(%rdx),%edi
    34801c73:	0f af 7a 24          	imul   0x24(%rdx),%edi
    34801c77:	44 8b 42 0c          	mov    0xc(%rdx),%r8d
    34801c7b:	44 0f af 42 28       	imul   0x28(%rdx),%r8d
    34801c80:	4c 8b 4d e8          	mov    -0x18(%rbp),%r9
    34801c84:	89 7d a8             	mov    %edi,-0x58(%rbp)
    34801c87:	4c 89 cf             	mov    %r9,%rdi
    34801c8a:	8b 55 a8             	mov    -0x58(%rbp),%edx
    34801c8d:	48 89 4d a0          	mov    %rcx,-0x60(%rbp)
    34801c91:	44 89 c1             	mov    %r8d,%ecx
    34801c94:	4c 8b 55 a0          	mov    -0x60(%rbp),%r10
    34801c98:	41 ff d2             	callq  *%r10
    34801c9b:	8b 4d ac             	mov    -0x54(%rbp),%ecx
    34801c9e:	48 63 f9             	movslq %ecx,%rdi
    34801ca1:	4c 8b 4d d0          	mov    -0x30(%rbp),%r9
    34801ca5:	49 89 04 f9          	mov    %rax,(%r9,%rdi,8)
    34801ca9:	83 c1 01             	add    $0x1,%ecx
    34801cac:	48 8b 45 b0          	mov    -0x50(%rbp),%rax
    34801cb0:	48 83 c0 60          	add    $0x60,%rax
    34801cb4:	89 4d c4             	mov    %ecx,-0x3c(%rbp)
    34801cb7:	48 89 45 b8          	mov    %rax,-0x48(%rbp)
    34801cbb:	e9 82 ff ff ff       	jmpq   34801c42 <jinit_c_main_controller+0xb2>
    34801cc0:	48 83 c4 60          	add    $0x60,%rsp
    34801cc4:	5d                   	pop    %rbp
    34801cc5:	c3                   	retq   
    34801cc6:	66 2e 0f 1f 84 00 00 	nopw   %cs:0x0(%rax,%rax,1)
    34801ccd:	00 00 00 

0000000034801cd0 <start_pass_main>:
    34801cd0:	55                   	push   %rbp
    34801cd1:	48 89 e5             	mov    %rsp,%rbp
    34801cd4:	48 83 ec 20          	sub    $0x20,%rsp
    34801cd8:	48 8b 87 f8 01 00 00 	mov    0x1f8(%rdi),%rax
    34801cdf:	83 bf 20 01 00 00 00 	cmpl   $0x0,0x120(%rdi)
    34801ce6:	48 89 7d f8          	mov    %rdi,-0x8(%rbp)
    34801cea:	89 75 f4             	mov    %esi,-0xc(%rbp)
    34801ced:	48 89 45 e8          	mov    %rax,-0x18(%rbp)
    34801cf1:	0f 85 58 00 00 00    	jne    34801d4f <start_pass_main+0x7f>
    34801cf7:	48 8b 45 e8          	mov    -0x18(%rbp),%rax
    34801cfb:	c7 40 10 00 00 00 00 	movl   $0x0,0x10(%rax)
    34801d02:	c7 40 14 00 00 00 00 	movl   $0x0,0x14(%rax)
    34801d09:	c7 40 18 00 00 00 00 	movl   $0x0,0x18(%rax)
    34801d10:	8b 4d f4             	mov    -0xc(%rbp),%ecx
    34801d13:	89 48 1c             	mov    %ecx,0x1c(%rax)
    34801d16:	83 f9 00             	cmp    $0x0,%ecx
    34801d19:	0f 85 17 00 00 00    	jne    34801d36 <start_pass_main+0x66>
    34801d1f:	48 b8 60 1d 80 34 00 	movabs $0x34801d60,%rax
    34801d26:	00 00 00 
    34801d29:	48 8b 4d e8          	mov    -0x18(%rbp),%rcx
    34801d2d:	48 89 41 08          	mov    %rax,0x8(%rcx)
    34801d31:	e9 19 00 00 00       	jmpq   34801d4f <start_pass_main+0x7f>
    34801d36:	48 8b 45 f8          	mov    -0x8(%rbp),%rax
    34801d3a:	48 8b 08             	mov    (%rax),%rcx
    34801d3d:	c7 41 28 03 00 00 00 	movl   $0x3,0x28(%rcx)
    34801d44:	48 8b 08             	mov    (%rax),%rcx
    34801d47:	48 8b 09             	mov    (%rcx),%rcx
    34801d4a:	48 89 c7             	mov    %rax,%rdi
    34801d4d:	ff d1                	callq  *%rcx
    34801d4f:	48 83 c4 20          	add    $0x20,%rsp
    34801d53:	5d                   	pop    %rbp
    34801d54:	c3                   	retq   
    34801d55:	66 66 2e 0f 1f 84 00 	data32 nopw %cs:0x0(%rax,%rax,1)
    34801d5c:	00 00 00 00 

0000000034801d60 <process_data_simple_main>:
    34801d60:	55                   	push   %rbp
    34801d61:	48 89 e5             	mov    %rsp,%rbp
    34801d64:	41 54                	push   %r12
    34801d66:	53                   	push   %rbx
    34801d67:	48 81 ec 90 00 00 00 	sub    $0x90,%rsp
    34801d6e:	48 8b 87 f8 01 00 00 	mov    0x1f8(%rdi),%rax
    34801d75:	49 89 c0             	mov    %rax,%r8
    34801d78:	49 83 c0 10          	add    $0x10,%r8
    34801d7c:	49 89 f9             	mov    %rdi,%r9
    34801d7f:	49 81 c1 70 01 00 00 	add    $0x170,%r9
    34801d86:	49 89 c2             	mov    %rax,%r10
    34801d89:	49 83 c2 14          	add    $0x14,%r10
    34801d8d:	49 89 fb             	mov    %rdi,%r11
    34801d90:	49 81 c3 6c 01 00 00 	add    $0x16c,%r11
    34801d97:	48 89 fb             	mov    %rdi,%rbx
    34801d9a:	48 81 c3 00 02 00 00 	add    $0x200,%rbx
    34801da1:	49 89 c4             	mov    %rax,%r12
    34801da4:	49 83 c4 20          	add    $0x20,%r12
    34801da8:	48 89 45 e8          	mov    %rax,-0x18(%rbp)
    34801dac:	48 89 f8             	mov    %rdi,%rax
    34801daf:	48 05 08 02 00 00    	add    $0x208,%rax
    34801db5:	48 89 45 e0          	mov    %rax,-0x20(%rbp)
    34801db9:	48 8b 45 e8          	mov    -0x18(%rbp),%rax
    34801dbd:	48 83 c0 20          	add    $0x20,%rax
    34801dc1:	48 89 45 d8          	mov    %rax,-0x28(%rbp)
    34801dc5:	48 8b 45 e8          	mov    -0x18(%rbp),%rax
    34801dc9:	48 83 c0 18          	add    $0x18,%rax
    34801dcd:	48 89 55 d0          	mov    %rdx,-0x30(%rbp)
    34801dd1:	48 89 75 c8          	mov    %rsi,-0x38(%rbp)
    34801dd5:	48 89 7d c0          	mov    %rdi,-0x40(%rbp)
    34801dd9:	89 4d bc             	mov    %ecx,-0x44(%rbp)
    34801ddc:	48 89 45 b0          	mov    %rax,-0x50(%rbp)
    34801de0:	4c 89 45 a8          	mov    %r8,-0x58(%rbp)
    34801de4:	4c 89 4d a0          	mov    %r9,-0x60(%rbp)
    34801de8:	4c 89 55 98          	mov    %r10,-0x68(%rbp)
    34801dec:	4c 89 5d 90          	mov    %r11,-0x70(%rbp)
    34801df0:	48 89 5d 88          	mov    %rbx,-0x78(%rbp)
    34801df4:	4c 89 65 80          	mov    %r12,-0x80(%rbp)
    34801df8:	48 8b 45 a8          	mov    -0x58(%rbp),%rax
    34801dfc:	8b 08                	mov    (%rax),%ecx
    34801dfe:	48 8b 55 a0          	mov    -0x60(%rbp),%rdx
    34801e02:	3b 0a                	cmp    (%rdx),%ecx
    34801e04:	0f 83 05 01 00 00    	jae    34801f0f <process_data_simple_main+0x1af>
    34801e0a:	48 8b 45 98          	mov    -0x68(%rbp),%rax
    34801e0e:	8b 08                	mov    (%rax),%ecx
    34801e10:	48 8b 55 90          	mov    -0x70(%rbp),%rdx
    34801e14:	8b 32                	mov    (%rdx),%esi
    34801e16:	39 f1                	cmp    %esi,%ecx
    34801e18:	89 b5 7c ff ff ff    	mov    %esi,-0x84(%rbp)
    34801e1e:	0f 83 3f 00 00 00    	jae    34801e63 <process_data_simple_main+0x103>
    34801e24:	48 8b 45 88          	mov    -0x78(%rbp),%rax
    34801e28:	48 8b 08             	mov    (%rax),%rcx
    34801e2b:	48 8b 7d c0          	mov    -0x40(%rbp),%rdi
    34801e2f:	48 8b 75 c8          	mov    -0x38(%rbp),%rsi
    34801e33:	48 8b 55 d0          	mov    -0x30(%rbp),%rdx
    34801e37:	44 8b 45 bc          	mov    -0x44(%rbp),%r8d
    34801e3b:	48 89 8d 70 ff ff ff 	mov    %rcx,-0x90(%rbp)
    34801e42:	44 89 c1             	mov    %r8d,%ecx
    34801e45:	4c 8b 45 80          	mov    -0x80(%rbp),%r8
    34801e49:	4c 8b 4d 98          	mov    -0x68(%rbp),%r9
    34801e4d:	44 8b 95 7c ff ff ff 	mov    -0x84(%rbp),%r10d
    34801e54:	44 89 14 24          	mov    %r10d,(%rsp)
    34801e58:	4c 8b 9d 70 ff ff ff 	mov    -0x90(%rbp),%r11
    34801e5f:	41 ff 53 08          	callq  *0x8(%r11)
    34801e63:	48 8b 45 98          	mov    -0x68(%rbp),%rax
    34801e67:	8b 08                	mov    (%rax),%ecx
    34801e69:	48 8b 55 90          	mov    -0x70(%rbp),%rdx
    34801e6d:	3b 0a                	cmp    (%rdx),%ecx
    34801e6f:	0f 85 9a 00 00 00    	jne    34801f0f <process_data_simple_main+0x1af>
    34801e75:	48 8b 45 e0          	mov    -0x20(%rbp),%rax
    34801e79:	48 8b 08             	mov    (%rax),%rcx
    34801e7c:	48 8b 7d c0          	mov    -0x40(%rbp),%rdi
    34801e80:	48 8b 75 d8          	mov    -0x28(%rbp),%rsi
    34801e84:	ff 51 08             	callq  *0x8(%rcx)
    34801e87:	48 8b 4d b0          	mov    -0x50(%rbp),%rcx
    34801e8b:	83 39 00             	cmpl   $0x0,(%rcx)
    34801e8e:	0f 95 c2             	setne  %dl
    34801e91:	83 f8 00             	cmp    $0x0,%eax
    34801e94:	88 95 6f ff ff ff    	mov    %dl,-0x91(%rbp)
    34801e9a:	0f 85 2d 00 00 00    	jne    34801ecd <process_data_simple_main+0x16d>
    34801ea0:	8a 85 6f ff ff ff    	mov    -0x91(%rbp),%al
    34801ea6:	a8 01                	test   $0x1,%al
    34801ea8:	0f 85 61 00 00 00    	jne    34801f0f <process_data_simple_main+0x1af>
    34801eae:	e9 00 00 00 00       	jmpq   34801eb3 <process_data_simple_main+0x153>
    34801eb3:	48 8b 45 d0          	mov    -0x30(%rbp),%rax
    34801eb7:	8b 08                	mov    (%rax),%ecx
    34801eb9:	83 c1 ff             	add    $0xffffffff,%ecx
    34801ebc:	89 08                	mov    %ecx,(%rax)
    34801ebe:	48 8b 55 b0          	mov    -0x50(%rbp),%rdx
    34801ec2:	c7 02 01 00 00 00    	movl   $0x1,(%rdx)
    34801ec8:	e9 42 00 00 00       	jmpq   34801f0f <process_data_simple_main+0x1af>
    34801ecd:	8a 85 6f ff ff ff    	mov    -0x91(%rbp),%al
    34801ed3:	a8 01                	test   $0x1,%al
    34801ed5:	0f 85 05 00 00 00    	jne    34801ee0 <process_data_simple_main+0x180>
    34801edb:	e9 15 00 00 00       	jmpq   34801ef5 <process_data_simple_main+0x195>
    34801ee0:	48 8b 45 d0          	mov    -0x30(%rbp),%rax
    34801ee4:	8b 08                	mov    (%rax),%ecx
    34801ee6:	83 c1 01             	add    $0x1,%ecx
    34801ee9:	89 08                	mov    %ecx,(%rax)
    34801eeb:	48 8b 55 b0          	mov    -0x50(%rbp),%rdx
    34801eef:	c7 02 00 00 00 00    	movl   $0x0,(%rdx)
    34801ef5:	48 8b 45 98          	mov    -0x68(%rbp),%rax
    34801ef9:	c7 00 00 00 00 00    	movl   $0x0,(%rax)
    34801eff:	48 8b 4d a8          	mov    -0x58(%rbp),%rcx
    34801f03:	8b 11                	mov    (%rcx),%edx
    34801f05:	83 c2 01             	add    $0x1,%edx
    34801f08:	89 11                	mov    %edx,(%rcx)
    34801f0a:	e9 e9 fe ff ff       	jmpq   34801df8 <process_data_simple_main+0x98>
    34801f0f:	48 81 c4 90 00 00 00 	add    $0x90,%rsp
    34801f16:	5b                   	pop    %rbx
    34801f17:	41 5c                	pop    %r12
    34801f19:	5d                   	pop    %rbp
    34801f1a:	c3                   	retq   
    34801f1b:	0f 1f 44 00 00       	nopl   0x0(%rax,%rax,1)

0000000034801f20 <jinit_marker_writer>:
    34801f20:	55                   	push   %rbp
    34801f21:	48 89 e5             	mov    %rsp,%rbp
    34801f24:	53                   	push   %rbx
    34801f25:	50                   	push   %rax
    34801f26:	be 01 00 00 00       	mov    $0x1,%esi
    34801f2b:	b8 40 00 00 00       	mov    $0x40,%eax
    34801f30:	89 c2                	mov    %eax,%edx
    34801f32:	48 8b 4f 08          	mov    0x8(%rdi),%rcx
    34801f36:	48 8b 09             	mov    (%rcx),%rcx
    34801f39:	49 89 f8             	mov    %rdi,%r8
    34801f3c:	48 89 7d f0          	mov    %rdi,-0x10(%rbp)
    34801f40:	4c 89 c7             	mov    %r8,%rdi
    34801f43:	ff d1                	callq  *%rcx
    34801f45:	48 b9 d0 25 80 34 00 	movabs $0x348025d0,%rcx
    34801f4c:	00 00 00 
    34801f4f:	48 ba 70 25 80 34 00 	movabs $0x34802570,%rdx
    34801f56:	00 00 00 
    34801f59:	48 bf 70 24 80 34 00 	movabs $0x34802470,%rdi
    34801f60:	00 00 00 
    34801f63:	49 b8 60 24 80 34 00 	movabs $0x34802460,%r8
    34801f6a:	00 00 00 
    34801f6d:	49 b9 10 23 80 34 00 	movabs $0x34802310,%r9
    34801f74:	00 00 00 
    34801f77:	49 ba 30 20 80 34 00 	movabs $0x34802030,%r10
    34801f7e:	00 00 00 
    34801f81:	49 bb c0 1f 80 34 00 	movabs $0x34801fc0,%r11
    34801f88:	00 00 00 
    34801f8b:	48 8b 5d f0          	mov    -0x10(%rbp),%rbx
    34801f8f:	48 89 83 10 02 00 00 	mov    %rax,0x210(%rbx)
    34801f96:	4c 89 18             	mov    %r11,(%rax)
    34801f99:	4c 89 50 08          	mov    %r10,0x8(%rax)
    34801f9d:	4c 89 48 10          	mov    %r9,0x10(%rax)
    34801fa1:	4c 89 40 18          	mov    %r8,0x18(%rax)
    34801fa5:	48 89 78 20          	mov    %rdi,0x20(%rax)
    34801fa9:	48 89 50 28          	mov    %rdx,0x28(%rax)
    34801fad:	48 89 48 30          	mov    %rcx,0x30(%rax)
    34801fb1:	c7 40 38 00 00 00 00 	movl   $0x0,0x38(%rax)
    34801fb8:	48 83 c4 08          	add    $0x8,%rsp
    34801fbc:	5b                   	pop    %rbx
    34801fbd:	5d                   	pop    %rbp
    34801fbe:	c3                   	retq   
    34801fbf:	90                   	nop

0000000034801fc0 <write_file_header>:
    34801fc0:	55                   	push   %rbp
    34801fc1:	48 89 e5             	mov    %rsp,%rbp
    34801fc4:	48 83 ec 10          	sub    $0x10,%rsp
    34801fc8:	be d8 00 00 00       	mov    $0xd8,%esi
    34801fcd:	48 8b 87 10 02 00 00 	mov    0x210(%rdi),%rax
    34801fd4:	48 89 7d f8          	mov    %rdi,-0x8(%rbp)
    34801fd8:	48 89 45 f0          	mov    %rax,-0x10(%rbp)
    34801fdc:	e8 ff 05 00 00       	callq  348025e0 <emit_marker>
    34801fe1:	48 8b 45 f0          	mov    -0x10(%rbp),%rax
    34801fe5:	c7 40 38 00 00 00 00 	movl   $0x0,0x38(%rax)
    34801fec:	48 8b 7d f8          	mov    -0x8(%rbp),%rdi
    34801ff0:	83 bf 44 01 00 00 00 	cmpl   $0x0,0x144(%rdi)
    34801ff7:	0f 84 09 00 00 00    	je     34802006 <write_file_header+0x46>
    34801ffd:	48 8b 7d f8          	mov    -0x8(%rbp),%rdi
    34802001:	e8 0a 06 00 00       	callq  34802610 <emit_jfif_app0>
    34802006:	48 8b 45 f8          	mov    -0x8(%rbp),%rax
    3480200a:	83 b8 50 01 00 00 00 	cmpl   $0x0,0x150(%rax)
    34802011:	0f 84 09 00 00 00    	je     34802020 <write_file_header+0x60>
    34802017:	48 8b 7d f8          	mov    -0x8(%rbp),%rdi
    3480201b:	e8 d0 06 00 00       	callq  348026f0 <emit_adobe_app14>
    34802020:	48 83 c4 10          	add    $0x10,%rsp
    34802024:	5d                   	pop    %rbp
    34802025:	c3                   	retq   
    34802026:	66 2e 0f 1f 84 00 00 	nopw   %cs:0x0(%rax,%rax,1)
    3480202d:	00 00 00 

0000000034802030 <write_frame_header>:
    34802030:	55                   	push   %rbp
    34802031:	48 89 e5             	mov    %rsp,%rbp
    34802034:	48 81 ec 90 00 00 00 	sub    $0x90,%rsp
    3480203b:	31 c0                	xor    %eax,%eax
    3480203d:	48 89 f9             	mov    %rdi,%rcx
    34802040:	48 83 c1 68          	add    $0x68,%rcx
    34802044:	48 8b 57 68          	mov    0x68(%rdi),%rdx
    34802048:	48 89 fe             	mov    %rdi,%rsi
    3480204b:	48 83 c6 5c          	add    $0x5c,%rsi
    3480204f:	41 89 c0             	mov    %eax,%r8d
    34802052:	48 89 7d f8          	mov    %rdi,-0x8(%rbp)
    34802056:	44 89 45 f4          	mov    %r8d,-0xc(%rbp)
    3480205a:	48 89 4d e8          	mov    %rcx,-0x18(%rbp)
    3480205e:	89 45 e4             	mov    %eax,-0x1c(%rbp)
    34802061:	48 89 75 d8          	mov    %rsi,-0x28(%rbp)
    34802065:	48 89 55 d0          	mov    %rdx,-0x30(%rbp)
    34802069:	48 8b 45 d0          	mov    -0x30(%rbp),%rax
    3480206d:	8b 4d e4             	mov    -0x1c(%rbp),%ecx
    34802070:	8b 55 f4             	mov    -0xc(%rbp),%edx
    34802073:	48 8b 75 d8          	mov    -0x28(%rbp),%rsi
    34802077:	3b 16                	cmp    (%rsi),%edx
    34802079:	48 89 45 c8          	mov    %rax,-0x38(%rbp)
    3480207d:	89 4d c4             	mov    %ecx,-0x3c(%rbp)
    34802080:	89 55 c0             	mov    %edx,-0x40(%rbp)
    34802083:	0f 8d 32 00 00 00    	jge    348020bb <write_frame_header+0x8b>
    34802089:	48 8b 45 c8          	mov    -0x38(%rbp),%rax
    3480208d:	8b 70 10             	mov    0x10(%rax),%esi
    34802090:	48 8b 7d f8          	mov    -0x8(%rbp),%rdi
    34802094:	e8 07 08 00 00       	callq  348028a0 <emit_dqt>
    34802099:	8b 75 c4             	mov    -0x3c(%rbp),%esi
    3480209c:	01 f0                	add    %esi,%eax
    3480209e:	8b 4d c0             	mov    -0x40(%rbp),%ecx
    348020a1:	83 c1 01             	add    $0x1,%ecx
    348020a4:	48 8b 7d c8          	mov    -0x38(%rbp),%rdi
    348020a8:	48 83 c7 60          	add    $0x60,%rdi
    348020ac:	89 4d f4             	mov    %ecx,-0xc(%rbp)
    348020af:	89 45 e4             	mov    %eax,-0x1c(%rbp)
    348020b2:	48 89 7d d0          	mov    %rdi,-0x30(%rbp)
    348020b6:	e9 ae ff ff ff       	jmpq   34802069 <write_frame_header+0x39>
    348020bb:	31 c0                	xor    %eax,%eax
    348020bd:	48 8b 4d f8          	mov    -0x8(%rbp),%rcx
    348020c1:	48 81 c1 24 01 00 00 	add    $0x124,%rcx
    348020c8:	48 8b 55 f8          	mov    -0x8(%rbp),%rdx
    348020cc:	83 ba 24 01 00 00 00 	cmpl   $0x0,0x124(%rdx)
    348020d3:	48 89 4d b8          	mov    %rcx,-0x48(%rbp)
    348020d7:	89 45 b4             	mov    %eax,-0x4c(%rbp)
    348020da:	0f 85 15 01 00 00    	jne    348021f5 <write_frame_header+0x1c5>
    348020e0:	31 c0                	xor    %eax,%eax
    348020e2:	48 8b 4d f8          	mov    -0x8(%rbp),%rcx
    348020e6:	83 b9 5c 01 00 00 00 	cmpl   $0x0,0x15c(%rcx)
    348020ed:	89 45 b4             	mov    %eax,-0x4c(%rbp)
    348020f0:	0f 85 ff 00 00 00    	jne    348021f5 <write_frame_header+0x1c5>
    348020f6:	31 c0                	xor    %eax,%eax
    348020f8:	48 8b 4d f8          	mov    -0x8(%rbp),%rcx
    348020fc:	83 79 58 08          	cmpl   $0x8,0x58(%rcx)
    34802100:	89 45 b4             	mov    %eax,-0x4c(%rbp)
    34802103:	0f 85 ec 00 00 00    	jne    348021f5 <write_frame_header+0x1c5>
    34802109:	31 c0                	xor    %eax,%eax
    3480210b:	48 8b 4d f8          	mov    -0x8(%rbp),%rcx
    3480210f:	83 b9 dc 01 00 00 08 	cmpl   $0x8,0x1dc(%rcx)
    34802116:	89 45 b4             	mov    %eax,-0x4c(%rbp)
    34802119:	0f 85 d6 00 00 00    	jne    348021f5 <write_frame_header+0x1c5>
    3480211f:	31 c0                	xor    %eax,%eax
    34802121:	b9 01 00 00 00       	mov    $0x1,%ecx
    34802126:	48 8b 55 e8          	mov    -0x18(%rbp),%rdx
    3480212a:	48 8b 32             	mov    (%rdx),%rsi
    3480212d:	48 8b 7d d8          	mov    -0x28(%rbp),%rdi
    34802131:	44 8b 07             	mov    (%rdi),%r8d
    34802134:	44 89 45 b0          	mov    %r8d,-0x50(%rbp)
    34802138:	89 45 ac             	mov    %eax,-0x54(%rbp)
    3480213b:	89 4d a8             	mov    %ecx,-0x58(%rbp)
    3480213e:	48 89 75 a0          	mov    %rsi,-0x60(%rbp)
    34802142:	48 8b 45 a0          	mov    -0x60(%rbp),%rax
    34802146:	8b 4d a8             	mov    -0x58(%rbp),%ecx
    34802149:	8b 55 ac             	mov    -0x54(%rbp),%edx
    3480214c:	8b 75 b0             	mov    -0x50(%rbp),%esi
    3480214f:	39 f2                	cmp    %esi,%edx
    34802151:	48 89 45 98          	mov    %rax,-0x68(%rbp)
    34802155:	89 4d 94             	mov    %ecx,-0x6c(%rbp)
    34802158:	89 55 90             	mov    %edx,-0x70(%rbp)
    3480215b:	0f 8d 4c 00 00 00    	jge    348021ad <write_frame_header+0x17d>
    34802161:	48 8b 45 98          	mov    -0x68(%rbp),%rax
    34802165:	83 78 14 01          	cmpl   $0x1,0x14(%rax)
    34802169:	0f 8f 14 00 00 00    	jg     34802183 <write_frame_header+0x153>
    3480216f:	48 8b 45 98          	mov    -0x68(%rbp),%rax
    34802173:	83 78 18 01          	cmpl   $0x1,0x18(%rax)
    34802177:	8b 4d 94             	mov    -0x6c(%rbp),%ecx
    3480217a:	89 4d 8c             	mov    %ecx,-0x74(%rbp)
    3480217d:	0f 8e 0a 00 00 00    	jle    3480218d <write_frame_header+0x15d>
    34802183:	31 c0                	xor    %eax,%eax
    34802185:	89 45 8c             	mov    %eax,-0x74(%rbp)
    34802188:	e9 00 00 00 00       	jmpq   3480218d <write_frame_header+0x15d>
    3480218d:	8b 45 8c             	mov    -0x74(%rbp),%eax
    34802190:	8b 4d 90             	mov    -0x70(%rbp),%ecx
    34802193:	83 c1 01             	add    $0x1,%ecx
    34802196:	48 8b 55 98          	mov    -0x68(%rbp),%rdx
    3480219a:	48 83 c2 60          	add    $0x60,%rdx
    3480219e:	89 4d ac             	mov    %ecx,-0x54(%rbp)
    348021a1:	89 45 a8             	mov    %eax,-0x58(%rbp)
    348021a4:	48 89 55 a0          	mov    %rdx,-0x60(%rbp)
    348021a8:	e9 95 ff ff ff       	jmpq   34802142 <write_frame_header+0x112>
    348021ad:	8b 45 c4             	mov    -0x3c(%rbp),%eax
    348021b0:	83 f8 00             	cmp    $0x0,%eax
    348021b3:	0f 95 c1             	setne  %cl
    348021b6:	8b 55 94             	mov    -0x6c(%rbp),%edx
    348021b9:	83 fa 00             	cmp    $0x0,%edx
    348021bc:	40 0f 95 c6          	setne  %sil
    348021c0:	40 20 f1             	and    %sil,%cl
    348021c3:	f6 c1 01             	test   $0x1,%cl
    348021c6:	89 55 b4             	mov    %edx,-0x4c(%rbp)
    348021c9:	0f 85 05 00 00 00    	jne    348021d4 <write_frame_header+0x1a4>
    348021cf:	e9 21 00 00 00       	jmpq   348021f5 <write_frame_header+0x1c5>
    348021d4:	31 f6                	xor    %esi,%esi
    348021d6:	48 8b 45 f8          	mov    -0x8(%rbp),%rax
    348021da:	48 8b 08             	mov    (%rax),%rcx
    348021dd:	c7 41 28 4d 00 00 00 	movl   $0x4d,0x28(%rcx)
    348021e4:	48 8b 08             	mov    (%rax),%rcx
    348021e7:	48 8b 49 08          	mov    0x8(%rcx),%rcx
    348021eb:	48 89 c7             	mov    %rax,%rdi
    348021ee:	ff d1                	callq  *%rcx
    348021f0:	31 f6                	xor    %esi,%esi
    348021f2:	89 75 b4             	mov    %esi,-0x4c(%rbp)
    348021f5:	8b 45 b4             	mov    -0x4c(%rbp),%eax
    348021f8:	48 8b 4d b8          	mov    -0x48(%rbp),%rcx
    348021fc:	8b 11                	mov    (%rcx),%edx
    348021fe:	48 8b 75 f8          	mov    -0x8(%rbp),%rsi
    34802202:	48 81 c6 5c 01 00 00 	add    $0x15c,%rsi
    34802209:	48 8b 7d f8          	mov    -0x8(%rbp),%rdi
    3480220d:	83 bf 5c 01 00 00 00 	cmpl   $0x0,0x15c(%rdi)
    34802214:	41 0f 95 c0          	setne  %r8b
    34802218:	83 fa 00             	cmp    $0x0,%edx
    3480221b:	89 45 88             	mov    %eax,-0x78(%rbp)
    3480221e:	44 88 45 87          	mov    %r8b,-0x79(%rbp)
    34802222:	48 89 b5 78 ff ff ff 	mov    %rsi,-0x88(%rbp)
    34802229:	0f 84 36 00 00 00    	je     34802265 <write_frame_header+0x235>
    3480222f:	8a 45 87             	mov    -0x79(%rbp),%al
    34802232:	a8 01                	test   $0x1,%al
    34802234:	0f 85 05 00 00 00    	jne    3480223f <write_frame_header+0x20f>
    3480223a:	e9 13 00 00 00       	jmpq   34802252 <write_frame_header+0x222>
    3480223f:	be ca 00 00 00       	mov    $0xca,%esi
    34802244:	48 8b 7d f8          	mov    -0x8(%rbp),%rdi
    34802248:	e8 33 08 00 00       	callq  34802a80 <emit_sof>
    3480224d:	e9 63 00 00 00       	jmpq   348022b5 <write_frame_header+0x285>
    34802252:	be c9 00 00 00       	mov    $0xc9,%esi
    34802257:	48 8b 7d f8          	mov    -0x8(%rbp),%rdi
    3480225b:	e8 20 08 00 00       	callq  34802a80 <emit_sof>
    34802260:	e9 50 00 00 00       	jmpq   348022b5 <write_frame_header+0x285>
    34802265:	8a 45 87             	mov    -0x79(%rbp),%al
    34802268:	a8 01                	test   $0x1,%al
    3480226a:	0f 85 05 00 00 00    	jne    34802275 <write_frame_header+0x245>
    34802270:	e9 13 00 00 00       	jmpq   34802288 <write_frame_header+0x258>
    34802275:	be c2 00 00 00       	mov    $0xc2,%esi
    3480227a:	48 8b 7d f8          	mov    -0x8(%rbp),%rdi
    3480227e:	e8 fd 07 00 00       	callq  34802a80 <emit_sof>
    34802283:	e9 2d 00 00 00       	jmpq   348022b5 <write_frame_header+0x285>
    34802288:	8b 45 88             	mov    -0x78(%rbp),%eax
    3480228b:	83 f8 00             	cmp    $0x0,%eax
    3480228e:	0f 84 13 00 00 00    	je     348022a7 <write_frame_header+0x277>
    34802294:	be c0 00 00 00       	mov    $0xc0,%esi
    34802299:	48 8b 7d f8          	mov    -0x8(%rbp),%rdi
    3480229d:	e8 de 07 00 00       	callq  34802a80 <emit_sof>
    348022a2:	e9 0e 00 00 00       	jmpq   348022b5 <write_frame_header+0x285>
    348022a7:	be c1 00 00 00       	mov    $0xc1,%esi
    348022ac:	48 8b 7d f8          	mov    -0x8(%rbp),%rdi
    348022b0:	e8 cb 07 00 00       	callq  34802a80 <emit_sof>
    348022b5:	48 8b 45 f8          	mov    -0x8(%rbp),%rax
    348022b9:	83 b8 54 01 00 00 00 	cmpl   $0x0,0x154(%rax)
    348022c0:	0f 84 09 00 00 00    	je     348022cf <write_frame_header+0x29f>
    348022c6:	48 8b 7d f8          	mov    -0x8(%rbp),%rdi
    348022ca:	e8 f1 08 00 00       	callq  34802bc0 <emit_lse_ict>
    348022cf:	48 8b 85 78 ff ff ff 	mov    -0x88(%rbp),%rax
    348022d6:	83 38 00             	cmpl   $0x0,(%rax)
    348022d9:	0f 84 1a 00 00 00    	je     348022f9 <write_frame_header+0x2c9>
    348022df:	48 8b 45 f8          	mov    -0x8(%rbp),%rax
    348022e3:	83 b8 dc 01 00 00 08 	cmpl   $0x8,0x1dc(%rax)
    348022ea:	0f 84 09 00 00 00    	je     348022f9 <write_frame_header+0x2c9>
    348022f0:	48 8b 7d f8          	mov    -0x8(%rbp),%rdi
    348022f4:	e8 f7 09 00 00       	callq  34802cf0 <emit_pseudo_sos>
    348022f9:	48 81 c4 90 00 00 00 	add    $0x90,%rsp
    34802300:	5d                   	pop    %rbp
    34802301:	c3                   	retq   
    34802302:	66 66 66 66 66 2e 0f 	data32 data32 data32 data32 nopw %cs:0x0(%rax,%rax,1)
    34802309:	1f 84 00 00 00 00 00 

0000000034802310 <write_scan_header>:
    34802310:	55                   	push   %rbp
    34802311:	48 89 e5             	mov    %rsp,%rbp
    34802314:	48 83 ec 50          	sub    $0x50,%rsp
    34802318:	48 8b 87 10 02 00 00 	mov    0x210(%rdi),%rax
    3480231f:	83 bf 24 01 00 00 00 	cmpl   $0x0,0x124(%rdi)
    34802326:	48 89 7d f8          	mov    %rdi,-0x8(%rbp)
    3480232a:	48 89 45 f0          	mov    %rax,-0x10(%rbp)
    3480232e:	0f 84 0e 00 00 00    	je     34802342 <write_scan_header+0x32>
    34802334:	48 8b 7d f8          	mov    -0x8(%rbp),%rdi
    34802338:	e8 13 0a 00 00       	callq  34802d50 <emit_dac>
    3480233d:	e9 c5 00 00 00       	jmpq   34802407 <write_scan_header+0xf7>
    34802342:	31 c0                	xor    %eax,%eax
    34802344:	48 8b 4d f8          	mov    -0x8(%rbp),%rcx
    34802348:	48 81 c1 74 01 00 00 	add    $0x174,%rcx
    3480234f:	48 8b 55 f8          	mov    -0x8(%rbp),%rdx
    34802353:	48 81 c2 cc 01 00 00 	add    $0x1cc,%rdx
    3480235a:	48 8b 75 f8          	mov    -0x8(%rbp),%rsi
    3480235e:	48 81 c6 d4 01 00 00 	add    $0x1d4,%rsi
    34802365:	48 8b 7d f8          	mov    -0x8(%rbp),%rdi
    34802369:	48 81 c7 d0 01 00 00 	add    $0x1d0,%rdi
    34802370:	48 89 7d e8          	mov    %rdi,-0x18(%rbp)
    34802374:	48 89 4d e0          	mov    %rcx,-0x20(%rbp)
    34802378:	48 89 55 d8          	mov    %rdx,-0x28(%rbp)
    3480237c:	48 89 75 d0          	mov    %rsi,-0x30(%rbp)
    34802380:	89 45 cc             	mov    %eax,-0x34(%rbp)
    34802383:	8b 45 cc             	mov    -0x34(%rbp),%eax
    34802386:	48 8b 4d e0          	mov    -0x20(%rbp),%rcx
    3480238a:	3b 01                	cmp    (%rcx),%eax
    3480238c:	89 45 c8             	mov    %eax,-0x38(%rbp)
    3480238f:	0f 8d 72 00 00 00    	jge    34802407 <write_scan_header+0xf7>
    34802395:	8b 45 c8             	mov    -0x38(%rbp),%eax
    34802398:	48 63 c8             	movslq %eax,%rcx
    3480239b:	48 8b 55 f8          	mov    -0x8(%rbp),%rdx
    3480239f:	48 8b 8c ca 78 01 00 	mov    0x178(%rdx,%rcx,8),%rcx
    348023a6:	00 
    348023a7:	48 8b 75 d8          	mov    -0x28(%rbp),%rsi
    348023ab:	83 3e 00             	cmpl   $0x0,(%rsi)
    348023ae:	48 89 4d c0          	mov    %rcx,-0x40(%rbp)
    348023b2:	0f 85 1f 00 00 00    	jne    348023d7 <write_scan_header+0xc7>
    348023b8:	48 8b 45 d0          	mov    -0x30(%rbp),%rax
    348023bc:	83 38 00             	cmpl   $0x0,(%rax)
    348023bf:	0f 85 12 00 00 00    	jne    348023d7 <write_scan_header+0xc7>
    348023c5:	31 d2                	xor    %edx,%edx
    348023c7:	48 8b 45 c0          	mov    -0x40(%rbp),%rax
    348023cb:	8b 70 14             	mov    0x14(%rax),%esi
    348023ce:	48 8b 7d f8          	mov    -0x8(%rbp),%rdi
    348023d2:	e8 89 0b 00 00       	callq  34802f60 <emit_dht>
    348023d7:	48 8b 45 e8          	mov    -0x18(%rbp),%rax
    348023db:	83 38 00             	cmpl   $0x0,(%rax)
    348023de:	0f 84 15 00 00 00    	je     348023f9 <write_scan_header+0xe9>
    348023e4:	ba 01 00 00 00       	mov    $0x1,%edx
    348023e9:	48 8b 45 c0          	mov    -0x40(%rbp),%rax
    348023ed:	8b 70 18             	mov    0x18(%rax),%esi
    348023f0:	48 8b 7d f8          	mov    -0x8(%rbp),%rdi
    348023f4:	e8 67 0b 00 00       	callq  34802f60 <emit_dht>
    348023f9:	8b 45 c8             	mov    -0x38(%rbp),%eax
    348023fc:	83 c0 01             	add    $0x1,%eax
    348023ff:	89 45 cc             	mov    %eax,-0x34(%rbp)
    34802402:	e9 7c ff ff ff       	jmpq   34802383 <write_scan_header+0x73>
    34802407:	48 8b 45 f8          	mov    -0x8(%rbp),%rax
    3480240b:	48 05 3c 01 00 00    	add    $0x13c,%rax
    34802411:	48 8b 4d f8          	mov    -0x8(%rbp),%rcx
    34802415:	8b 91 3c 01 00 00    	mov    0x13c(%rcx),%edx
    3480241b:	48 8b 75 f0          	mov    -0x10(%rbp),%rsi
    3480241f:	48 83 c6 38          	add    $0x38,%rsi
    34802423:	48 8b 7d f0          	mov    -0x10(%rbp),%rdi
    34802427:	3b 57 38             	cmp    0x38(%rdi),%edx
    3480242a:	48 89 45 b8          	mov    %rax,-0x48(%rbp)
    3480242e:	48 89 75 b0          	mov    %rsi,-0x50(%rbp)
    34802432:	0f 84 15 00 00 00    	je     3480244d <write_scan_header+0x13d>
    34802438:	48 8b 7d f8          	mov    -0x8(%rbp),%rdi
    3480243c:	e8 df 0c 00 00       	callq  34803120 <emit_dri>
    34802441:	48 8b 7d b8          	mov    -0x48(%rbp),%rdi
    34802445:	8b 07                	mov    (%rdi),%eax
    34802447:	48 8b 4d b0          	mov    -0x50(%rbp),%rcx
    3480244b:	89 01                	mov    %eax,(%rcx)
    3480244d:	48 8b 7d f8          	mov    -0x8(%rbp),%rdi
    34802451:	e8 0a 0d 00 00       	callq  34803160 <emit_sos>
    34802456:	48 83 c4 50          	add    $0x50,%rsp
    3480245a:	5d                   	pop    %rbp
    3480245b:	c3                   	retq   
    3480245c:	0f 1f 40 00          	nopl   0x0(%rax)

0000000034802460 <write_file_trailer>:
    34802460:	55                   	push   %rbp
    34802461:	48 89 e5             	mov    %rsp,%rbp
    34802464:	be d9 00 00 00       	mov    $0xd9,%esi
    34802469:	e8 72 01 00 00       	callq  348025e0 <emit_marker>
    3480246e:	5d                   	pop    %rbp
    3480246f:	c3                   	retq   

0000000034802470 <write_tables_only>:
    34802470:	55                   	push   %rbp
    34802471:	48 89 e5             	mov    %rsp,%rbp
    34802474:	48 83 ec 30          	sub    $0x30,%rsp
    34802478:	be d8 00 00 00       	mov    $0xd8,%esi
    3480247d:	48 89 7d f8          	mov    %rdi,-0x8(%rbp)
    34802481:	e8 5a 01 00 00       	callq  348025e0 <emit_marker>
    34802486:	31 f6                	xor    %esi,%esi
    34802488:	89 75 f4             	mov    %esi,-0xc(%rbp)
    3480248b:	8b 45 f4             	mov    -0xc(%rbp),%eax
    3480248e:	83 f8 04             	cmp    $0x4,%eax
    34802491:	89 45 f0             	mov    %eax,-0x10(%rbp)
    34802494:	0f 8d 33 00 00 00    	jge    348024cd <write_tables_only+0x5d>
    3480249a:	8b 45 f0             	mov    -0x10(%rbp),%eax
    3480249d:	48 63 c8             	movslq %eax,%rcx
    348024a0:	48 8b 55 f8          	mov    -0x8(%rbp),%rdx
    348024a4:	48 83 7c ca 70 00    	cmpq   $0x0,0x70(%rdx,%rcx,8)
    348024aa:	0f 84 0f 00 00 00    	je     348024bf <write_tables_only+0x4f>
    348024b0:	48 8b 7d f8          	mov    -0x8(%rbp),%rdi
    348024b4:	8b 75 f0             	mov    -0x10(%rbp),%esi
    348024b7:	e8 e4 03 00 00       	callq  348028a0 <emit_dqt>
    348024bc:	89 45 ec             	mov    %eax,-0x14(%rbp)
    348024bf:	8b 45 f0             	mov    -0x10(%rbp),%eax
    348024c2:	83 c0 01             	add    $0x1,%eax
    348024c5:	89 45 f4             	mov    %eax,-0xc(%rbp)
    348024c8:	e9 be ff ff ff       	jmpq   3480248b <write_tables_only+0x1b>
    348024cd:	48 8b 45 f8          	mov    -0x8(%rbp),%rax
    348024d1:	83 b8 24 01 00 00 00 	cmpl   $0x0,0x124(%rax)
    348024d8:	0f 85 7a 00 00 00    	jne    34802558 <write_tables_only+0xe8>
    348024de:	31 c0                	xor    %eax,%eax
    348024e0:	89 45 e8             	mov    %eax,-0x18(%rbp)
    348024e3:	e9 00 00 00 00       	jmpq   348024e8 <write_tables_only+0x78>
    348024e8:	8b 45 e8             	mov    -0x18(%rbp),%eax
    348024eb:	83 f8 04             	cmp    $0x4,%eax
    348024ee:	89 45 e4             	mov    %eax,-0x1c(%rbp)
    348024f1:	0f 8d 61 00 00 00    	jge    34802558 <write_tables_only+0xe8>
    348024f7:	8b 45 e4             	mov    -0x1c(%rbp),%eax
    348024fa:	48 63 c8             	movslq %eax,%rcx
    348024fd:	48 8b 55 f8          	mov    -0x8(%rbp),%rdx
    34802501:	48 83 bc ca a0 00 00 	cmpq   $0x0,0xa0(%rdx,%rcx,8)
    34802508:	00 00 
    3480250a:	48 89 4d d8          	mov    %rcx,-0x28(%rbp)
    3480250e:	0f 84 0e 00 00 00    	je     34802522 <write_tables_only+0xb2>
    34802514:	31 d2                	xor    %edx,%edx
    34802516:	48 8b 7d f8          	mov    -0x8(%rbp),%rdi
    3480251a:	8b 75 e4             	mov    -0x1c(%rbp),%esi
    3480251d:	e8 3e 0a 00 00       	callq  34802f60 <emit_dht>
    34802522:	48 8b 45 f8          	mov    -0x8(%rbp),%rax
    34802526:	48 8b 4d d8          	mov    -0x28(%rbp),%rcx
    3480252a:	48 83 bc c8 c0 00 00 	cmpq   $0x0,0xc0(%rax,%rcx,8)
    34802531:	00 00 
    34802533:	0f 84 11 00 00 00    	je     3480254a <write_tables_only+0xda>
    34802539:	ba 01 00 00 00       	mov    $0x1,%edx
    3480253e:	48 8b 7d f8          	mov    -0x8(%rbp),%rdi
    34802542:	8b 75 e4             	mov    -0x1c(%rbp),%esi
    34802545:	e8 16 0a 00 00       	callq  34802f60 <emit_dht>
    3480254a:	8b 45 e4             	mov    -0x1c(%rbp),%eax
    3480254d:	83 c0 01             	add    $0x1,%eax
    34802550:	89 45 e8             	mov    %eax,-0x18(%rbp)
    34802553:	e9 90 ff ff ff       	jmpq   348024e8 <write_tables_only+0x78>
    34802558:	be d9 00 00 00       	mov    $0xd9,%esi
    3480255d:	48 8b 7d f8          	mov    -0x8(%rbp),%rdi
    34802561:	e8 7a 00 00 00       	callq  348025e0 <emit_marker>
    34802566:	48 83 c4 30          	add    $0x30,%rsp
    3480256a:	5d                   	pop    %rbp
    3480256b:	c3                   	retq   
    3480256c:	0f 1f 40 00          	nopl   0x0(%rax)

0000000034802570 <write_marker_header>:
    34802570:	55                   	push   %rbp
    34802571:	48 89 e5             	mov    %rsp,%rbp
    34802574:	48 83 ec 20          	sub    $0x20,%rsp
    34802578:	81 fa fd ff 00 00    	cmp    $0xfffd,%edx
    3480257e:	89 75 fc             	mov    %esi,-0x4(%rbp)
    34802581:	48 89 7d f0          	mov    %rdi,-0x10(%rbp)
    34802585:	89 55 ec             	mov    %edx,-0x14(%rbp)
    34802588:	0f 86 19 00 00 00    	jbe    348025a7 <write_marker_header+0x37>
    3480258e:	48 8b 45 f0          	mov    -0x10(%rbp),%rax
    34802592:	48 8b 08             	mov    (%rax),%rcx
    34802595:	c7 41 28 0c 00 00 00 	movl   $0xc,0x28(%rcx)
    3480259c:	48 8b 08             	mov    (%rax),%rcx
    3480259f:	48 8b 09             	mov    (%rcx),%rcx
    348025a2:	48 89 c7             	mov    %rax,%rdi
    348025a5:	ff d1                	callq  *%rcx
    348025a7:	48 8b 7d f0          	mov    -0x10(%rbp),%rdi
    348025ab:	8b 75 fc             	mov    -0x4(%rbp),%esi
    348025ae:	e8 2d 00 00 00       	callq  348025e0 <emit_marker>
    348025b3:	8b 75 ec             	mov    -0x14(%rbp),%esi
    348025b6:	83 c6 02             	add    $0x2,%esi
    348025b9:	48 8b 7d f0          	mov    -0x10(%rbp),%rdi
    348025bd:	e8 9e 02 00 00       	callq  34802860 <emit_2bytes>
    348025c2:	48 83 c4 20          	add    $0x20,%rsp
    348025c6:	5d                   	pop    %rbp
    348025c7:	c3                   	retq   
    348025c8:	0f 1f 84 00 00 00 00 	nopl   0x0(%rax,%rax,1)
    348025cf:	00 

00000000348025d0 <write_marker_byte>:
    348025d0:	55                   	push   %rbp
    348025d1:	48 89 e5             	mov    %rsp,%rbp
    348025d4:	e8 17 02 00 00       	callq  348027f0 <emit_byte>
    348025d9:	5d                   	pop    %rbp
    348025da:	c3                   	retq   
    348025db:	0f 1f 44 00 00       	nopl   0x0(%rax,%rax,1)

00000000348025e0 <emit_marker>:
    348025e0:	55                   	push   %rbp
    348025e1:	48 89 e5             	mov    %rsp,%rbp
    348025e4:	48 83 ec 10          	sub    $0x10,%rsp
    348025e8:	b8 ff 00 00 00       	mov    $0xff,%eax
    348025ed:	48 89 7d f8          	mov    %rdi,-0x8(%rbp)
    348025f1:	89 75 f4             	mov    %esi,-0xc(%rbp)
    348025f4:	89 c6                	mov    %eax,%esi
    348025f6:	e8 f5 01 00 00       	callq  348027f0 <emit_byte>
    348025fb:	48 8b 7d f8          	mov    -0x8(%rbp),%rdi
    348025ff:	8b 75 f4             	mov    -0xc(%rbp),%esi
    34802602:	e8 e9 01 00 00       	callq  348027f0 <emit_byte>
    34802607:	48 83 c4 10          	add    $0x10,%rsp
    3480260b:	5d                   	pop    %rbp
    3480260c:	c3                   	retq   
    3480260d:	0f 1f 00             	nopl   (%rax)

0000000034802610 <emit_jfif_app0>:
    34802610:	55                   	push   %rbp
    34802611:	48 89 e5             	mov    %rsp,%rbp
    34802614:	48 83 ec 10          	sub    $0x10,%rsp
    34802618:	be e0 00 00 00       	mov    $0xe0,%esi
    3480261d:	48 89 7d f8          	mov    %rdi,-0x8(%rbp)
    34802621:	e8 ba ff ff ff       	callq  348025e0 <emit_marker>
    34802626:	be 10 00 00 00       	mov    $0x10,%esi
    3480262b:	48 8b 7d f8          	mov    -0x8(%rbp),%rdi
    3480262f:	e8 2c 02 00 00       	callq  34802860 <emit_2bytes>
    34802634:	be 4a 00 00 00       	mov    $0x4a,%esi
    34802639:	48 8b 7d f8          	mov    -0x8(%rbp),%rdi
    3480263d:	e8 ae 01 00 00       	callq  348027f0 <emit_byte>
    34802642:	be 46 00 00 00       	mov    $0x46,%esi
    34802647:	48 8b 7d f8          	mov    -0x8(%rbp),%rdi
    3480264b:	e8 a0 01 00 00       	callq  348027f0 <emit_byte>
    34802650:	be 49 00 00 00       	mov    $0x49,%esi
    34802655:	48 8b 7d f8          	mov    -0x8(%rbp),%rdi
    34802659:	e8 92 01 00 00       	callq  348027f0 <emit_byte>
    3480265e:	be 46 00 00 00       	mov    $0x46,%esi
    34802663:	48 8b 7d f8          	mov    -0x8(%rbp),%rdi
    34802667:	e8 84 01 00 00       	callq  348027f0 <emit_byte>
    3480266c:	31 f6                	xor    %esi,%esi
    3480266e:	48 8b 7d f8          	mov    -0x8(%rbp),%rdi
    34802672:	e8 79 01 00 00       	callq  348027f0 <emit_byte>
    34802677:	48 8b 7d f8          	mov    -0x8(%rbp),%rdi
    3480267b:	0f b6 b7 48 01 00 00 	movzbl 0x148(%rdi),%esi
    34802682:	e8 69 01 00 00       	callq  348027f0 <emit_byte>
    34802687:	48 8b 7d f8          	mov    -0x8(%rbp),%rdi
    3480268b:	0f b6 b7 49 01 00 00 	movzbl 0x149(%rdi),%esi
    34802692:	e8 59 01 00 00       	callq  348027f0 <emit_byte>
    34802697:	48 8b 7d f8          	mov    -0x8(%rbp),%rdi
    3480269b:	0f b6 b7 4a 01 00 00 	movzbl 0x14a(%rdi),%esi
    348026a2:	e8 49 01 00 00       	callq  348027f0 <emit_byte>
    348026a7:	48 8b 7d f8          	mov    -0x8(%rbp),%rdi
    348026ab:	0f b7 b7 4c 01 00 00 	movzwl 0x14c(%rdi),%esi
    348026b2:	e8 a9 01 00 00       	callq  34802860 <emit_2bytes>
    348026b7:	48 8b 7d f8          	mov    -0x8(%rbp),%rdi
    348026bb:	0f b7 b7 4e 01 00 00 	movzwl 0x14e(%rdi),%esi
    348026c2:	e8 99 01 00 00       	callq  34802860 <emit_2bytes>
    348026c7:	31 f6                	xor    %esi,%esi
    348026c9:	48 8b 7d f8          	mov    -0x8(%rbp),%rdi
    348026cd:	e8 1e 01 00 00       	callq  348027f0 <emit_byte>
    348026d2:	31 f6                	xor    %esi,%esi
    348026d4:	48 8b 7d f8          	mov    -0x8(%rbp),%rdi
    348026d8:	e8 13 01 00 00       	callq  348027f0 <emit_byte>
    348026dd:	48 83 c4 10          	add    $0x10,%rsp
    348026e1:	5d                   	pop    %rbp
    348026e2:	c3                   	retq   
    348026e3:	66 66 66 66 2e 0f 1f 	data32 data32 data32 nopw %cs:0x0(%rax,%rax,1)
    348026ea:	84 00 00 00 00 00 

00000000348026f0 <emit_adobe_app14>:
    348026f0:	55                   	push   %rbp
    348026f1:	48 89 e5             	mov    %rsp,%rbp
    348026f4:	48 83 ec 20          	sub    $0x20,%rsp
    348026f8:	be ee 00 00 00       	mov    $0xee,%esi
    348026fd:	48 89 7d f8          	mov    %rdi,-0x8(%rbp)
    34802701:	e8 da fe ff ff       	callq  348025e0 <emit_marker>
    34802706:	be 0e 00 00 00       	mov    $0xe,%esi
    3480270b:	48 8b 7d f8          	mov    -0x8(%rbp),%rdi
    3480270f:	e8 4c 01 00 00       	callq  34802860 <emit_2bytes>
    34802714:	be 41 00 00 00       	mov    $0x41,%esi
    34802719:	48 8b 7d f8          	mov    -0x8(%rbp),%rdi
    3480271d:	e8 ce 00 00 00       	callq  348027f0 <emit_byte>
    34802722:	be 64 00 00 00       	mov    $0x64,%esi
    34802727:	48 8b 7d f8          	mov    -0x8(%rbp),%rdi
    3480272b:	89 75 f4             	mov    %esi,-0xc(%rbp)
    3480272e:	e8 bd 00 00 00       	callq  348027f0 <emit_byte>
    34802733:	be 6f 00 00 00       	mov    $0x6f,%esi
    34802738:	48 8b 7d f8          	mov    -0x8(%rbp),%rdi
    3480273c:	e8 af 00 00 00       	callq  348027f0 <emit_byte>
    34802741:	be 62 00 00 00       	mov    $0x62,%esi
    34802746:	48 8b 7d f8          	mov    -0x8(%rbp),%rdi
    3480274a:	e8 a1 00 00 00       	callq  348027f0 <emit_byte>
    3480274f:	be 65 00 00 00       	mov    $0x65,%esi
    34802754:	48 8b 7d f8          	mov    -0x8(%rbp),%rdi
    34802758:	e8 93 00 00 00       	callq  348027f0 <emit_byte>
    3480275d:	48 8b 7d f8          	mov    -0x8(%rbp),%rdi
    34802761:	8b 75 f4             	mov    -0xc(%rbp),%esi
    34802764:	e8 f7 00 00 00       	callq  34802860 <emit_2bytes>
    34802769:	31 f6                	xor    %esi,%esi
    3480276b:	48 8b 7d f8          	mov    -0x8(%rbp),%rdi
    3480276f:	89 75 f0             	mov    %esi,-0x10(%rbp)
    34802772:	e8 e9 00 00 00       	callq  34802860 <emit_2bytes>
    34802777:	48 8b 7d f8          	mov    -0x8(%rbp),%rdi
    3480277b:	8b 75 f0             	mov    -0x10(%rbp),%esi
    3480277e:	e8 dd 00 00 00       	callq  34802860 <emit_2bytes>
    34802783:	48 8b 7d f8          	mov    -0x8(%rbp),%rdi
    34802787:	8b 77 60             	mov    0x60(%rdi),%esi
    3480278a:	89 f0                	mov    %esi,%eax
    3480278c:	83 e8 03             	sub    $0x3,%eax
    3480278f:	89 75 ec             	mov    %esi,-0x14(%rbp)
    34802792:	89 45 e8             	mov    %eax,-0x18(%rbp)
    34802795:	0f 84 19 00 00 00    	je     348027b4 <emit_adobe_app14+0xc4>
    3480279b:	e9 00 00 00 00       	jmpq   348027a0 <emit_adobe_app14+0xb0>
    348027a0:	8b 45 ec             	mov    -0x14(%rbp),%eax
    348027a3:	83 e8 05             	sub    $0x5,%eax
    348027a6:	89 45 e4             	mov    %eax,-0x1c(%rbp)
    348027a9:	0f 84 18 00 00 00    	je     348027c7 <emit_adobe_app14+0xd7>
    348027af:	e9 26 00 00 00       	jmpq   348027da <emit_adobe_app14+0xea>
    348027b4:	be 01 00 00 00       	mov    $0x1,%esi
    348027b9:	48 8b 7d f8          	mov    -0x8(%rbp),%rdi
    348027bd:	e8 2e 00 00 00       	callq  348027f0 <emit_byte>
    348027c2:	e9 1e 00 00 00       	jmpq   348027e5 <emit_adobe_app14+0xf5>
    348027c7:	be 02 00 00 00       	mov    $0x2,%esi
    348027cc:	48 8b 7d f8          	mov    -0x8(%rbp),%rdi
    348027d0:	e8 1b 00 00 00       	callq  348027f0 <emit_byte>
    348027d5:	e9 0b 00 00 00       	jmpq   348027e5 <emit_adobe_app14+0xf5>
    348027da:	31 f6                	xor    %esi,%esi
    348027dc:	48 8b 7d f8          	mov    -0x8(%rbp),%rdi
    348027e0:	e8 0b 00 00 00       	callq  348027f0 <emit_byte>
    348027e5:	48 83 c4 20          	add    $0x20,%rsp
    348027e9:	5d                   	pop    %rbp
    348027ea:	c3                   	retq   
    348027eb:	0f 1f 44 00 00       	nopl   0x0(%rax,%rax,1)

00000000348027f0 <emit_byte>:
    348027f0:	55                   	push   %rbp
    348027f1:	48 89 e5             	mov    %rsp,%rbp
    348027f4:	48 83 ec 10          	sub    $0x10,%rsp
    348027f8:	48 8b 47 28          	mov    0x28(%rdi),%rax
    348027fc:	40 88 f1             	mov    %sil,%cl
    348027ff:	48 8b 10             	mov    (%rax),%rdx
    34802802:	49 89 d0             	mov    %rdx,%r8
    34802805:	49 83 c0 01          	add    $0x1,%r8
    34802809:	4c 89 00             	mov    %r8,(%rax)
    3480280c:	88 0a                	mov    %cl,(%rdx)
    3480280e:	48 8b 50 08          	mov    0x8(%rax),%rdx
    34802812:	48 83 c2 ff          	add    $0xffffffffffffffff,%rdx
    34802816:	48 89 50 08          	mov    %rdx,0x8(%rax)
    3480281a:	48 83 fa 00          	cmp    $0x0,%rdx
    3480281e:	48 89 7d f8          	mov    %rdi,-0x8(%rbp)
    34802822:	48 89 45 f0          	mov    %rax,-0x10(%rbp)
    34802826:	0f 85 2d 00 00 00    	jne    34802859 <emit_byte+0x69>
    3480282c:	48 8b 7d f8          	mov    -0x8(%rbp),%rdi
    34802830:	48 8b 45 f0          	mov    -0x10(%rbp),%rax
    34802834:	ff 50 18             	callq  *0x18(%rax)
    34802837:	83 f8 00             	cmp    $0x0,%eax
    3480283a:	0f 85 19 00 00 00    	jne    34802859 <emit_byte+0x69>
    34802840:	48 8b 45 f8          	mov    -0x8(%rbp),%rax
    34802844:	48 8b 08             	mov    (%rax),%rcx
    34802847:	c7 41 28 19 00 00 00 	movl   $0x19,0x28(%rcx)
    3480284e:	48 8b 08             	mov    (%rax),%rcx
    34802851:	48 8b 09             	mov    (%rcx),%rcx
    34802854:	48 89 c7             	mov    %rax,%rdi
    34802857:	ff d1                	callq  *%rcx
    34802859:	48 83 c4 10          	add    $0x10,%rsp
    3480285d:	5d                   	pop    %rbp
    3480285e:	c3                   	retq   
    3480285f:	90                   	nop

0000000034802860 <emit_2bytes>:
    34802860:	55                   	push   %rbp
    34802861:	48 89 e5             	mov    %rsp,%rbp
    34802864:	48 83 ec 10          	sub    $0x10,%rsp
    34802868:	89 f0                	mov    %esi,%eax
    3480286a:	c1 e8 08             	shr    $0x8,%eax
    3480286d:	25 ff 00 00 00       	and    $0xff,%eax
    34802872:	48 89 7d f8          	mov    %rdi,-0x8(%rbp)
    34802876:	89 75 f4             	mov    %esi,-0xc(%rbp)
    34802879:	89 c6                	mov    %eax,%esi
    3480287b:	e8 70 ff ff ff       	callq  348027f0 <emit_byte>
    34802880:	8b 45 f4             	mov    -0xc(%rbp),%eax
    34802883:	25 ff 00 00 00       	and    $0xff,%eax
    34802888:	48 8b 7d f8          	mov    -0x8(%rbp),%rdi
    3480288c:	89 c6                	mov    %eax,%esi
    3480288e:	e8 5d ff ff ff       	callq  348027f0 <emit_byte>
    34802893:	48 83 c4 10          	add    $0x10,%rsp
    34802897:	5d                   	pop    %rbp
    34802898:	c3                   	retq   
    34802899:	0f 1f 80 00 00 00 00 	nopl   0x0(%rax)

00000000348028a0 <emit_dqt>:
    348028a0:	55                   	push   %rbp
    348028a1:	48 89 e5             	mov    %rsp,%rbp
    348028a4:	48 83 ec 70          	sub    $0x70,%rsp
    348028a8:	48 63 c6             	movslq %esi,%rax
    348028ab:	48 8b 44 c7 70       	mov    0x70(%rdi,%rax,8),%rax
    348028b0:	48 83 f8 00          	cmp    $0x0,%rax
    348028b4:	48 89 7d f8          	mov    %rdi,-0x8(%rbp)
    348028b8:	89 75 f4             	mov    %esi,-0xc(%rbp)
    348028bb:	48 89 45 e8          	mov    %rax,-0x18(%rbp)
    348028bf:	0f 85 22 00 00 00    	jne    348028e7 <emit_dqt+0x47>
    348028c5:	48 8b 45 f8          	mov    -0x8(%rbp),%rax
    348028c9:	48 8b 08             	mov    (%rax),%rcx
    348028cc:	c7 41 28 36 00 00 00 	movl   $0x36,0x28(%rcx)
    348028d3:	48 8b 08             	mov    (%rax),%rcx
    348028d6:	8b 55 f4             	mov    -0xc(%rbp),%edx
    348028d9:	89 51 2c             	mov    %edx,0x2c(%rcx)
    348028dc:	48 8b 08             	mov    (%rax),%rcx
    348028df:	48 8b 09             	mov    (%rcx),%rcx
    348028e2:	48 89 c7             	mov    %rax,%rdi
    348028e5:	ff d1                	callq  *%rcx
    348028e7:	31 c0                	xor    %eax,%eax
    348028e9:	48 8b 4d f8          	mov    -0x8(%rbp),%rcx
    348028ed:	48 81 c1 e8 01 00 00 	add    $0x1e8,%rcx
    348028f4:	48 8b 55 f8          	mov    -0x8(%rbp),%rdx
    348028f8:	8b b2 e8 01 00 00    	mov    0x1e8(%rdx),%esi
    348028fe:	48 81 c2 e0 01 00 00 	add    $0x1e0,%rdx
    34802905:	89 c7                	mov    %eax,%edi
    34802907:	89 7d e4             	mov    %edi,-0x1c(%rbp)
    3480290a:	48 89 4d d8          	mov    %rcx,-0x28(%rbp)
    3480290e:	48 89 55 d0          	mov    %rdx,-0x30(%rbp)
    34802912:	89 75 cc             	mov    %esi,-0x34(%rbp)
    34802915:	89 45 c8             	mov    %eax,-0x38(%rbp)
    34802918:	8b 45 c8             	mov    -0x38(%rbp),%eax
    3480291b:	8b 4d e4             	mov    -0x1c(%rbp),%ecx
    3480291e:	8b 55 cc             	mov    -0x34(%rbp),%edx
    34802921:	39 d1                	cmp    %edx,%ecx
    34802923:	89 45 c4             	mov    %eax,-0x3c(%rbp)
    34802926:	89 4d c0             	mov    %ecx,-0x40(%rbp)
    34802929:	0f 8f 37 00 00 00    	jg     34802966 <emit_dqt+0xc6>
    3480292f:	b8 01 00 00 00       	mov    $0x1,%eax
    34802934:	48 8b 4d d0          	mov    -0x30(%rbp),%rcx
    34802938:	48 8b 11             	mov    (%rcx),%rdx
    3480293b:	8b 75 c0             	mov    -0x40(%rbp),%esi
    3480293e:	48 63 fe             	movslq %esi,%rdi
    34802941:	48 63 14 ba          	movslq (%rdx,%rdi,4),%rdx
    34802945:	48 8b 7d e8          	mov    -0x18(%rbp),%rdi
    34802949:	66 81 3c 57 ff 00    	cmpw   $0xff,(%rdi,%rdx,2)
    3480294f:	44 8b 45 c4          	mov    -0x3c(%rbp),%r8d
    34802953:	44 0f 47 c0          	cmova  %eax,%r8d
    34802957:	83 c6 01             	add    $0x1,%esi
    3480295a:	89 75 e4             	mov    %esi,-0x1c(%rbp)
    3480295d:	44 89 45 c8          	mov    %r8d,-0x38(%rbp)
    34802961:	e9 b2 ff ff ff       	jmpq   34802918 <emit_dqt+0x78>
    34802966:	48 8b 45 e8          	mov    -0x18(%rbp),%rax
    3480296a:	48 05 80 00 00 00    	add    $0x80,%rax
    34802970:	48 8b 4d e8          	mov    -0x18(%rbp),%rcx
    34802974:	83 b9 80 00 00 00 00 	cmpl   $0x0,0x80(%rcx)
    3480297b:	48 89 45 b8          	mov    %rax,-0x48(%rbp)
    3480297f:	0f 85 e6 00 00 00    	jne    34802a6b <emit_dqt+0x1cb>
    34802985:	be db 00 00 00       	mov    $0xdb,%esi
    3480298a:	48 8b 7d f8          	mov    -0x8(%rbp),%rdi
    3480298e:	e8 4d fc ff ff       	callq  348025e0 <emit_marker>
    34802993:	8b 75 c4             	mov    -0x3c(%rbp),%esi
    34802996:	83 fe 00             	cmp    $0x0,%esi
    34802999:	0f 95 c0             	setne  %al
    3480299c:	48 8b 7d d8          	mov    -0x28(%rbp),%rdi
    348029a0:	8b 0f                	mov    (%rdi),%ecx
    348029a2:	89 ca                	mov    %ecx,%edx
    348029a4:	83 c2 01             	add    $0x1,%edx
    348029a7:	c1 e1 01             	shl    $0x1,%ecx
    348029aa:	83 c1 02             	add    $0x2,%ecx
    348029ad:	83 fe 00             	cmp    $0x0,%esi
    348029b0:	0f 45 d1             	cmovne %ecx,%edx
    348029b3:	83 c2 03             	add    $0x3,%edx
    348029b6:	48 8b 7d f8          	mov    -0x8(%rbp),%rdi
    348029ba:	89 d6                	mov    %edx,%esi
    348029bc:	88 45 b7             	mov    %al,-0x49(%rbp)
    348029bf:	e8 9c fe ff ff       	callq  34802860 <emit_2bytes>
    348029c4:	8b 4d c4             	mov    -0x3c(%rbp),%ecx
    348029c7:	c1 e1 04             	shl    $0x4,%ecx
    348029ca:	8b 55 f4             	mov    -0xc(%rbp),%edx
    348029cd:	01 d1                	add    %edx,%ecx
    348029cf:	48 8b 7d f8          	mov    -0x8(%rbp),%rdi
    348029d3:	89 ce                	mov    %ecx,%esi
    348029d5:	e8 16 fe ff ff       	callq  348027f0 <emit_byte>
    348029da:	31 c9                	xor    %ecx,%ecx
    348029dc:	48 8b 7d f8          	mov    -0x8(%rbp),%rdi
    348029e0:	48 81 c7 e0 01 00 00 	add    $0x1e0,%rdi
    348029e7:	48 89 7d a8          	mov    %rdi,-0x58(%rbp)
    348029eb:	89 4d a4             	mov    %ecx,-0x5c(%rbp)
    348029ee:	8b 45 a4             	mov    -0x5c(%rbp),%eax
    348029f1:	48 8b 4d d8          	mov    -0x28(%rbp),%rcx
    348029f5:	3b 01                	cmp    (%rcx),%eax
    348029f7:	89 45 a0             	mov    %eax,-0x60(%rbp)
    348029fa:	0f 8f 61 00 00 00    	jg     34802a61 <emit_dqt+0x1c1>
    34802a00:	48 8b 45 a8          	mov    -0x58(%rbp),%rax
    34802a04:	48 8b 08             	mov    (%rax),%rcx
    34802a07:	8b 55 a0             	mov    -0x60(%rbp),%edx
    34802a0a:	48 63 f2             	movslq %edx,%rsi
    34802a0d:	48 63 0c b1          	movslq (%rcx,%rsi,4),%rcx
    34802a11:	48 8b 75 e8          	mov    -0x18(%rbp),%rsi
    34802a15:	0f b7 3c 4e          	movzwl (%rsi,%rcx,2),%edi
    34802a19:	44 8a 45 b7          	mov    -0x49(%rbp),%r8b
    34802a1d:	41 f6 c0 01          	test   $0x1,%r8b
    34802a21:	89 7d 9c             	mov    %edi,-0x64(%rbp)
    34802a24:	0f 85 05 00 00 00    	jne    34802a2f <emit_dqt+0x18f>
    34802a2a:	e9 11 00 00 00       	jmpq   34802a40 <emit_dqt+0x1a0>
    34802a2f:	8b 45 9c             	mov    -0x64(%rbp),%eax
    34802a32:	c1 e8 08             	shr    $0x8,%eax
    34802a35:	48 8b 7d f8          	mov    -0x8(%rbp),%rdi
    34802a39:	89 c6                	mov    %eax,%esi
    34802a3b:	e8 b0 fd ff ff       	callq  348027f0 <emit_byte>
    34802a40:	8b 45 9c             	mov    -0x64(%rbp),%eax
    34802a43:	25 ff 00 00 00       	and    $0xff,%eax
    34802a48:	48 8b 7d f8          	mov    -0x8(%rbp),%rdi
    34802a4c:	89 c6                	mov    %eax,%esi
    34802a4e:	e8 9d fd ff ff       	callq  348027f0 <emit_byte>
    34802a53:	8b 45 a0             	mov    -0x60(%rbp),%eax
    34802a56:	83 c0 01             	add    $0x1,%eax
    34802a59:	89 45 a4             	mov    %eax,-0x5c(%rbp)
    34802a5c:	e9 8d ff ff ff       	jmpq   348029ee <emit_dqt+0x14e>
    34802a61:	48 8b 45 b8          	mov    -0x48(%rbp),%rax
    34802a65:	c7 00 01 00 00 00    	movl   $0x1,(%rax)
    34802a6b:	8b 45 c4             	mov    -0x3c(%rbp),%eax
    34802a6e:	48 83 c4 70          	add    $0x70,%rsp
    34802a72:	5d                   	pop    %rbp
    34802a73:	c3                   	retq   
    34802a74:	66 66 66 2e 0f 1f 84 	data32 data32 nopw %cs:0x0(%rax,%rax,1)
    34802a7b:	00 00 00 00 00 

0000000034802a80 <emit_sof>:
    34802a80:	55                   	push   %rbp
    34802a81:	48 89 e5             	mov    %rsp,%rbp
    34802a84:	48 83 ec 40          	sub    $0x40,%rsp
    34802a88:	48 89 7d f8          	mov    %rdi,-0x8(%rbp)
    34802a8c:	e8 4f fb ff ff       	callq  348025e0 <emit_marker>
    34802a91:	48 8b 7d f8          	mov    -0x8(%rbp),%rdi
    34802a95:	48 83 c7 5c          	add    $0x5c,%rdi
    34802a99:	48 8b 45 f8          	mov    -0x8(%rbp),%rax
    34802a9d:	6b 70 5c 03          	imul   $0x3,0x5c(%rax),%esi
    34802aa1:	83 c6 08             	add    $0x8,%esi
    34802aa4:	48 89 7d f0          	mov    %rdi,-0x10(%rbp)
    34802aa8:	48 89 c7             	mov    %rax,%rdi
    34802aab:	e8 b0 fd ff ff       	callq  34802860 <emit_2bytes>
    34802ab0:	48 8b 45 f8          	mov    -0x8(%rbp),%rax
    34802ab4:	48 83 c0 54          	add    $0x54,%rax
    34802ab8:	48 8b 7d f8          	mov    -0x8(%rbp),%rdi
    34802abc:	81 7f 54 ff ff 00 00 	cmpl   $0xffff,0x54(%rdi)
    34802ac3:	48 89 45 e8          	mov    %rax,-0x18(%rbp)
    34802ac7:	0f 87 11 00 00 00    	ja     34802ade <emit_sof+0x5e>
    34802acd:	48 8b 45 f8          	mov    -0x8(%rbp),%rax
    34802ad1:	81 78 50 ff ff 00 00 	cmpl   $0xffff,0x50(%rax)
    34802ad8:	0f 86 23 00 00 00    	jbe    34802b01 <emit_sof+0x81>
    34802ade:	48 8b 45 f8          	mov    -0x8(%rbp),%rax
    34802ae2:	48 8b 08             	mov    (%rax),%rcx
    34802ae5:	c7 41 28 2a 00 00 00 	movl   $0x2a,0x28(%rcx)
    34802aec:	48 8b 08             	mov    (%rax),%rcx
    34802aef:	c7 41 2c ff ff 00 00 	movl   $0xffff,0x2c(%rcx)
    34802af6:	48 8b 08             	mov    (%rax),%rcx
    34802af9:	48 8b 09             	mov    (%rcx),%rcx
    34802afc:	48 89 c7             	mov    %rax,%rdi
    34802aff:	ff d1                	callq  *%rcx
    34802b01:	48 8b 45 f8          	mov    -0x8(%rbp),%rax
    34802b05:	8b 70 58             	mov    0x58(%rax),%esi
    34802b08:	48 89 c7             	mov    %rax,%rdi
    34802b0b:	e8 e0 fc ff ff       	callq  348027f0 <emit_byte>
    34802b10:	48 8b 45 e8          	mov    -0x18(%rbp),%rax
    34802b14:	8b 30                	mov    (%rax),%esi
    34802b16:	48 8b 7d f8          	mov    -0x8(%rbp),%rdi
    34802b1a:	e8 41 fd ff ff       	callq  34802860 <emit_2bytes>
    34802b1f:	48 8b 45 f8          	mov    -0x8(%rbp),%rax
    34802b23:	8b 70 50             	mov    0x50(%rax),%esi
    34802b26:	48 89 c7             	mov    %rax,%rdi
    34802b29:	e8 32 fd ff ff       	callq  34802860 <emit_2bytes>
    34802b2e:	48 8b 45 f0          	mov    -0x10(%rbp),%rax
    34802b32:	8b 30                	mov    (%rax),%esi
    34802b34:	48 8b 7d f8          	mov    -0x8(%rbp),%rdi
    34802b38:	e8 b3 fc ff ff       	callq  348027f0 <emit_byte>
    34802b3d:	31 f6                	xor    %esi,%esi
    34802b3f:	48 8b 45 f8          	mov    -0x8(%rbp),%rax
    34802b43:	48 8b 78 68          	mov    0x68(%rax),%rdi
    34802b47:	89 75 e4             	mov    %esi,-0x1c(%rbp)
    34802b4a:	48 89 7d d8          	mov    %rdi,-0x28(%rbp)
    34802b4e:	48 8b 45 d8          	mov    -0x28(%rbp),%rax
    34802b52:	8b 4d e4             	mov    -0x1c(%rbp),%ecx
    34802b55:	48 8b 55 f0          	mov    -0x10(%rbp),%rdx
    34802b59:	3b 0a                	cmp    (%rdx),%ecx
    34802b5b:	48 89 45 d0          	mov    %rax,-0x30(%rbp)
    34802b5f:	89 4d cc             	mov    %ecx,-0x34(%rbp)
    34802b62:	0f 8d 4f 00 00 00    	jge    34802bb7 <emit_sof+0x137>
    34802b68:	48 8b 45 d0          	mov    -0x30(%rbp),%rax
    34802b6c:	8b 30                	mov    (%rax),%esi
    34802b6e:	48 8b 7d f8          	mov    -0x8(%rbp),%rdi
    34802b72:	e8 79 fc ff ff       	callq  348027f0 <emit_byte>
    34802b77:	48 8b 45 d0          	mov    -0x30(%rbp),%rax
    34802b7b:	8b 70 08             	mov    0x8(%rax),%esi
    34802b7e:	c1 e6 04             	shl    $0x4,%esi
    34802b81:	03 70 0c             	add    0xc(%rax),%esi
    34802b84:	48 8b 7d f8          	mov    -0x8(%rbp),%rdi
    34802b88:	e8 63 fc ff ff       	callq  348027f0 <emit_byte>
    34802b8d:	48 8b 45 d0          	mov    -0x30(%rbp),%rax
    34802b91:	8b 70 10             	mov    0x10(%rax),%esi
    34802b94:	48 8b 7d f8          	mov    -0x8(%rbp),%rdi
    34802b98:	e8 53 fc ff ff       	callq  348027f0 <emit_byte>
    34802b9d:	8b 75 cc             	mov    -0x34(%rbp),%esi
    34802ba0:	83 c6 01             	add    $0x1,%esi
    34802ba3:	48 8b 45 d0          	mov    -0x30(%rbp),%rax
    34802ba7:	48 83 c0 60          	add    $0x60,%rax
    34802bab:	89 75 e4             	mov    %esi,-0x1c(%rbp)
    34802bae:	48 89 45 d8          	mov    %rax,-0x28(%rbp)
    34802bb2:	e9 97 ff ff ff       	jmpq   34802b4e <emit_sof+0xce>
    34802bb7:	48 83 c4 40          	add    $0x40,%rsp
    34802bbb:	5d                   	pop    %rbp
    34802bbc:	c3                   	retq   
    34802bbd:	0f 1f 00             	nopl   (%rax)

0000000034802bc0 <emit_lse_ict>:
    34802bc0:	55                   	push   %rbp
    34802bc1:	48 89 e5             	mov    %rsp,%rbp
    34802bc4:	48 83 ec 10          	sub    $0x10,%rsp
    34802bc8:	83 bf 54 01 00 00 01 	cmpl   $0x1,0x154(%rdi)
    34802bcf:	48 89 7d f8          	mov    %rdi,-0x8(%rbp)
    34802bd3:	0f 85 0e 00 00 00    	jne    34802be7 <emit_lse_ict+0x27>
    34802bd9:	48 8b 45 f8          	mov    -0x8(%rbp),%rax
    34802bdd:	83 78 5c 03          	cmpl   $0x3,0x5c(%rax)
    34802be1:	0f 8d 19 00 00 00    	jge    34802c00 <emit_lse_ict+0x40>
    34802be7:	48 8b 45 f8          	mov    -0x8(%rbp),%rax
    34802beb:	48 8b 08             	mov    (%rax),%rcx
    34802bee:	c7 41 28 1c 00 00 00 	movl   $0x1c,0x28(%rcx)
    34802bf5:	48 8b 08             	mov    (%rax),%rcx
    34802bf8:	48 8b 09             	mov    (%rcx),%rcx
    34802bfb:	48 89 c7             	mov    %rax,%rdi
    34802bfe:	ff d1                	callq  *%rcx
    34802c00:	be f8 00 00 00       	mov    $0xf8,%esi
    34802c05:	48 8b 7d f8          	mov    -0x8(%rbp),%rdi
    34802c09:	e8 d2 f9 ff ff       	callq  348025e0 <emit_marker>
    34802c0e:	be 18 00 00 00       	mov    $0x18,%esi
    34802c13:	48 8b 7d f8          	mov    -0x8(%rbp),%rdi
    34802c17:	e8 44 fc ff ff       	callq  34802860 <emit_2bytes>
    34802c1c:	be 0d 00 00 00       	mov    $0xd,%esi
    34802c21:	48 8b 7d f8          	mov    -0x8(%rbp),%rdi
    34802c25:	e8 c6 fb ff ff       	callq  348027f0 <emit_byte>
    34802c2a:	be ff 00 00 00       	mov    $0xff,%esi
    34802c2f:	48 8b 7d f8          	mov    -0x8(%rbp),%rdi
    34802c33:	e8 28 fc ff ff       	callq  34802860 <emit_2bytes>
    34802c38:	be 03 00 00 00       	mov    $0x3,%esi
    34802c3d:	48 8b 7d f8          	mov    -0x8(%rbp),%rdi
    34802c41:	e8 aa fb ff ff       	callq  348027f0 <emit_byte>
    34802c46:	48 8b 7d f8          	mov    -0x8(%rbp),%rdi
    34802c4a:	48 8b 47 68          	mov    0x68(%rdi),%rax
    34802c4e:	8b 70 60             	mov    0x60(%rax),%esi
    34802c51:	e8 9a fb ff ff       	callq  348027f0 <emit_byte>
    34802c56:	48 8b 45 f8          	mov    -0x8(%rbp),%rax
    34802c5a:	48 8b 78 68          	mov    0x68(%rax),%rdi
    34802c5e:	8b 37                	mov    (%rdi),%esi
    34802c60:	48 89 c7             	mov    %rax,%rdi
    34802c63:	e8 88 fb ff ff       	callq  348027f0 <emit_byte>
    34802c68:	48 8b 45 f8          	mov    -0x8(%rbp),%rax
    34802c6c:	48 8b 78 68          	mov    0x68(%rax),%rdi
    34802c70:	8b b7 c0 00 00 00    	mov    0xc0(%rdi),%esi
    34802c76:	48 89 c7             	mov    %rax,%rdi
    34802c79:	e8 72 fb ff ff       	callq  348027f0 <emit_byte>
    34802c7e:	be 80 00 00 00       	mov    $0x80,%esi
    34802c83:	48 8b 7d f8          	mov    -0x8(%rbp),%rdi
    34802c87:	e8 64 fb ff ff       	callq  348027f0 <emit_byte>
    34802c8c:	31 f6                	xor    %esi,%esi
    34802c8e:	48 8b 7d f8          	mov    -0x8(%rbp),%rdi
    34802c92:	e8 c9 fb ff ff       	callq  34802860 <emit_2bytes>
    34802c97:	31 f6                	xor    %esi,%esi
    34802c99:	48 8b 7d f8          	mov    -0x8(%rbp),%rdi
    34802c9d:	e8 be fb ff ff       	callq  34802860 <emit_2bytes>
    34802ca2:	31 f6                	xor    %esi,%esi
    34802ca4:	48 8b 7d f8          	mov    -0x8(%rbp),%rdi
    34802ca8:	e8 43 fb ff ff       	callq  348027f0 <emit_byte>
    34802cad:	be 01 00 00 00       	mov    $0x1,%esi
    34802cb2:	48 8b 7d f8          	mov    -0x8(%rbp),%rdi
    34802cb6:	e8 a5 fb ff ff       	callq  34802860 <emit_2bytes>
    34802cbb:	31 f6                	xor    %esi,%esi
    34802cbd:	48 8b 7d f8          	mov    -0x8(%rbp),%rdi
    34802cc1:	e8 9a fb ff ff       	callq  34802860 <emit_2bytes>
    34802cc6:	31 f6                	xor    %esi,%esi
    34802cc8:	48 8b 7d f8          	mov    -0x8(%rbp),%rdi
    34802ccc:	e8 1f fb ff ff       	callq  348027f0 <emit_byte>
    34802cd1:	be 01 00 00 00       	mov    $0x1,%esi
    34802cd6:	48 8b 7d f8          	mov    -0x8(%rbp),%rdi
    34802cda:	e8 81 fb ff ff       	callq  34802860 <emit_2bytes>
    34802cdf:	31 f6                	xor    %esi,%esi
    34802ce1:	48 8b 7d f8          	mov    -0x8(%rbp),%rdi
    34802ce5:	e8 76 fb ff ff       	callq  34802860 <emit_2bytes>
    34802cea:	48 83 c4 10          	add    $0x10,%rsp
    34802cee:	5d                   	pop    %rbp
    34802cef:	c3                   	retq   

0000000034802cf0 <emit_pseudo_sos>:
    34802cf0:	55                   	push   %rbp
    34802cf1:	48 89 e5             	mov    %rsp,%rbp
    34802cf4:	48 83 ec 10          	sub    $0x10,%rsp
    34802cf8:	be da 00 00 00       	mov    $0xda,%esi
    34802cfd:	48 89 7d f8          	mov    %rdi,-0x8(%rbp)
    34802d01:	e8 da f8 ff ff       	callq  348025e0 <emit_marker>
    34802d06:	be 06 00 00 00       	mov    $0x6,%esi
    34802d0b:	48 8b 7d f8          	mov    -0x8(%rbp),%rdi
    34802d0f:	e8 4c fb ff ff       	callq  34802860 <emit_2bytes>
    34802d14:	31 f6                	xor    %esi,%esi
    34802d16:	48 8b 7d f8          	mov    -0x8(%rbp),%rdi
    34802d1a:	e8 d1 fa ff ff       	callq  348027f0 <emit_byte>
    34802d1f:	31 f6                	xor    %esi,%esi
    34802d21:	48 8b 7d f8          	mov    -0x8(%rbp),%rdi
    34802d25:	e8 c6 fa ff ff       	callq  348027f0 <emit_byte>
    34802d2a:	48 8b 7d f8          	mov    -0x8(%rbp),%rdi
    34802d2e:	8b b7 dc 01 00 00    	mov    0x1dc(%rdi),%esi
    34802d34:	0f af f6             	imul   %esi,%esi
    34802d37:	83 c6 ff             	add    $0xffffffff,%esi
    34802d3a:	e8 b1 fa ff ff       	callq  348027f0 <emit_byte>
    34802d3f:	31 f6                	xor    %esi,%esi
    34802d41:	48 8b 7d f8          	mov    -0x8(%rbp),%rdi
    34802d45:	e8 a6 fa ff ff       	callq  348027f0 <emit_byte>
    34802d4a:	48 83 c4 10          	add    $0x10,%rsp
    34802d4e:	5d                   	pop    %rbp
    34802d4f:	c3                   	retq   

0000000034802d50 <emit_dac>:
    34802d50:	55                   	push   %rbp
    34802d51:	48 89 e5             	mov    %rsp,%rbp
    34802d54:	48 81 ec 80 00 00 00 	sub    $0x80,%rsp
    34802d5b:	31 c0                	xor    %eax,%eax
    34802d5d:	48 89 7d d8          	mov    %rdi,-0x28(%rbp)
    34802d61:	89 45 d4             	mov    %eax,-0x2c(%rbp)
    34802d64:	8b 45 d4             	mov    -0x2c(%rbp),%eax
    34802d67:	83 f8 10             	cmp    $0x10,%eax
    34802d6a:	89 45 d0             	mov    %eax,-0x30(%rbp)
    34802d6d:	0f 8d 1b 00 00 00    	jge    34802d8e <emit_dac+0x3e>
    34802d73:	8b 45 d0             	mov    -0x30(%rbp),%eax
    34802d76:	48 63 c8             	movslq %eax,%rcx
    34802d79:	c6 44 0d e0 00       	movb   $0x0,-0x20(%rbp,%rcx,1)
    34802d7e:	c6 44 0d f0 00       	movb   $0x0,-0x10(%rbp,%rcx,1)
    34802d83:	83 c0 01             	add    $0x1,%eax
    34802d86:	89 45 d4             	mov    %eax,-0x2c(%rbp)
    34802d89:	e9 d6 ff ff ff       	jmpq   34802d64 <emit_dac+0x14>
    34802d8e:	31 c0                	xor    %eax,%eax
    34802d90:	48 8b 4d d8          	mov    -0x28(%rbp),%rcx
    34802d94:	8b 91 74 01 00 00    	mov    0x174(%rcx),%edx
    34802d9a:	48 81 c1 cc 01 00 00 	add    $0x1cc,%rcx
    34802da1:	48 8b 75 d8          	mov    -0x28(%rbp),%rsi
    34802da5:	48 81 c6 d4 01 00 00 	add    $0x1d4,%rsi
    34802dac:	48 8b 7d d8          	mov    -0x28(%rbp),%rdi
    34802db0:	48 81 c7 d0 01 00 00 	add    $0x1d0,%rdi
    34802db7:	48 89 7d c8          	mov    %rdi,-0x38(%rbp)
    34802dbb:	48 89 4d c0          	mov    %rcx,-0x40(%rbp)
    34802dbf:	89 55 bc             	mov    %edx,-0x44(%rbp)
    34802dc2:	48 89 75 b0          	mov    %rsi,-0x50(%rbp)
    34802dc6:	89 45 ac             	mov    %eax,-0x54(%rbp)
    34802dc9:	8b 45 ac             	mov    -0x54(%rbp),%eax
    34802dcc:	31 c9                	xor    %ecx,%ecx
    34802dce:	8b 55 bc             	mov    -0x44(%rbp),%edx
    34802dd1:	39 d0                	cmp    %edx,%eax
    34802dd3:	89 ce                	mov    %ecx,%esi
    34802dd5:	89 45 a8             	mov    %eax,-0x58(%rbp)
    34802dd8:	89 75 a4             	mov    %esi,-0x5c(%rbp)
    34802ddb:	89 4d a0             	mov    %ecx,-0x60(%rbp)
    34802dde:	0f 8d 65 00 00 00    	jge    34802e49 <emit_dac+0xf9>
    34802de4:	8b 45 a8             	mov    -0x58(%rbp),%eax
    34802de7:	48 63 c8             	movslq %eax,%rcx
    34802dea:	48 8b 55 d8          	mov    -0x28(%rbp),%rdx
    34802dee:	48 8b 8c ca 78 01 00 	mov    0x178(%rdx,%rcx,8),%rcx
    34802df5:	00 
    34802df6:	48 8b 75 c0          	mov    -0x40(%rbp),%rsi
    34802dfa:	83 3e 00             	cmpl   $0x0,(%rsi)
    34802dfd:	48 89 4d 98          	mov    %rcx,-0x68(%rbp)
    34802e01:	0f 85 1a 00 00 00    	jne    34802e21 <emit_dac+0xd1>
    34802e07:	48 8b 45 b0          	mov    -0x50(%rbp),%rax
    34802e0b:	83 38 00             	cmpl   $0x0,(%rax)
    34802e0e:	0f 85 0d 00 00 00    	jne    34802e21 <emit_dac+0xd1>
    34802e14:	48 8b 45 98          	mov    -0x68(%rbp),%rax
    34802e18:	48 63 48 14          	movslq 0x14(%rax),%rcx
    34802e1c:	c6 44 0d f0 01       	movb   $0x1,-0x10(%rbp,%rcx,1)
    34802e21:	48 8b 45 c8          	mov    -0x38(%rbp),%rax
    34802e25:	83 38 00             	cmpl   $0x0,(%rax)
    34802e28:	0f 84 0d 00 00 00    	je     34802e3b <emit_dac+0xeb>
    34802e2e:	48 8b 45 98          	mov    -0x68(%rbp),%rax
    34802e32:	48 63 48 18          	movslq 0x18(%rax),%rcx
    34802e36:	c6 44 0d e0 01       	movb   $0x1,-0x20(%rbp,%rcx,1)
    34802e3b:	8b 45 a8             	mov    -0x58(%rbp),%eax
    34802e3e:	83 c0 01             	add    $0x1,%eax
    34802e41:	89 45 ac             	mov    %eax,-0x54(%rbp)
    34802e44:	e9 80 ff ff ff       	jmpq   34802dc9 <emit_dac+0x79>
    34802e49:	8b 45 a0             	mov    -0x60(%rbp),%eax
    34802e4c:	8b 4d a4             	mov    -0x5c(%rbp),%ecx
    34802e4f:	83 f9 10             	cmp    $0x10,%ecx
    34802e52:	89 45 94             	mov    %eax,-0x6c(%rbp)
    34802e55:	89 4d 90             	mov    %ecx,-0x70(%rbp)
    34802e58:	0f 8d 25 00 00 00    	jge    34802e83 <emit_dac+0x133>
    34802e5e:	8b 45 90             	mov    -0x70(%rbp),%eax
    34802e61:	48 63 c8             	movslq %eax,%rcx
    34802e64:	0f be 54 0d f0       	movsbl -0x10(%rbp,%rcx,1),%edx
    34802e69:	0f be 74 0d e0       	movsbl -0x20(%rbp,%rcx,1),%esi
    34802e6e:	8b 7d 94             	mov    -0x6c(%rbp),%edi
    34802e71:	01 d7                	add    %edx,%edi
    34802e73:	01 f7                	add    %esi,%edi
    34802e75:	83 c0 01             	add    $0x1,%eax
    34802e78:	89 45 a4             	mov    %eax,-0x5c(%rbp)
    34802e7b:	89 7d a0             	mov    %edi,-0x60(%rbp)
    34802e7e:	e9 c6 ff ff ff       	jmpq   34802e49 <emit_dac+0xf9>
    34802e83:	8b 45 94             	mov    -0x6c(%rbp),%eax
    34802e86:	83 f8 00             	cmp    $0x0,%eax
    34802e89:	0f 84 bc 00 00 00    	je     34802f4b <emit_dac+0x1fb>
    34802e8f:	be cc 00 00 00       	mov    $0xcc,%esi
    34802e94:	48 8b 7d d8          	mov    -0x28(%rbp),%rdi
    34802e98:	e8 43 f7 ff ff       	callq  348025e0 <emit_marker>
    34802e9d:	8b 75 94             	mov    -0x6c(%rbp),%esi
    34802ea0:	c1 e6 01             	shl    $0x1,%esi
    34802ea3:	83 c6 02             	add    $0x2,%esi
    34802ea6:	48 8b 7d d8          	mov    -0x28(%rbp),%rdi
    34802eaa:	e8 b1 f9 ff ff       	callq  34802860 <emit_2bytes>
    34802eaf:	31 f6                	xor    %esi,%esi
    34802eb1:	89 75 8c             	mov    %esi,-0x74(%rbp)
    34802eb4:	8b 45 8c             	mov    -0x74(%rbp),%eax
    34802eb7:	83 f8 10             	cmp    $0x10,%eax
    34802eba:	89 45 88             	mov    %eax,-0x78(%rbp)
    34802ebd:	0f 8d 88 00 00 00    	jge    34802f4b <emit_dac+0x1fb>
    34802ec3:	8b 45 88             	mov    -0x78(%rbp),%eax
    34802ec6:	48 63 c8             	movslq %eax,%rcx
    34802ec9:	80 7c 0d f0 00       	cmpb   $0x0,-0x10(%rbp,%rcx,1)
    34802ece:	48 89 4d 80          	mov    %rcx,-0x80(%rbp)
    34802ed2:	0f 84 30 00 00 00    	je     34802f08 <emit_dac+0x1b8>
    34802ed8:	48 8b 7d d8          	mov    -0x28(%rbp),%rdi
    34802edc:	8b 75 88             	mov    -0x78(%rbp),%esi
    34802edf:	e8 0c f9 ff ff       	callq  348027f0 <emit_byte>
    34802ee4:	48 8b 7d d8          	mov    -0x28(%rbp),%rdi
    34802ee8:	48 8b 45 80          	mov    -0x80(%rbp),%rax
    34802eec:	0f b6 b4 07 e0 00 00 	movzbl 0xe0(%rdi,%rax,1),%esi
    34802ef3:	00 
    34802ef4:	0f b6 8c 07 f0 00 00 	movzbl 0xf0(%rdi,%rax,1),%ecx
    34802efb:	00 
    34802efc:	c1 e1 04             	shl    $0x4,%ecx
    34802eff:	01 f1                	add    %esi,%ecx
    34802f01:	89 ce                	mov    %ecx,%esi
    34802f03:	e8 e8 f8 ff ff       	callq  348027f0 <emit_byte>
    34802f08:	48 8b 45 80          	mov    -0x80(%rbp),%rax
    34802f0c:	80 7c 05 e0 00       	cmpb   $0x0,-0x20(%rbp,%rax,1)
    34802f11:	0f 84 26 00 00 00    	je     34802f3d <emit_dac+0x1ed>
    34802f17:	8b 45 88             	mov    -0x78(%rbp),%eax
    34802f1a:	83 c0 10             	add    $0x10,%eax
    34802f1d:	48 8b 7d d8          	mov    -0x28(%rbp),%rdi
    34802f21:	89 c6                	mov    %eax,%esi
    34802f23:	e8 c8 f8 ff ff       	callq  348027f0 <emit_byte>
    34802f28:	48 8b 7d d8          	mov    -0x28(%rbp),%rdi
    34802f2c:	48 8b 4d 80          	mov    -0x80(%rbp),%rcx
    34802f30:	0f b6 b4 0f 00 01 00 	movzbl 0x100(%rdi,%rcx,1),%esi
    34802f37:	00 
    34802f38:	e8 b3 f8 ff ff       	callq  348027f0 <emit_byte>
    34802f3d:	8b 45 88             	mov    -0x78(%rbp),%eax
    34802f40:	83 c0 01             	add    $0x1,%eax
    34802f43:	89 45 8c             	mov    %eax,-0x74(%rbp)
    34802f46:	e9 69 ff ff ff       	jmpq   34802eb4 <emit_dac+0x164>
    34802f4b:	48 81 c4 80 00 00 00 	add    $0x80,%rsp
    34802f52:	5d                   	pop    %rbp
    34802f53:	c3                   	retq   
    34802f54:	66 66 66 2e 0f 1f 84 	data32 data32 nopw %cs:0x0(%rax,%rax,1)
    34802f5b:	00 00 00 00 00 

0000000034802f60 <emit_dht>:
    34802f60:	55                   	push   %rbp
    34802f61:	48 89 e5             	mov    %rsp,%rbp
    34802f64:	48 83 ec 60          	sub    $0x60,%rsp
    34802f68:	83 fa 00             	cmp    $0x0,%edx
    34802f6b:	89 75 fc             	mov    %esi,-0x4(%rbp)
    34802f6e:	48 89 7d f0          	mov    %rdi,-0x10(%rbp)
    34802f72:	0f 84 27 00 00 00    	je     34802f9f <emit_dht+0x3f>
    34802f78:	8b 45 fc             	mov    -0x4(%rbp),%eax
    34802f7b:	48 63 c8             	movslq %eax,%rcx
    34802f7e:	48 8b 55 f0          	mov    -0x10(%rbp),%rdx
    34802f82:	48 81 c2 c0 00 00 00 	add    $0xc0,%rdx
    34802f89:	48 c1 e1 03          	shl    $0x3,%rcx
    34802f8d:	48 01 ca             	add    %rcx,%rdx
    34802f90:	83 c0 10             	add    $0x10,%eax
    34802f93:	89 45 ec             	mov    %eax,-0x14(%rbp)
    34802f96:	48 89 55 e0          	mov    %rdx,-0x20(%rbp)
    34802f9a:	e9 1f 00 00 00       	jmpq   34802fbe <emit_dht+0x5e>
    34802f9f:	8b 45 fc             	mov    -0x4(%rbp),%eax
    34802fa2:	48 63 c8             	movslq %eax,%rcx
    34802fa5:	48 8b 55 f0          	mov    -0x10(%rbp),%rdx
    34802fa9:	48 81 c2 a0 00 00 00 	add    $0xa0,%rdx
    34802fb0:	48 c1 e1 03          	shl    $0x3,%rcx
    34802fb4:	48 01 ca             	add    %rcx,%rdx
    34802fb7:	89 45 ec             	mov    %eax,-0x14(%rbp)
    34802fba:	48 89 55 e0          	mov    %rdx,-0x20(%rbp)
    34802fbe:	48 8b 45 e0          	mov    -0x20(%rbp),%rax
    34802fc2:	8b 4d ec             	mov    -0x14(%rbp),%ecx
    34802fc5:	48 8b 00             	mov    (%rax),%rax
    34802fc8:	48 83 f8 00          	cmp    $0x0,%rax
    34802fcc:	89 4d dc             	mov    %ecx,-0x24(%rbp)
    34802fcf:	48 89 45 d0          	mov    %rax,-0x30(%rbp)
    34802fd3:	0f 85 22 00 00 00    	jne    34802ffb <emit_dht+0x9b>
    34802fd9:	48 8b 45 f0          	mov    -0x10(%rbp),%rax
    34802fdd:	48 8b 08             	mov    (%rax),%rcx
    34802fe0:	c7 41 28 34 00 00 00 	movl   $0x34,0x28(%rcx)
    34802fe7:	48 8b 08             	mov    (%rax),%rcx
    34802fea:	8b 55 dc             	mov    -0x24(%rbp),%edx
    34802fed:	89 51 2c             	mov    %edx,0x2c(%rcx)
    34802ff0:	48 8b 08             	mov    (%rax),%rcx
    34802ff3:	48 8b 09             	mov    (%rcx),%rcx
    34802ff6:	48 89 c7             	mov    %rax,%rdi
    34802ff9:	ff d1                	callq  *%rcx
    34802ffb:	48 8b 45 d0          	mov    -0x30(%rbp),%rax
    34802fff:	48 05 14 01 00 00    	add    $0x114,%rax
    34803005:	48 8b 4d d0          	mov    -0x30(%rbp),%rcx
    34803009:	83 b9 14 01 00 00 00 	cmpl   $0x0,0x114(%rcx)
    34803010:	48 89 45 c8          	mov    %rax,-0x38(%rbp)
    34803014:	0f 85 f5 00 00 00    	jne    3480310f <emit_dht+0x1af>
    3480301a:	be c4 00 00 00       	mov    $0xc4,%esi
    3480301f:	48 8b 7d f0          	mov    -0x10(%rbp),%rdi
    34803023:	e8 b8 f5 ff ff       	callq  348025e0 <emit_marker>
    34803028:	31 f6                	xor    %esi,%esi
    3480302a:	b8 01 00 00 00       	mov    $0x1,%eax
    3480302f:	89 75 c4             	mov    %esi,-0x3c(%rbp)
    34803032:	89 45 c0             	mov    %eax,-0x40(%rbp)
    34803035:	8b 45 c0             	mov    -0x40(%rbp),%eax
    34803038:	8b 4d c4             	mov    -0x3c(%rbp),%ecx
    3480303b:	83 f8 11             	cmp    $0x11,%eax
    3480303e:	89 45 bc             	mov    %eax,-0x44(%rbp)
    34803041:	89 4d b8             	mov    %ecx,-0x48(%rbp)
    34803044:	0f 8d 21 00 00 00    	jge    3480306b <emit_dht+0x10b>
    3480304a:	8b 45 bc             	mov    -0x44(%rbp),%eax
    3480304d:	48 63 c8             	movslq %eax,%rcx
    34803050:	48 8b 55 d0          	mov    -0x30(%rbp),%rdx
    34803054:	0f b6 34 0a          	movzbl (%rdx,%rcx,1),%esi
    34803058:	8b 7d b8             	mov    -0x48(%rbp),%edi
    3480305b:	01 f7                	add    %esi,%edi
    3480305d:	83 c0 01             	add    $0x1,%eax
    34803060:	89 7d c4             	mov    %edi,-0x3c(%rbp)
    34803063:	89 45 c0             	mov    %eax,-0x40(%rbp)
    34803066:	e9 ca ff ff ff       	jmpq   34803035 <emit_dht+0xd5>
    3480306b:	8b 45 b8             	mov    -0x48(%rbp),%eax
    3480306e:	83 c0 13             	add    $0x13,%eax
    34803071:	48 8b 7d f0          	mov    -0x10(%rbp),%rdi
    34803075:	89 c6                	mov    %eax,%esi
    34803077:	e8 e4 f7 ff ff       	callq  34802860 <emit_2bytes>
    3480307c:	48 8b 7d f0          	mov    -0x10(%rbp),%rdi
    34803080:	8b 75 dc             	mov    -0x24(%rbp),%esi
    34803083:	e8 68 f7 ff ff       	callq  348027f0 <emit_byte>
    34803088:	b8 01 00 00 00       	mov    $0x1,%eax
    3480308d:	89 45 b4             	mov    %eax,-0x4c(%rbp)
    34803090:	8b 45 b4             	mov    -0x4c(%rbp),%eax
    34803093:	83 f8 11             	cmp    $0x11,%eax
    34803096:	89 45 b0             	mov    %eax,-0x50(%rbp)
    34803099:	0f 8d 25 00 00 00    	jge    348030c4 <emit_dht+0x164>
    3480309f:	8b 45 b0             	mov    -0x50(%rbp),%eax
    348030a2:	48 63 c8             	movslq %eax,%rcx
    348030a5:	48 8b 55 d0          	mov    -0x30(%rbp),%rdx
    348030a9:	0f b6 34 0a          	movzbl (%rdx,%rcx,1),%esi
    348030ad:	48 8b 7d f0          	mov    -0x10(%rbp),%rdi
    348030b1:	e8 3a f7 ff ff       	callq  348027f0 <emit_byte>
    348030b6:	8b 45 b0             	mov    -0x50(%rbp),%eax
    348030b9:	83 c0 01             	add    $0x1,%eax
    348030bc:	89 45 b4             	mov    %eax,-0x4c(%rbp)
    348030bf:	e9 cc ff ff ff       	jmpq   34803090 <emit_dht+0x130>
    348030c4:	31 c0                	xor    %eax,%eax
    348030c6:	89 45 ac             	mov    %eax,-0x54(%rbp)
    348030c9:	e9 00 00 00 00       	jmpq   348030ce <emit_dht+0x16e>
    348030ce:	8b 45 ac             	mov    -0x54(%rbp),%eax
    348030d1:	8b 4d b8             	mov    -0x48(%rbp),%ecx
    348030d4:	39 c8                	cmp    %ecx,%eax
    348030d6:	89 45 a8             	mov    %eax,-0x58(%rbp)
    348030d9:	0f 8d 26 00 00 00    	jge    34803105 <emit_dht+0x1a5>
    348030df:	8b 45 a8             	mov    -0x58(%rbp),%eax
    348030e2:	48 63 c8             	movslq %eax,%rcx
    348030e5:	48 8b 55 d0          	mov    -0x30(%rbp),%rdx
    348030e9:	0f b6 74 0a 11       	movzbl 0x11(%rdx,%rcx,1),%esi
    348030ee:	48 8b 7d f0          	mov    -0x10(%rbp),%rdi
    348030f2:	e8 f9 f6 ff ff       	callq  348027f0 <emit_byte>
    348030f7:	8b 45 a8             	mov    -0x58(%rbp),%eax
    348030fa:	83 c0 01             	add    $0x1,%eax
    348030fd:	89 45 ac             	mov    %eax,-0x54(%rbp)
    34803100:	e9 c9 ff ff ff       	jmpq   348030ce <emit_dht+0x16e>
    34803105:	48 8b 45 c8          	mov    -0x38(%rbp),%rax
    34803109:	c7 00 01 00 00 00    	movl   $0x1,(%rax)
    3480310f:	48 83 c4 60          	add    $0x60,%rsp
    34803113:	5d                   	pop    %rbp
    34803114:	c3                   	retq   
    34803115:	66 66 2e 0f 1f 84 00 	data32 nopw %cs:0x0(%rax,%rax,1)
    3480311c:	00 00 00 00 

0000000034803120 <emit_dri>:
    34803120:	55                   	push   %rbp
    34803121:	48 89 e5             	mov    %rsp,%rbp
    34803124:	48 83 ec 10          	sub    $0x10,%rsp
    34803128:	be dd 00 00 00       	mov    $0xdd,%esi
    3480312d:	48 89 7d f8          	mov    %rdi,-0x8(%rbp)
    34803131:	e8 aa f4 ff ff       	callq  348025e0 <emit_marker>
    34803136:	be 04 00 00 00       	mov    $0x4,%esi
    3480313b:	48 8b 7d f8          	mov    -0x8(%rbp),%rdi
    3480313f:	e8 1c f7 ff ff       	callq  34802860 <emit_2bytes>
    34803144:	48 8b 7d f8          	mov    -0x8(%rbp),%rdi
    34803148:	8b b7 3c 01 00 00    	mov    0x13c(%rdi),%esi
    3480314e:	e8 0d f7 ff ff       	callq  34802860 <emit_2bytes>
    34803153:	48 83 c4 10          	add    $0x10,%rsp
    34803157:	5d                   	pop    %rbp
    34803158:	c3                   	retq   
    34803159:	0f 1f 80 00 00 00 00 	nopl   0x0(%rax)

0000000034803160 <emit_sos>:
    34803160:	55                   	push   %rbp
    34803161:	48 89 e5             	mov    %rsp,%rbp
    34803164:	48 83 ec 50          	sub    $0x50,%rsp
    34803168:	be da 00 00 00       	mov    $0xda,%esi
    3480316d:	48 89 7d f8          	mov    %rdi,-0x8(%rbp)
    34803171:	e8 6a f4 ff ff       	callq  348025e0 <emit_marker>
    34803176:	48 8b 7d f8          	mov    -0x8(%rbp),%rdi
    3480317a:	48 81 c7 74 01 00 00 	add    $0x174,%rdi
    34803181:	48 8b 45 f8          	mov    -0x8(%rbp),%rax
    34803185:	8b b0 74 01 00 00    	mov    0x174(%rax),%esi
    3480318b:	c1 e6 01             	shl    $0x1,%esi
    3480318e:	83 c6 06             	add    $0x6,%esi
    34803191:	48 89 7d f0          	mov    %rdi,-0x10(%rbp)
    34803195:	48 89 c7             	mov    %rax,%rdi
    34803198:	e8 c3 f6 ff ff       	callq  34802860 <emit_2bytes>
    3480319d:	48 8b 45 f8          	mov    -0x8(%rbp),%rax
    348031a1:	8b b0 74 01 00 00    	mov    0x174(%rax),%esi
    348031a7:	48 89 c7             	mov    %rax,%rdi
    348031aa:	e8 41 f6 ff ff       	callq  348027f0 <emit_byte>
    348031af:	31 f6                	xor    %esi,%esi
    348031b1:	48 8b 45 f8          	mov    -0x8(%rbp),%rax
    348031b5:	48 05 cc 01 00 00    	add    $0x1cc,%rax
    348031bb:	48 8b 7d f8          	mov    -0x8(%rbp),%rdi
    348031bf:	48 81 c7 d4 01 00 00 	add    $0x1d4,%rdi
    348031c6:	48 8b 4d f8          	mov    -0x8(%rbp),%rcx
    348031ca:	48 81 c1 d0 01 00 00 	add    $0x1d0,%rcx
    348031d1:	48 89 4d e8          	mov    %rcx,-0x18(%rbp)
    348031d5:	48 89 45 e0          	mov    %rax,-0x20(%rbp)
    348031d9:	48 89 7d d8          	mov    %rdi,-0x28(%rbp)
    348031dd:	89 75 d4             	mov    %esi,-0x2c(%rbp)
    348031e0:	8b 45 d4             	mov    -0x2c(%rbp),%eax
    348031e3:	48 8b 4d f0          	mov    -0x10(%rbp),%rcx
    348031e7:	3b 01                	cmp    (%rcx),%eax
    348031e9:	89 45 d0             	mov    %eax,-0x30(%rbp)
    348031ec:	0f 8d 94 00 00 00    	jge    34803286 <emit_sos+0x126>
    348031f2:	8b 45 d0             	mov    -0x30(%rbp),%eax
    348031f5:	48 63 c8             	movslq %eax,%rcx
    348031f8:	48 8b 55 f8          	mov    -0x8(%rbp),%rdx
    348031fc:	48 8b 8c ca 78 01 00 	mov    0x178(%rdx,%rcx,8),%rcx
    34803203:	00 
    34803204:	8b 31                	mov    (%rcx),%esi
    34803206:	48 89 d7             	mov    %rdx,%rdi
    34803209:	48 89 4d c8          	mov    %rcx,-0x38(%rbp)
    3480320d:	e8 de f5 ff ff       	callq  348027f0 <emit_byte>
    34803212:	31 c0                	xor    %eax,%eax
    34803214:	48 8b 4d e0          	mov    -0x20(%rbp),%rcx
    34803218:	83 39 00             	cmpl   $0x0,(%rcx)
    3480321b:	89 45 c4             	mov    %eax,-0x3c(%rbp)
    3480321e:	0f 85 1c 00 00 00    	jne    34803240 <emit_sos+0xe0>
    34803224:	31 c0                	xor    %eax,%eax
    34803226:	48 8b 4d d8          	mov    -0x28(%rbp),%rcx
    3480322a:	83 39 00             	cmpl   $0x0,(%rcx)
    3480322d:	89 45 c4             	mov    %eax,-0x3c(%rbp)
    34803230:	0f 85 0a 00 00 00    	jne    34803240 <emit_sos+0xe0>
    34803236:	48 8b 45 c8          	mov    -0x38(%rbp),%rax
    3480323a:	8b 48 14             	mov    0x14(%rax),%ecx
    3480323d:	89 4d c4             	mov    %ecx,-0x3c(%rbp)
    34803240:	8b 45 c4             	mov    -0x3c(%rbp),%eax
    34803243:	31 c9                	xor    %ecx,%ecx
    34803245:	48 8b 55 e8          	mov    -0x18(%rbp),%rdx
    34803249:	83 3a 00             	cmpl   $0x0,(%rdx)
    3480324c:	89 45 c0             	mov    %eax,-0x40(%rbp)
    3480324f:	89 4d bc             	mov    %ecx,-0x44(%rbp)
    34803252:	0f 84 0a 00 00 00    	je     34803262 <emit_sos+0x102>
    34803258:	48 8b 45 c8          	mov    -0x38(%rbp),%rax
    3480325c:	8b 48 18             	mov    0x18(%rax),%ecx
    3480325f:	89 4d bc             	mov    %ecx,-0x44(%rbp)
    34803262:	8b 45 bc             	mov    -0x44(%rbp),%eax
    34803265:	8b 4d c0             	mov    -0x40(%rbp),%ecx
    34803268:	c1 e1 04             	shl    $0x4,%ecx
    3480326b:	01 c8                	add    %ecx,%eax
    3480326d:	48 8b 7d f8          	mov    -0x8(%rbp),%rdi
    34803271:	89 c6                	mov    %eax,%esi
    34803273:	e8 78 f5 ff ff       	callq  348027f0 <emit_byte>
    34803278:	8b 45 d0             	mov    -0x30(%rbp),%eax
    3480327b:	83 c0 01             	add    $0x1,%eax
    3480327e:	89 45 d4             	mov    %eax,-0x2c(%rbp)
    34803281:	e9 5a ff ff ff       	jmpq   348031e0 <emit_sos+0x80>
    34803286:	48 8b 45 f8          	mov    -0x8(%rbp),%rax
    3480328a:	8b b0 cc 01 00 00    	mov    0x1cc(%rax),%esi
    34803290:	48 89 c7             	mov    %rax,%rdi
    34803293:	e8 58 f5 ff ff       	callq  348027f0 <emit_byte>
    34803298:	48 8b 45 f8          	mov    -0x8(%rbp),%rax
    3480329c:	8b b0 d0 01 00 00    	mov    0x1d0(%rax),%esi
    348032a2:	48 89 c7             	mov    %rax,%rdi
    348032a5:	e8 46 f5 ff ff       	callq  348027f0 <emit_byte>
    348032aa:	48 8b 45 f8          	mov    -0x8(%rbp),%rax
    348032ae:	8b b0 d4 01 00 00    	mov    0x1d4(%rax),%esi
    348032b4:	c1 e6 04             	shl    $0x4,%esi
    348032b7:	03 b0 d8 01 00 00    	add    0x1d8(%rax),%esi
    348032bd:	48 89 c7             	mov    %rax,%rdi
    348032c0:	e8 2b f5 ff ff       	callq  348027f0 <emit_byte>
    348032c5:	48 83 c4 50          	add    $0x50,%rsp
    348032c9:	5d                   	pop    %rbp
    348032ca:	c3                   	retq   
    348032cb:	0f 1f 44 00 00       	nopl   0x0(%rax,%rax,1)

00000000348032d0 <jpeg_calc_jpeg_dimensions>:
    348032d0:	55                   	push   %rbp
    348032d1:	48 89 e5             	mov    %rsp,%rbp
    348032d4:	48 83 ec 40          	sub    $0x40,%rsp
    348032d8:	48 89 f8             	mov    %rdi,%rax
    348032db:	48 83 c0 30          	add    $0x30,%rax
    348032df:	81 7f 30 ff ff ff 00 	cmpl   $0xffffff,0x30(%rdi)
    348032e6:	48 89 7d f8          	mov    %rdi,-0x8(%rbp)
    348032ea:	48 89 45 f0          	mov    %rax,-0x10(%rbp)
    348032ee:	0f 87 11 00 00 00    	ja     34803305 <jpeg_calc_jpeg_dimensions+0x35>
    348032f4:	48 8b 45 f8          	mov    -0x8(%rbp),%rax
    348032f8:	81 78 34 ff ff ff 00 	cmpl   $0xffffff,0x34(%rax)
    348032ff:	0f 86 23 00 00 00    	jbe    34803328 <jpeg_calc_jpeg_dimensions+0x58>
    34803305:	48 8b 45 f8          	mov    -0x8(%rbp),%rax
    34803309:	48 8b 08             	mov    (%rax),%rcx
    3480330c:	c7 41 28 2a 00 00 00 	movl   $0x2a,0x28(%rcx)
    34803313:	48 8b 08             	mov    (%rax),%rcx
    34803316:	c7 41 2c dc ff 00 00 	movl   $0xffdc,0x2c(%rcx)
    3480331d:	48 8b 08             	mov    (%rax),%rcx
    34803320:	48 8b 09             	mov    (%rcx),%rcx
    34803323:	48 89 c7             	mov    %rax,%rdi
    34803326:	ff d1                	callq  *%rcx
    34803328:	48 8b 45 f8          	mov    -0x8(%rbp),%rax
    3480332c:	8b 48 48             	mov    0x48(%rax),%ecx
    3480332f:	8b 50 4c             	mov    0x4c(%rax),%edx
    34803332:	48 05 dc 01 00 00    	add    $0x1dc,%rax
    34803338:	48 8b 75 f8          	mov    -0x8(%rbp),%rsi
    3480333c:	8b be dc 01 00 00    	mov    0x1dc(%rsi),%edi
    34803342:	41 89 f8             	mov    %edi,%r8d
    34803345:	44 0f af c2          	imul   %edx,%r8d
    34803349:	44 39 c1             	cmp    %r8d,%ecx
    3480334c:	48 89 45 e8          	mov    %rax,-0x18(%rbp)
    34803350:	89 4d e4             	mov    %ecx,-0x1c(%rbp)
    34803353:	44 89 45 e0          	mov    %r8d,-0x20(%rbp)
    34803357:	89 7d dc             	mov    %edi,-0x24(%rbp)
    3480335a:	0f 82 2b 00 00 00    	jb     3480338b <jpeg_calc_jpeg_dimensions+0xbb>
    34803360:	b8 01 00 00 00       	mov    $0x1,%eax
    34803365:	8b 4d dc             	mov    -0x24(%rbp),%ecx
    34803368:	48 8b 55 f0          	mov    -0x10(%rbp),%rdx
    3480336c:	0f af 0a             	imul   (%rdx),%ecx
    3480336f:	48 8b 75 f8          	mov    -0x8(%rbp),%rsi
    34803373:	89 4e 50             	mov    %ecx,0x50(%rsi)
    34803376:	8b 4e 34             	mov    0x34(%rsi),%ecx
    34803379:	48 8b 7d e8          	mov    -0x18(%rbp),%rdi
    3480337d:	0f af 0f             	imul   (%rdi),%ecx
    34803380:	89 4d d8             	mov    %ecx,-0x28(%rbp)
    34803383:	89 45 d4             	mov    %eax,-0x2c(%rbp)
    34803386:	e9 93 06 00 00       	jmpq   34803a1e <jpeg_calc_jpeg_dimensions+0x74e>
    3480338b:	8b 45 e4             	mov    -0x1c(%rbp),%eax
    3480338e:	c1 e0 01             	shl    $0x1,%eax
    34803391:	8b 4d e0             	mov    -0x20(%rbp),%ecx
    34803394:	39 c8                	cmp    %ecx,%eax
    34803396:	0f 82 62 00 00 00    	jb     348033fe <jpeg_calc_jpeg_dimensions+0x12e>
    3480339c:	b8 02 00 00 00       	mov    $0x2,%eax
    348033a1:	89 c6                	mov    %eax,%esi
    348033a3:	48 8b 4d f0          	mov    -0x10(%rbp),%rcx
    348033a7:	8b 01                	mov    (%rcx),%eax
    348033a9:	89 c2                	mov    %eax,%edx
    348033ab:	8b 45 dc             	mov    -0x24(%rbp),%eax
    348033ae:	48 63 f8             	movslq %eax,%rdi
    348033b1:	48 0f af d7          	imul   %rdi,%rdx
    348033b5:	48 89 d7             	mov    %rdx,%rdi
    348033b8:	e8 d3 63 00 00       	callq  34809790 <jdiv_round_up>
    348033bd:	41 b8 02 00 00 00    	mov    $0x2,%r8d
    348033c3:	44 89 c6             	mov    %r8d,%esi
    348033c6:	41 89 c0             	mov    %eax,%r8d
    348033c9:	48 8b 45 f8          	mov    -0x8(%rbp),%rax
    348033cd:	44 89 40 50          	mov    %r8d,0x50(%rax)
    348033d1:	44 8b 40 34          	mov    0x34(%rax),%r8d
    348033d5:	44 89 c1             	mov    %r8d,%ecx
    348033d8:	48 8b 55 e8          	mov    -0x18(%rbp),%rdx
    348033dc:	48 63 3a             	movslq (%rdx),%rdi
    348033df:	48 0f af f9          	imul   %rcx,%rdi
    348033e3:	e8 a8 63 00 00       	callq  34809790 <jdiv_round_up>
    348033e8:	41 b8 02 00 00 00    	mov    $0x2,%r8d
    348033ee:	41 89 c1             	mov    %eax,%r9d
    348033f1:	44 89 4d d8          	mov    %r9d,-0x28(%rbp)
    348033f5:	44 89 45 d4          	mov    %r8d,-0x2c(%rbp)
    348033f9:	e9 20 06 00 00       	jmpq   34803a1e <jpeg_calc_jpeg_dimensions+0x74e>
    348033fe:	8b 45 e4             	mov    -0x1c(%rbp),%eax
    34803401:	6b c8 03             	imul   $0x3,%eax,%ecx
    34803404:	8b 55 e0             	mov    -0x20(%rbp),%edx
    34803407:	39 d1                	cmp    %edx,%ecx
    34803409:	0f 82 62 00 00 00    	jb     34803471 <jpeg_calc_jpeg_dimensions+0x1a1>
    3480340f:	b8 03 00 00 00       	mov    $0x3,%eax
    34803414:	89 c6                	mov    %eax,%esi
    34803416:	48 8b 4d f0          	mov    -0x10(%rbp),%rcx
    3480341a:	8b 01                	mov    (%rcx),%eax
    3480341c:	89 c2                	mov    %eax,%edx
    3480341e:	8b 45 dc             	mov    -0x24(%rbp),%eax
    34803421:	48 63 f8             	movslq %eax,%rdi
    34803424:	48 0f af d7          	imul   %rdi,%rdx
    34803428:	48 89 d7             	mov    %rdx,%rdi
    3480342b:	e8 60 63 00 00       	callq  34809790 <jdiv_round_up>
    34803430:	41 b8 03 00 00 00    	mov    $0x3,%r8d
    34803436:	44 89 c6             	mov    %r8d,%esi
    34803439:	41 89 c0             	mov    %eax,%r8d
    3480343c:	48 8b 45 f8          	mov    -0x8(%rbp),%rax
    34803440:	44 89 40 50          	mov    %r8d,0x50(%rax)
    34803444:	44 8b 40 34          	mov    0x34(%rax),%r8d
    34803448:	44 89 c1             	mov    %r8d,%ecx
    3480344b:	48 8b 55 e8          	mov    -0x18(%rbp),%rdx
    3480344f:	48 63 3a             	movslq (%rdx),%rdi
    34803452:	48 0f af f9          	imul   %rcx,%rdi
    34803456:	e8 35 63 00 00       	callq  34809790 <jdiv_round_up>
    3480345b:	41 b8 03 00 00 00    	mov    $0x3,%r8d
    34803461:	41 89 c1             	mov    %eax,%r9d
    34803464:	44 89 4d d8          	mov    %r9d,-0x28(%rbp)
    34803468:	44 89 45 d4          	mov    %r8d,-0x2c(%rbp)
    3480346c:	e9 ad 05 00 00       	jmpq   34803a1e <jpeg_calc_jpeg_dimensions+0x74e>
    34803471:	8b 45 e4             	mov    -0x1c(%rbp),%eax
    34803474:	c1 e0 02             	shl    $0x2,%eax
    34803477:	8b 4d e0             	mov    -0x20(%rbp),%ecx
    3480347a:	39 c8                	cmp    %ecx,%eax
    3480347c:	0f 82 62 00 00 00    	jb     348034e4 <jpeg_calc_jpeg_dimensions+0x214>
    34803482:	b8 04 00 00 00       	mov    $0x4,%eax
    34803487:	89 c6                	mov    %eax,%esi
    34803489:	48 8b 4d f0          	mov    -0x10(%rbp),%rcx
    3480348d:	8b 01                	mov    (%rcx),%eax
    3480348f:	89 c2                	mov    %eax,%edx
    34803491:	8b 45 dc             	mov    -0x24(%rbp),%eax
    34803494:	48 63 f8             	movslq %eax,%rdi
    34803497:	48 0f af d7          	imul   %rdi,%rdx
    3480349b:	48 89 d7             	mov    %rdx,%rdi
    3480349e:	e8 ed 62 00 00       	callq  34809790 <jdiv_round_up>
    348034a3:	41 b8 04 00 00 00    	mov    $0x4,%r8d
    348034a9:	44 89 c6             	mov    %r8d,%esi
    348034ac:	41 89 c0             	mov    %eax,%r8d
    348034af:	48 8b 45 f8          	mov    -0x8(%rbp),%rax
    348034b3:	44 89 40 50          	mov    %r8d,0x50(%rax)
    348034b7:	44 8b 40 34          	mov    0x34(%rax),%r8d
    348034bb:	44 89 c1             	mov    %r8d,%ecx
    348034be:	48 8b 55 e8          	mov    -0x18(%rbp),%rdx
    348034c2:	48 63 3a             	movslq (%rdx),%rdi
    348034c5:	48 0f af f9          	imul   %rcx,%rdi
    348034c9:	e8 c2 62 00 00       	callq  34809790 <jdiv_round_up>
    348034ce:	41 b8 04 00 00 00    	mov    $0x4,%r8d
    348034d4:	41 89 c1             	mov    %eax,%r9d
    348034d7:	44 89 4d d8          	mov    %r9d,-0x28(%rbp)
    348034db:	44 89 45 d4          	mov    %r8d,-0x2c(%rbp)
    348034df:	e9 3a 05 00 00       	jmpq   34803a1e <jpeg_calc_jpeg_dimensions+0x74e>
    348034e4:	8b 45 e4             	mov    -0x1c(%rbp),%eax
    348034e7:	6b c8 05             	imul   $0x5,%eax,%ecx
    348034ea:	8b 55 e0             	mov    -0x20(%rbp),%edx
    348034ed:	39 d1                	cmp    %edx,%ecx
    348034ef:	0f 82 62 00 00 00    	jb     34803557 <jpeg_calc_jpeg_dimensions+0x287>
    348034f5:	b8 05 00 00 00       	mov    $0x5,%eax
    348034fa:	89 c6                	mov    %eax,%esi
    348034fc:	48 8b 4d f0          	mov    -0x10(%rbp),%rcx
    34803500:	8b 01                	mov    (%rcx),%eax
    34803502:	89 c2                	mov    %eax,%edx
    34803504:	8b 45 dc             	mov    -0x24(%rbp),%eax
    34803507:	48 63 f8             	movslq %eax,%rdi
    3480350a:	48 0f af d7          	imul   %rdi,%rdx
    3480350e:	48 89 d7             	mov    %rdx,%rdi
    34803511:	e8 7a 62 00 00       	callq  34809790 <jdiv_round_up>
    34803516:	41 b8 05 00 00 00    	mov    $0x5,%r8d
    3480351c:	44 89 c6             	mov    %r8d,%esi
    3480351f:	41 89 c0             	mov    %eax,%r8d
    34803522:	48 8b 45 f8          	mov    -0x8(%rbp),%rax
    34803526:	44 89 40 50          	mov    %r8d,0x50(%rax)
    3480352a:	44 8b 40 34          	mov    0x34(%rax),%r8d
    3480352e:	44 89 c1             	mov    %r8d,%ecx
    34803531:	48 8b 55 e8          	mov    -0x18(%rbp),%rdx
    34803535:	48 63 3a             	movslq (%rdx),%rdi
    34803538:	48 0f af f9          	imul   %rcx,%rdi
    3480353c:	e8 4f 62 00 00       	callq  34809790 <jdiv_round_up>
    34803541:	41 b8 05 00 00 00    	mov    $0x5,%r8d
    34803547:	41 89 c1             	mov    %eax,%r9d
    3480354a:	44 89 4d d8          	mov    %r9d,-0x28(%rbp)
    3480354e:	44 89 45 d4          	mov    %r8d,-0x2c(%rbp)
    34803552:	e9 c7 04 00 00       	jmpq   34803a1e <jpeg_calc_jpeg_dimensions+0x74e>
    34803557:	8b 45 e4             	mov    -0x1c(%rbp),%eax
    3480355a:	6b c8 06             	imul   $0x6,%eax,%ecx
    3480355d:	8b 55 e0             	mov    -0x20(%rbp),%edx
    34803560:	39 d1                	cmp    %edx,%ecx
    34803562:	0f 82 62 00 00 00    	jb     348035ca <jpeg_calc_jpeg_dimensions+0x2fa>
    34803568:	b8 06 00 00 00       	mov    $0x6,%eax
    3480356d:	89 c6                	mov    %eax,%esi
    3480356f:	48 8b 4d f0          	mov    -0x10(%rbp),%rcx
    34803573:	8b 01                	mov    (%rcx),%eax
    34803575:	89 c2                	mov    %eax,%edx
    34803577:	8b 45 dc             	mov    -0x24(%rbp),%eax
    3480357a:	48 63 f8             	movslq %eax,%rdi
    3480357d:	48 0f af d7          	imul   %rdi,%rdx
    34803581:	48 89 d7             	mov    %rdx,%rdi
    34803584:	e8 07 62 00 00       	callq  34809790 <jdiv_round_up>
    34803589:	41 b8 06 00 00 00    	mov    $0x6,%r8d
    3480358f:	44 89 c6             	mov    %r8d,%esi
    34803592:	41 89 c0             	mov    %eax,%r8d
    34803595:	48 8b 45 f8          	mov    -0x8(%rbp),%rax
    34803599:	44 89 40 50          	mov    %r8d,0x50(%rax)
    3480359d:	44 8b 40 34          	mov    0x34(%rax),%r8d
    348035a1:	44 89 c1             	mov    %r8d,%ecx
    348035a4:	48 8b 55 e8          	mov    -0x18(%rbp),%rdx
    348035a8:	48 63 3a             	movslq (%rdx),%rdi
    348035ab:	48 0f af f9          	imul   %rcx,%rdi
    348035af:	e8 dc 61 00 00       	callq  34809790 <jdiv_round_up>
    348035b4:	41 b8 06 00 00 00    	mov    $0x6,%r8d
    348035ba:	41 89 c1             	mov    %eax,%r9d
    348035bd:	44 89 4d d8          	mov    %r9d,-0x28(%rbp)
    348035c1:	44 89 45 d4          	mov    %r8d,-0x2c(%rbp)
    348035c5:	e9 54 04 00 00       	jmpq   34803a1e <jpeg_calc_jpeg_dimensions+0x74e>
    348035ca:	8b 45 e4             	mov    -0x1c(%rbp),%eax
    348035cd:	6b c8 07             	imul   $0x7,%eax,%ecx
    348035d0:	8b 55 e0             	mov    -0x20(%rbp),%edx
    348035d3:	39 d1                	cmp    %edx,%ecx
    348035d5:	0f 82 62 00 00 00    	jb     3480363d <jpeg_calc_jpeg_dimensions+0x36d>
    348035db:	b8 07 00 00 00       	mov    $0x7,%eax
    348035e0:	89 c6                	mov    %eax,%esi
    348035e2:	48 8b 4d f0          	mov    -0x10(%rbp),%rcx
    348035e6:	8b 01                	mov    (%rcx),%eax
    348035e8:	89 c2                	mov    %eax,%edx
    348035ea:	8b 45 dc             	mov    -0x24(%rbp),%eax
    348035ed:	48 63 f8             	movslq %eax,%rdi
    348035f0:	48 0f af d7          	imul   %rdi,%rdx
    348035f4:	48 89 d7             	mov    %rdx,%rdi
    348035f7:	e8 94 61 00 00       	callq  34809790 <jdiv_round_up>
    348035fc:	41 b8 07 00 00 00    	mov    $0x7,%r8d
    34803602:	44 89 c6             	mov    %r8d,%esi
    34803605:	41 89 c0             	mov    %eax,%r8d
    34803608:	48 8b 45 f8          	mov    -0x8(%rbp),%rax
    3480360c:	44 89 40 50          	mov    %r8d,0x50(%rax)
    34803610:	44 8b 40 34          	mov    0x34(%rax),%r8d
    34803614:	44 89 c1             	mov    %r8d,%ecx
    34803617:	48 8b 55 e8          	mov    -0x18(%rbp),%rdx
    3480361b:	48 63 3a             	movslq (%rdx),%rdi
    3480361e:	48 0f af f9          	imul   %rcx,%rdi
    34803622:	e8 69 61 00 00       	callq  34809790 <jdiv_round_up>
    34803627:	41 b8 07 00 00 00    	mov    $0x7,%r8d
    3480362d:	41 89 c1             	mov    %eax,%r9d
    34803630:	44 89 4d d8          	mov    %r9d,-0x28(%rbp)
    34803634:	44 89 45 d4          	mov    %r8d,-0x2c(%rbp)
    34803638:	e9 e1 03 00 00       	jmpq   34803a1e <jpeg_calc_jpeg_dimensions+0x74e>
    3480363d:	8b 45 e4             	mov    -0x1c(%rbp),%eax
    34803640:	c1 e0 03             	shl    $0x3,%eax
    34803643:	8b 4d e0             	mov    -0x20(%rbp),%ecx
    34803646:	39 c8                	cmp    %ecx,%eax
    34803648:	0f 82 62 00 00 00    	jb     348036b0 <jpeg_calc_jpeg_dimensions+0x3e0>
    3480364e:	b8 08 00 00 00       	mov    $0x8,%eax
    34803653:	89 c6                	mov    %eax,%esi
    34803655:	48 8b 4d f0          	mov    -0x10(%rbp),%rcx
    34803659:	8b 01                	mov    (%rcx),%eax
    3480365b:	89 c2                	mov    %eax,%edx
    3480365d:	8b 45 dc             	mov    -0x24(%rbp),%eax
    34803660:	48 63 f8             	movslq %eax,%rdi
    34803663:	48 0f af d7          	imul   %rdi,%rdx
    34803667:	48 89 d7             	mov    %rdx,%rdi
    3480366a:	e8 21 61 00 00       	callq  34809790 <jdiv_round_up>
    3480366f:	41 b8 08 00 00 00    	mov    $0x8,%r8d
    34803675:	44 89 c6             	mov    %r8d,%esi
    34803678:	41 89 c0             	mov    %eax,%r8d
    3480367b:	48 8b 45 f8          	mov    -0x8(%rbp),%rax
    3480367f:	44 89 40 50          	mov    %r8d,0x50(%rax)
    34803683:	44 8b 40 34          	mov    0x34(%rax),%r8d
    34803687:	44 89 c1             	mov    %r8d,%ecx
    3480368a:	48 8b 55 e8          	mov    -0x18(%rbp),%rdx
    3480368e:	48 63 3a             	movslq (%rdx),%rdi
    34803691:	48 0f af f9          	imul   %rcx,%rdi
    34803695:	e8 f6 60 00 00       	callq  34809790 <jdiv_round_up>
    3480369a:	41 b8 08 00 00 00    	mov    $0x8,%r8d
    348036a0:	41 89 c1             	mov    %eax,%r9d
    348036a3:	44 89 4d d8          	mov    %r9d,-0x28(%rbp)
    348036a7:	44 89 45 d4          	mov    %r8d,-0x2c(%rbp)
    348036ab:	e9 6e 03 00 00       	jmpq   34803a1e <jpeg_calc_jpeg_dimensions+0x74e>
    348036b0:	8b 45 e4             	mov    -0x1c(%rbp),%eax
    348036b3:	6b c8 09             	imul   $0x9,%eax,%ecx
    348036b6:	8b 55 e0             	mov    -0x20(%rbp),%edx
    348036b9:	39 d1                	cmp    %edx,%ecx
    348036bb:	0f 82 62 00 00 00    	jb     34803723 <jpeg_calc_jpeg_dimensions+0x453>
    348036c1:	b8 09 00 00 00       	mov    $0x9,%eax
    348036c6:	89 c6                	mov    %eax,%esi
    348036c8:	48 8b 4d f0          	mov    -0x10(%rbp),%rcx
    348036cc:	8b 01                	mov    (%rcx),%eax
    348036ce:	89 c2                	mov    %eax,%edx
    348036d0:	8b 45 dc             	mov    -0x24(%rbp),%eax
    348036d3:	48 63 f8             	movslq %eax,%rdi
    348036d6:	48 0f af d7          	imul   %rdi,%rdx
    348036da:	48 89 d7             	mov    %rdx,%rdi
    348036dd:	e8 ae 60 00 00       	callq  34809790 <jdiv_round_up>
    348036e2:	41 b8 09 00 00 00    	mov    $0x9,%r8d
    348036e8:	44 89 c6             	mov    %r8d,%esi
    348036eb:	41 89 c0             	mov    %eax,%r8d
    348036ee:	48 8b 45 f8          	mov    -0x8(%rbp),%rax
    348036f2:	44 89 40 50          	mov    %r8d,0x50(%rax)
    348036f6:	44 8b 40 34          	mov    0x34(%rax),%r8d
    348036fa:	44 89 c1             	mov    %r8d,%ecx
    348036fd:	48 8b 55 e8          	mov    -0x18(%rbp),%rdx
    34803701:	48 63 3a             	movslq (%rdx),%rdi
    34803704:	48 0f af f9          	imul   %rcx,%rdi
    34803708:	e8 83 60 00 00       	callq  34809790 <jdiv_round_up>
    3480370d:	41 b8 09 00 00 00    	mov    $0x9,%r8d
    34803713:	41 89 c1             	mov    %eax,%r9d
    34803716:	44 89 4d d8          	mov    %r9d,-0x28(%rbp)
    3480371a:	44 89 45 d4          	mov    %r8d,-0x2c(%rbp)
    3480371e:	e9 fb 02 00 00       	jmpq   34803a1e <jpeg_calc_jpeg_dimensions+0x74e>
    34803723:	8b 45 e4             	mov    -0x1c(%rbp),%eax
    34803726:	6b c8 0a             	imul   $0xa,%eax,%ecx
    34803729:	8b 55 e0             	mov    -0x20(%rbp),%edx
    3480372c:	39 d1                	cmp    %edx,%ecx
    3480372e:	0f 82 62 00 00 00    	jb     34803796 <jpeg_calc_jpeg_dimensions+0x4c6>
    34803734:	b8 0a 00 00 00       	mov    $0xa,%eax
    34803739:	89 c6                	mov    %eax,%esi
    3480373b:	48 8b 4d f0          	mov    -0x10(%rbp),%rcx
    3480373f:	8b 01                	mov    (%rcx),%eax
    34803741:	89 c2                	mov    %eax,%edx
    34803743:	8b 45 dc             	mov    -0x24(%rbp),%eax
    34803746:	48 63 f8             	movslq %eax,%rdi
    34803749:	48 0f af d7          	imul   %rdi,%rdx
    3480374d:	48 89 d7             	mov    %rdx,%rdi
    34803750:	e8 3b 60 00 00       	callq  34809790 <jdiv_round_up>
    34803755:	41 b8 0a 00 00 00    	mov    $0xa,%r8d
    3480375b:	44 89 c6             	mov    %r8d,%esi
    3480375e:	41 89 c0             	mov    %eax,%r8d
    34803761:	48 8b 45 f8          	mov    -0x8(%rbp),%rax
    34803765:	44 89 40 50          	mov    %r8d,0x50(%rax)
    34803769:	44 8b 40 34          	mov    0x34(%rax),%r8d
    3480376d:	44 89 c1             	mov    %r8d,%ecx
    34803770:	48 8b 55 e8          	mov    -0x18(%rbp),%rdx
    34803774:	48 63 3a             	movslq (%rdx),%rdi
    34803777:	48 0f af f9          	imul   %rcx,%rdi
    3480377b:	e8 10 60 00 00       	callq  34809790 <jdiv_round_up>
    34803780:	41 b8 0a 00 00 00    	mov    $0xa,%r8d
    34803786:	41 89 c1             	mov    %eax,%r9d
    34803789:	44 89 4d d8          	mov    %r9d,-0x28(%rbp)
    3480378d:	44 89 45 d4          	mov    %r8d,-0x2c(%rbp)
    34803791:	e9 88 02 00 00       	jmpq   34803a1e <jpeg_calc_jpeg_dimensions+0x74e>
    34803796:	8b 45 e4             	mov    -0x1c(%rbp),%eax
    34803799:	6b c8 0b             	imul   $0xb,%eax,%ecx
    3480379c:	8b 55 e0             	mov    -0x20(%rbp),%edx
    3480379f:	39 d1                	cmp    %edx,%ecx
    348037a1:	0f 82 62 00 00 00    	jb     34803809 <jpeg_calc_jpeg_dimensions+0x539>
    348037a7:	b8 0b 00 00 00       	mov    $0xb,%eax
    348037ac:	89 c6                	mov    %eax,%esi
    348037ae:	48 8b 4d f0          	mov    -0x10(%rbp),%rcx
    348037b2:	8b 01                	mov    (%rcx),%eax
    348037b4:	89 c2                	mov    %eax,%edx
    348037b6:	8b 45 dc             	mov    -0x24(%rbp),%eax
    348037b9:	48 63 f8             	movslq %eax,%rdi
    348037bc:	48 0f af d7          	imul   %rdi,%rdx
    348037c0:	48 89 d7             	mov    %rdx,%rdi
    348037c3:	e8 c8 5f 00 00       	callq  34809790 <jdiv_round_up>
    348037c8:	41 b8 0b 00 00 00    	mov    $0xb,%r8d
    348037ce:	44 89 c6             	mov    %r8d,%esi
    348037d1:	41 89 c0             	mov    %eax,%r8d
    348037d4:	48 8b 45 f8          	mov    -0x8(%rbp),%rax
    348037d8:	44 89 40 50          	mov    %r8d,0x50(%rax)
    348037dc:	44 8b 40 34          	mov    0x34(%rax),%r8d
    348037e0:	44 89 c1             	mov    %r8d,%ecx
    348037e3:	48 8b 55 e8          	mov    -0x18(%rbp),%rdx
    348037e7:	48 63 3a             	movslq (%rdx),%rdi
    348037ea:	48 0f af f9          	imul   %rcx,%rdi
    348037ee:	e8 9d 5f 00 00       	callq  34809790 <jdiv_round_up>
    348037f3:	41 b8 0b 00 00 00    	mov    $0xb,%r8d
    348037f9:	41 89 c1             	mov    %eax,%r9d
    348037fc:	44 89 4d d8          	mov    %r9d,-0x28(%rbp)
    34803800:	44 89 45 d4          	mov    %r8d,-0x2c(%rbp)
    34803804:	e9 15 02 00 00       	jmpq   34803a1e <jpeg_calc_jpeg_dimensions+0x74e>
    34803809:	8b 45 e4             	mov    -0x1c(%rbp),%eax
    3480380c:	6b c8 0c             	imul   $0xc,%eax,%ecx
    3480380f:	8b 55 e0             	mov    -0x20(%rbp),%edx
    34803812:	39 d1                	cmp    %edx,%ecx
    34803814:	0f 82 62 00 00 00    	jb     3480387c <jpeg_calc_jpeg_dimensions+0x5ac>
    3480381a:	b8 0c 00 00 00       	mov    $0xc,%eax
    3480381f:	89 c6                	mov    %eax,%esi
    34803821:	48 8b 4d f0          	mov    -0x10(%rbp),%rcx
    34803825:	8b 01                	mov    (%rcx),%eax
    34803827:	89 c2                	mov    %eax,%edx
    34803829:	8b 45 dc             	mov    -0x24(%rbp),%eax
    3480382c:	48 63 f8             	movslq %eax,%rdi
    3480382f:	48 0f af d7          	imul   %rdi,%rdx
    34803833:	48 89 d7             	mov    %rdx,%rdi
    34803836:	e8 55 5f 00 00       	callq  34809790 <jdiv_round_up>
    3480383b:	41 b8 0c 00 00 00    	mov    $0xc,%r8d
    34803841:	44 89 c6             	mov    %r8d,%esi
    34803844:	41 89 c0             	mov    %eax,%r8d
    34803847:	48 8b 45 f8          	mov    -0x8(%rbp),%rax
    3480384b:	44 89 40 50          	mov    %r8d,0x50(%rax)
    3480384f:	44 8b 40 34          	mov    0x34(%rax),%r8d
    34803853:	44 89 c1             	mov    %r8d,%ecx
    34803856:	48 8b 55 e8          	mov    -0x18(%rbp),%rdx
    3480385a:	48 63 3a             	movslq (%rdx),%rdi
    3480385d:	48 0f af f9          	imul   %rcx,%rdi
    34803861:	e8 2a 5f 00 00       	callq  34809790 <jdiv_round_up>
    34803866:	41 b8 0c 00 00 00    	mov    $0xc,%r8d
    3480386c:	41 89 c1             	mov    %eax,%r9d
    3480386f:	44 89 4d d8          	mov    %r9d,-0x28(%rbp)
    34803873:	44 89 45 d4          	mov    %r8d,-0x2c(%rbp)
    34803877:	e9 a2 01 00 00       	jmpq   34803a1e <jpeg_calc_jpeg_dimensions+0x74e>
    3480387c:	8b 45 e4             	mov    -0x1c(%rbp),%eax
    3480387f:	6b c8 0d             	imul   $0xd,%eax,%ecx
    34803882:	8b 55 e0             	mov    -0x20(%rbp),%edx
    34803885:	39 d1                	cmp    %edx,%ecx
    34803887:	0f 82 62 00 00 00    	jb     348038ef <jpeg_calc_jpeg_dimensions+0x61f>
    3480388d:	b8 0d 00 00 00       	mov    $0xd,%eax
    34803892:	89 c6                	mov    %eax,%esi
    34803894:	48 8b 4d f0          	mov    -0x10(%rbp),%rcx
    34803898:	8b 01                	mov    (%rcx),%eax
    3480389a:	89 c2                	mov    %eax,%edx
    3480389c:	8b 45 dc             	mov    -0x24(%rbp),%eax
    3480389f:	48 63 f8             	movslq %eax,%rdi
    348038a2:	48 0f af d7          	imul   %rdi,%rdx
    348038a6:	48 89 d7             	mov    %rdx,%rdi
    348038a9:	e8 e2 5e 00 00       	callq  34809790 <jdiv_round_up>
    348038ae:	41 b8 0d 00 00 00    	mov    $0xd,%r8d
    348038b4:	44 89 c6             	mov    %r8d,%esi
    348038b7:	41 89 c0             	mov    %eax,%r8d
    348038ba:	48 8b 45 f8          	mov    -0x8(%rbp),%rax
    348038be:	44 89 40 50          	mov    %r8d,0x50(%rax)
    348038c2:	44 8b 40 34          	mov    0x34(%rax),%r8d
    348038c6:	44 89 c1             	mov    %r8d,%ecx
    348038c9:	48 8b 55 e8          	mov    -0x18(%rbp),%rdx
    348038cd:	48 63 3a             	movslq (%rdx),%rdi
    348038d0:	48 0f af f9          	imul   %rcx,%rdi
    348038d4:	e8 b7 5e 00 00       	callq  34809790 <jdiv_round_up>
    348038d9:	41 b8 0d 00 00 00    	mov    $0xd,%r8d
    348038df:	41 89 c1             	mov    %eax,%r9d
    348038e2:	44 89 4d d8          	mov    %r9d,-0x28(%rbp)
    348038e6:	44 89 45 d4          	mov    %r8d,-0x2c(%rbp)
    348038ea:	e9 2f 01 00 00       	jmpq   34803a1e <jpeg_calc_jpeg_dimensions+0x74e>
    348038ef:	8b 45 e4             	mov    -0x1c(%rbp),%eax
    348038f2:	6b c8 0e             	imul   $0xe,%eax,%ecx
    348038f5:	8b 55 e0             	mov    -0x20(%rbp),%edx
    348038f8:	39 d1                	cmp    %edx,%ecx
    348038fa:	0f 82 62 00 00 00    	jb     34803962 <jpeg_calc_jpeg_dimensions+0x692>
    34803900:	b8 0e 00 00 00       	mov    $0xe,%eax
    34803905:	89 c6                	mov    %eax,%esi
    34803907:	48 8b 4d f0          	mov    -0x10(%rbp),%rcx
    3480390b:	8b 01                	mov    (%rcx),%eax
    3480390d:	89 c2                	mov    %eax,%edx
    3480390f:	8b 45 dc             	mov    -0x24(%rbp),%eax
    34803912:	48 63 f8             	movslq %eax,%rdi
    34803915:	48 0f af d7          	imul   %rdi,%rdx
    34803919:	48 89 d7             	mov    %rdx,%rdi
    3480391c:	e8 6f 5e 00 00       	callq  34809790 <jdiv_round_up>
    34803921:	41 b8 0e 00 00 00    	mov    $0xe,%r8d
    34803927:	44 89 c6             	mov    %r8d,%esi
    3480392a:	41 89 c0             	mov    %eax,%r8d
    3480392d:	48 8b 45 f8          	mov    -0x8(%rbp),%rax
    34803931:	44 89 40 50          	mov    %r8d,0x50(%rax)
    34803935:	44 8b 40 34          	mov    0x34(%rax),%r8d
    34803939:	44 89 c1             	mov    %r8d,%ecx
    3480393c:	48 8b 55 e8          	mov    -0x18(%rbp),%rdx
    34803940:	48 63 3a             	movslq (%rdx),%rdi
    34803943:	48 0f af f9          	imul   %rcx,%rdi
    34803947:	e8 44 5e 00 00       	callq  34809790 <jdiv_round_up>
    3480394c:	41 b8 0e 00 00 00    	mov    $0xe,%r8d
    34803952:	41 89 c1             	mov    %eax,%r9d
    34803955:	44 89 4d d8          	mov    %r9d,-0x28(%rbp)
    34803959:	44 89 45 d4          	mov    %r8d,-0x2c(%rbp)
    3480395d:	e9 bc 00 00 00       	jmpq   34803a1e <jpeg_calc_jpeg_dimensions+0x74e>
    34803962:	8b 45 e4             	mov    -0x1c(%rbp),%eax
    34803965:	6b c8 0f             	imul   $0xf,%eax,%ecx
    34803968:	48 8b 55 f0          	mov    -0x10(%rbp),%rdx
    3480396c:	8b 32                	mov    (%rdx),%esi
    3480396e:	89 f7                	mov    %esi,%edi
    34803970:	8b 75 dc             	mov    -0x24(%rbp),%esi
    34803973:	4c 63 c6             	movslq %esi,%r8
    34803976:	49 0f af f8          	imul   %r8,%rdi
    3480397a:	44 8b 4d e0          	mov    -0x20(%rbp),%r9d
    3480397e:	44 39 c9             	cmp    %r9d,%ecx
    34803981:	48 89 7d c8          	mov    %rdi,-0x38(%rbp)
    34803985:	0f 82 4c 00 00 00    	jb     348039d7 <jpeg_calc_jpeg_dimensions+0x707>
    3480398b:	b8 0f 00 00 00       	mov    $0xf,%eax
    34803990:	89 c6                	mov    %eax,%esi
    34803992:	48 8b 7d c8          	mov    -0x38(%rbp),%rdi
    34803996:	e8 f5 5d 00 00       	callq  34809790 <jdiv_round_up>
    3480399b:	b9 0f 00 00 00       	mov    $0xf,%ecx
    348039a0:	89 ce                	mov    %ecx,%esi
    348039a2:	89 c1                	mov    %eax,%ecx
    348039a4:	48 8b 45 f8          	mov    -0x8(%rbp),%rax
    348039a8:	89 48 50             	mov    %ecx,0x50(%rax)
    348039ab:	8b 48 34             	mov    0x34(%rax),%ecx
    348039ae:	89 cf                	mov    %ecx,%edi
    348039b0:	48 8b 55 e8          	mov    -0x18(%rbp),%rdx
    348039b4:	4c 63 02             	movslq (%rdx),%r8
    348039b7:	4c 0f af c7          	imul   %rdi,%r8
    348039bb:	4c 89 c7             	mov    %r8,%rdi
    348039be:	e8 cd 5d 00 00       	callq  34809790 <jdiv_round_up>
    348039c3:	b9 0f 00 00 00       	mov    $0xf,%ecx
    348039c8:	41 89 c1             	mov    %eax,%r9d
    348039cb:	44 89 4d d8          	mov    %r9d,-0x28(%rbp)
    348039cf:	89 4d d4             	mov    %ecx,-0x2c(%rbp)
    348039d2:	e9 47 00 00 00       	jmpq   34803a1e <jpeg_calc_jpeg_dimensions+0x74e>
    348039d7:	b8 10 00 00 00       	mov    $0x10,%eax
    348039dc:	89 c6                	mov    %eax,%esi
    348039de:	48 8b 7d c8          	mov    -0x38(%rbp),%rdi
    348039e2:	e8 a9 5d 00 00       	callq  34809790 <jdiv_round_up>
    348039e7:	b9 10 00 00 00       	mov    $0x10,%ecx
    348039ec:	89 ce                	mov    %ecx,%esi
    348039ee:	89 c1                	mov    %eax,%ecx
    348039f0:	48 8b 45 f8          	mov    -0x8(%rbp),%rax
    348039f4:	89 48 50             	mov    %ecx,0x50(%rax)
    348039f7:	8b 48 34             	mov    0x34(%rax),%ecx
    348039fa:	89 cf                	mov    %ecx,%edi
    348039fc:	48 8b 55 e8          	mov    -0x18(%rbp),%rdx
    34803a00:	4c 63 02             	movslq (%rdx),%r8
    34803a03:	4c 0f af c7          	imul   %rdi,%r8
    34803a07:	4c 89 c7             	mov    %r8,%rdi
    34803a0a:	e8 81 5d 00 00       	callq  34809790 <jdiv_round_up>
    34803a0f:	b9 10 00 00 00       	mov    $0x10,%ecx
    34803a14:	41 89 c1             	mov    %eax,%r9d
    34803a17:	44 89 4d d8          	mov    %r9d,-0x28(%rbp)
    34803a1b:	89 4d d4             	mov    %ecx,-0x2c(%rbp)
    34803a1e:	8b 45 d4             	mov    -0x2c(%rbp),%eax
    34803a21:	8b 4d d4             	mov    -0x2c(%rbp),%ecx
    34803a24:	8b 55 d8             	mov    -0x28(%rbp),%edx
    34803a27:	48 8b 75 f8          	mov    -0x8(%rbp),%rsi
    34803a2b:	89 56 54             	mov    %edx,0x54(%rsi)
    34803a2e:	89 8e 68 01 00 00    	mov    %ecx,0x168(%rsi)
    34803a34:	89 86 6c 01 00 00    	mov    %eax,0x16c(%rsi)
    34803a3a:	48 83 c4 40          	add    $0x40,%rsp
    34803a3e:	5d                   	pop    %rbp
    34803a3f:	c3                   	retq   

0000000034803a40 <jinit_c_master_control>:
    34803a40:	55                   	push   %rbp
    34803a41:	48 89 e5             	mov    %rsp,%rbp
    34803a44:	48 83 ec 30          	sub    $0x30,%rsp
    34803a48:	b8 01 00 00 00       	mov    $0x1,%eax
    34803a4d:	b9 30 00 00 00       	mov    $0x30,%ecx
    34803a52:	89 ca                	mov    %ecx,%edx
    34803a54:	4c 8b 47 08          	mov    0x8(%rdi),%r8
    34803a58:	4d 8b 00             	mov    (%r8),%r8
    34803a5b:	49 89 f9             	mov    %rdi,%r9
    34803a5e:	48 89 7d f8          	mov    %rdi,-0x8(%rbp)
    34803a62:	4c 89 cf             	mov    %r9,%rdi
    34803a65:	89 75 f4             	mov    %esi,-0xc(%rbp)
    34803a68:	89 c6                	mov    %eax,%esi
    34803a6a:	41 ff d0             	callq  *%r8
    34803a6d:	48 ba 20 3f 80 34 00 	movabs $0x34803f20,%rdx
    34803a74:	00 00 00 
    34803a77:	48 bf d0 3e 80 34 00 	movabs $0x34803ed0,%rdi
    34803a7e:	00 00 00 
    34803a81:	49 b8 f0 3b 80 34 00 	movabs $0x34803bf0,%r8
    34803a88:	00 00 00 
    34803a8b:	4c 8b 4d f8          	mov    -0x8(%rbp),%r9
    34803a8f:	49 89 81 f0 01 00 00 	mov    %rax,0x1f0(%r9)
    34803a96:	4c 89 00             	mov    %r8,(%rax)
    34803a99:	48 89 78 08          	mov    %rdi,0x8(%rax)
    34803a9d:	48 89 50 10          	mov    %rdx,0x10(%rax)
    34803aa1:	c7 40 1c 00 00 00 00 	movl   $0x0,0x1c(%rax)
    34803aa8:	4c 89 cf             	mov    %r9,%rdi
    34803aab:	8b 75 f4             	mov    -0xc(%rbp),%esi
    34803aae:	48 89 45 e8          	mov    %rax,-0x18(%rbp)
    34803ab2:	e8 59 05 00 00       	callq  34804010 <initial_setup>
    34803ab7:	48 8b 45 f8          	mov    -0x8(%rbp),%rax
    34803abb:	48 83 b8 18 01 00 00 	cmpq   $0x0,0x118(%rax)
    34803ac2:	00 
    34803ac3:	0f 84 28 00 00 00    	je     34803af1 <jinit_c_master_control+0xb1>
    34803ac9:	48 8b 7d f8          	mov    -0x8(%rbp),%rdi
    34803acd:	e8 fe 0c 00 00       	callq  348047d0 <validate_script>
    34803ad2:	48 8b 7d f8          	mov    -0x8(%rbp),%rdi
    34803ad6:	83 bf dc 01 00 00 08 	cmpl   $0x8,0x1dc(%rdi)
    34803add:	0f 8d 26 00 00 00    	jge    34803b09 <jinit_c_master_control+0xc9>
    34803ae3:	48 8b 7d f8          	mov    -0x8(%rbp),%rdi
    34803ae7:	e8 94 16 00 00       	callq  34805180 <reduce_script>
    34803aec:	e9 18 00 00 00       	jmpq   34803b09 <jinit_c_master_control+0xc9>
    34803af1:	48 8b 45 f8          	mov    -0x8(%rbp),%rax
    34803af5:	c7 80 5c 01 00 00 00 	movl   $0x0,0x15c(%rax)
    34803afc:	00 00 00 
    34803aff:	c7 80 10 01 00 00 01 	movl   $0x1,0x110(%rax)
    34803b06:	00 00 00 
    34803b09:	48 8b 45 f8          	mov    -0x8(%rbp),%rax
    34803b0d:	48 05 28 01 00 00    	add    $0x128,%rax
    34803b13:	48 8b 4d f8          	mov    -0x8(%rbp),%rcx
    34803b17:	8b 91 28 01 00 00    	mov    0x128(%rcx),%edx
    34803b1d:	48 81 c1 24 01 00 00 	add    $0x124,%rcx
    34803b24:	83 fa 00             	cmp    $0x0,%edx
    34803b27:	48 89 45 e0          	mov    %rax,-0x20(%rbp)
    34803b2b:	48 89 4d d8          	mov    %rcx,-0x28(%rbp)
    34803b2f:	0f 84 0f 00 00 00    	je     34803b44 <jinit_c_master_control+0x104>
    34803b35:	48 8b 45 d8          	mov    -0x28(%rbp),%rax
    34803b39:	c7 00 00 00 00 00    	movl   $0x0,(%rax)
    34803b3f:	e9 3e 00 00 00       	jmpq   34803b82 <jinit_c_master_control+0x142>
    34803b44:	48 8b 45 d8          	mov    -0x28(%rbp),%rax
    34803b48:	83 38 00             	cmpl   $0x0,(%rax)
    34803b4b:	0f 85 31 00 00 00    	jne    34803b82 <jinit_c_master_control+0x142>
    34803b51:	48 8b 45 f8          	mov    -0x8(%rbp),%rax
    34803b55:	83 b8 5c 01 00 00 00 	cmpl   $0x0,0x15c(%rax)
    34803b5c:	0f 85 16 00 00 00    	jne    34803b78 <jinit_c_master_control+0x138>
    34803b62:	48 8b 45 f8          	mov    -0x8(%rbp),%rax
    34803b66:	8b 88 dc 01 00 00    	mov    0x1dc(%rax),%ecx
    34803b6c:	83 c1 fe             	add    $0xfffffffe,%ecx
    34803b6f:	83 f9 06             	cmp    $0x6,%ecx
    34803b72:	0f 83 0a 00 00 00    	jae    34803b82 <jinit_c_master_control+0x142>
    34803b78:	48 8b 45 e0          	mov    -0x20(%rbp),%rax
    34803b7c:	c7 00 01 00 00 00    	movl   $0x1,(%rax)
    34803b82:	8b 45 f4             	mov    -0xc(%rbp),%eax
    34803b85:	83 f8 00             	cmp    $0x0,%eax
    34803b88:	0f 84 20 00 00 00    	je     34803bae <jinit_c_master_control+0x16e>
    34803b8e:	b8 02 00 00 00       	mov    $0x2,%eax
    34803b93:	b9 01 00 00 00       	mov    $0x1,%ecx
    34803b98:	48 8b 55 e0          	mov    -0x20(%rbp),%rdx
    34803b9c:	83 3a 00             	cmpl   $0x0,(%rdx)
    34803b9f:	0f 45 c1             	cmovne %ecx,%eax
    34803ba2:	48 8b 75 e8          	mov    -0x18(%rbp),%rsi
    34803ba6:	89 46 20             	mov    %eax,0x20(%rsi)
    34803ba9:	e9 0b 00 00 00       	jmpq   34803bb9 <jinit_c_master_control+0x179>
    34803bae:	48 8b 45 e8          	mov    -0x18(%rbp),%rax
    34803bb2:	c7 40 20 00 00 00 00 	movl   $0x0,0x20(%rax)
    34803bb9:	48 8b 45 e8          	mov    -0x18(%rbp),%rax
    34803bbd:	c7 40 2c 00 00 00 00 	movl   $0x0,0x2c(%rax)
    34803bc4:	c7 40 24 00 00 00 00 	movl   $0x0,0x24(%rax)
    34803bcb:	48 8b 4d e0          	mov    -0x20(%rbp),%rcx
    34803bcf:	83 39 00             	cmpl   $0x0,(%rcx)
    34803bd2:	0f 95 c2             	setne  %dl
    34803bd5:	48 8b 75 f8          	mov    -0x8(%rbp),%rsi
    34803bd9:	8b be 10 01 00 00    	mov    0x110(%rsi),%edi
    34803bdf:	80 e2 01             	and    $0x1,%dl
    34803be2:	0f b6 ca             	movzbl %dl,%ecx
    34803be5:	d3 e7                	shl    %cl,%edi
    34803be7:	89 78 28             	mov    %edi,0x28(%rax)
    34803bea:	48 83 c4 30          	add    $0x30,%rsp
    34803bee:	5d                   	pop    %rbp
    34803bef:	c3                   	retq   

0000000034803bf0 <prepare_for_pass>:
    34803bf0:	55                   	push   %rbp
    34803bf1:	48 89 e5             	mov    %rsp,%rbp
    34803bf4:	48 83 ec 50          	sub    $0x50,%rsp
    34803bf8:	48 8b 87 f0 01 00 00 	mov    0x1f0(%rdi),%rax
    34803bff:	48 89 c1             	mov    %rax,%rcx
    34803c02:	48 83 c1 20          	add    $0x20,%rcx
    34803c06:	8b 50 20             	mov    0x20(%rax),%edx
    34803c09:	85 d2                	test   %edx,%edx
    34803c0b:	48 89 7d f8          	mov    %rdi,-0x8(%rbp)
    34803c0f:	48 89 45 f0          	mov    %rax,-0x10(%rbp)
    34803c13:	48 89 4d e8          	mov    %rcx,-0x18(%rbp)
    34803c17:	89 55 e4             	mov    %edx,-0x1c(%rbp)
    34803c1a:	0f 84 2d 00 00 00    	je     34803c4d <prepare_for_pass+0x5d>
    34803c20:	e9 00 00 00 00       	jmpq   34803c25 <prepare_for_pass+0x35>
    34803c25:	8b 45 e4             	mov    -0x1c(%rbp),%eax
    34803c28:	83 e8 01             	sub    $0x1,%eax
    34803c2b:	89 45 e0             	mov    %eax,-0x20(%rbp)
    34803c2e:	0f 84 f1 00 00 00    	je     34803d25 <prepare_for_pass+0x135>
    34803c34:	e9 00 00 00 00       	jmpq   34803c39 <prepare_for_pass+0x49>
    34803c39:	8b 45 e4             	mov    -0x1c(%rbp),%eax
    34803c3c:	83 e8 02             	sub    $0x2,%eax
    34803c3f:	89 45 dc             	mov    %eax,-0x24(%rbp)
    34803c42:	0f 84 62 01 00 00    	je     34803daa <prepare_for_pass+0x1ba>
    34803c48:	e9 e7 01 00 00       	jmpq   34803e34 <prepare_for_pass+0x244>
    34803c4d:	48 8b 7d f8          	mov    -0x8(%rbp),%rdi
    34803c51:	e8 4a 16 00 00       	callq  348052a0 <select_scan_parameters>
    34803c56:	48 8b 7d f8          	mov    -0x8(%rbp),%rdi
    34803c5a:	e8 61 18 00 00       	callq  348054c0 <per_scan_setup>
    34803c5f:	48 8b 7d f8          	mov    -0x8(%rbp),%rdi
    34803c63:	83 bf 20 01 00 00 00 	cmpl   $0x0,0x120(%rdi)
    34803c6a:	0f 85 32 00 00 00    	jne    34803ca2 <prepare_for_pass+0xb2>
    34803c70:	48 8b 45 f8          	mov    -0x8(%rbp),%rax
    34803c74:	48 8b 88 18 02 00 00 	mov    0x218(%rax),%rcx
    34803c7b:	48 89 c7             	mov    %rax,%rdi
    34803c7e:	ff 11                	callq  *(%rcx)
    34803c80:	48 8b 45 f8          	mov    -0x8(%rbp),%rax
    34803c84:	48 8b 88 20 02 00 00 	mov    0x220(%rax),%rcx
    34803c8b:	48 89 c7             	mov    %rax,%rdi
    34803c8e:	ff 11                	callq  *(%rcx)
    34803c90:	31 f6                	xor    %esi,%esi
    34803c92:	48 8b 45 f8          	mov    -0x8(%rbp),%rax
    34803c96:	48 8b 88 00 02 00 00 	mov    0x200(%rax),%rcx
    34803c9d:	48 89 c7             	mov    %rax,%rdi
    34803ca0:	ff 11                	callq  *(%rcx)
    34803ca2:	48 8b 45 f8          	mov    -0x8(%rbp),%rax
    34803ca6:	48 8b 88 28 02 00 00 	mov    0x228(%rax),%rcx
    34803cad:	48 89 c7             	mov    %rax,%rdi
    34803cb0:	ff 11                	callq  *(%rcx)
    34803cb2:	48 8b 45 f8          	mov    -0x8(%rbp),%rax
    34803cb6:	48 8b 88 30 02 00 00 	mov    0x230(%rax),%rcx
    34803cbd:	48 8b 09             	mov    (%rcx),%rcx
    34803cc0:	8b b0 28 01 00 00    	mov    0x128(%rax),%esi
    34803cc6:	48 89 c7             	mov    %rax,%rdi
    34803cc9:	ff d1                	callq  *%rcx
    34803ccb:	31 f6                	xor    %esi,%esi
    34803ccd:	ba 03 00 00 00       	mov    $0x3,%edx
    34803cd2:	48 8b 45 f8          	mov    -0x8(%rbp),%rax
    34803cd6:	48 8b 88 08 02 00 00 	mov    0x208(%rax),%rcx
    34803cdd:	48 8b 09             	mov    (%rcx),%rcx
    34803ce0:	48 8b 7d f0          	mov    -0x10(%rbp),%rdi
    34803ce4:	83 7f 28 01          	cmpl   $0x1,0x28(%rdi)
    34803ce8:	0f 4f f2             	cmovg  %edx,%esi
    34803ceb:	48 89 c7             	mov    %rax,%rdi
    34803cee:	ff d1                	callq  *%rcx
    34803cf0:	31 f6                	xor    %esi,%esi
    34803cf2:	48 8b 45 f8          	mov    -0x8(%rbp),%rax
    34803cf6:	48 8b 88 f8 01 00 00 	mov    0x1f8(%rax),%rcx
    34803cfd:	48 89 c7             	mov    %rax,%rdi
    34803d00:	ff 11                	callq  *(%rcx)
    34803d02:	48 8b 45 f8          	mov    -0x8(%rbp),%rax
    34803d06:	83 b8 28 01 00 00 00 	cmpl   $0x0,0x128(%rax)
    34803d0d:	41 0f 94 c0          	sete   %r8b
    34803d11:	41 80 e0 01          	and    $0x1,%r8b
    34803d15:	41 0f b6 d0          	movzbl %r8b,%edx
    34803d19:	48 8b 4d f0          	mov    -0x10(%rbp),%rcx
    34803d1d:	89 51 18             	mov    %edx,0x18(%rcx)
    34803d20:	e9 28 01 00 00       	jmpq   34803e4d <prepare_for_pass+0x25d>
    34803d25:	48 8b 7d f8          	mov    -0x8(%rbp),%rdi
    34803d29:	e8 72 15 00 00       	callq  348052a0 <select_scan_parameters>
    34803d2e:	48 8b 7d f8          	mov    -0x8(%rbp),%rdi
    34803d32:	e8 89 17 00 00       	callq  348054c0 <per_scan_setup>
    34803d37:	48 8b 7d f8          	mov    -0x8(%rbp),%rdi
    34803d3b:	83 bf cc 01 00 00 00 	cmpl   $0x0,0x1cc(%rdi)
    34803d42:	0f 85 11 00 00 00    	jne    34803d59 <prepare_for_pass+0x169>
    34803d48:	48 8b 45 f8          	mov    -0x8(%rbp),%rax
    34803d4c:	83 b8 d4 01 00 00 00 	cmpl   $0x0,0x1d4(%rax)
    34803d53:	0f 85 3a 00 00 00    	jne    34803d93 <prepare_for_pass+0x1a3>
    34803d59:	be 01 00 00 00       	mov    $0x1,%esi
    34803d5e:	48 8b 45 f8          	mov    -0x8(%rbp),%rax
    34803d62:	48 8b 88 30 02 00 00 	mov    0x230(%rax),%rcx
    34803d69:	48 89 c7             	mov    %rax,%rdi
    34803d6c:	ff 11                	callq  *(%rcx)
    34803d6e:	be 02 00 00 00       	mov    $0x2,%esi
    34803d73:	48 8b 45 f8          	mov    -0x8(%rbp),%rax
    34803d77:	48 8b 88 08 02 00 00 	mov    0x208(%rax),%rcx
    34803d7e:	48 89 c7             	mov    %rax,%rdi
    34803d81:	ff 11                	callq  *(%rcx)
    34803d83:	48 8b 45 f0          	mov    -0x10(%rbp),%rax
    34803d87:	c7 40 18 00 00 00 00 	movl   $0x0,0x18(%rax)
    34803d8e:	e9 ba 00 00 00       	jmpq   34803e4d <prepare_for_pass+0x25d>
    34803d93:	48 8b 45 e8          	mov    -0x18(%rbp),%rax
    34803d97:	c7 00 02 00 00 00    	movl   $0x2,(%rax)
    34803d9d:	48 8b 4d f0          	mov    -0x10(%rbp),%rcx
    34803da1:	8b 51 24             	mov    0x24(%rcx),%edx
    34803da4:	83 c2 01             	add    $0x1,%edx
    34803da7:	89 51 24             	mov    %edx,0x24(%rcx)
    34803daa:	48 8b 45 f8          	mov    -0x8(%rbp),%rax
    34803dae:	83 b8 28 01 00 00 00 	cmpl   $0x0,0x128(%rax)
    34803db5:	0f 85 12 00 00 00    	jne    34803dcd <prepare_for_pass+0x1dd>
    34803dbb:	48 8b 7d f8          	mov    -0x8(%rbp),%rdi
    34803dbf:	e8 dc 14 00 00       	callq  348052a0 <select_scan_parameters>
    34803dc4:	48 8b 7d f8          	mov    -0x8(%rbp),%rdi
    34803dc8:	e8 f3 16 00 00       	callq  348054c0 <per_scan_setup>
    34803dcd:	31 f6                	xor    %esi,%esi
    34803dcf:	48 8b 45 f8          	mov    -0x8(%rbp),%rax
    34803dd3:	48 8b 88 30 02 00 00 	mov    0x230(%rax),%rcx
    34803dda:	48 89 c7             	mov    %rax,%rdi
    34803ddd:	ff 11                	callq  *(%rcx)
    34803ddf:	be 02 00 00 00       	mov    $0x2,%esi
    34803de4:	48 8b 45 f8          	mov    -0x8(%rbp),%rax
    34803de8:	48 8b 88 08 02 00 00 	mov    0x208(%rax),%rcx
    34803def:	48 89 c7             	mov    %rax,%rdi
    34803df2:	ff 11                	callq  *(%rcx)
    34803df4:	48 8b 45 f0          	mov    -0x10(%rbp),%rax
    34803df8:	83 78 2c 00          	cmpl   $0x0,0x2c(%rax)
    34803dfc:	0f 85 11 00 00 00    	jne    34803e13 <prepare_for_pass+0x223>
    34803e02:	48 8b 45 f8          	mov    -0x8(%rbp),%rax
    34803e06:	48 8b 88 10 02 00 00 	mov    0x210(%rax),%rcx
    34803e0d:	48 89 c7             	mov    %rax,%rdi
    34803e10:	ff 51 08             	callq  *0x8(%rcx)
    34803e13:	48 8b 45 f8          	mov    -0x8(%rbp),%rax
    34803e17:	48 8b 88 10 02 00 00 	mov    0x210(%rax),%rcx
    34803e1e:	48 89 c7             	mov    %rax,%rdi
    34803e21:	ff 51 10             	callq  *0x10(%rcx)
    34803e24:	48 8b 45 f0          	mov    -0x10(%rbp),%rax
    34803e28:	c7 40 18 00 00 00 00 	movl   $0x0,0x18(%rax)
    34803e2f:	e9 19 00 00 00       	jmpq   34803e4d <prepare_for_pass+0x25d>
    34803e34:	48 8b 45 f8          	mov    -0x8(%rbp),%rax
    34803e38:	48 8b 08             	mov    (%rax),%rcx
    34803e3b:	c7 41 28 31 00 00 00 	movl   $0x31,0x28(%rcx)
    34803e42:	48 8b 08             	mov    (%rax),%rcx
    34803e45:	48 8b 09             	mov    (%rcx),%rcx
    34803e48:	48 89 c7             	mov    %rax,%rdi
    34803e4b:	ff d1                	callq  *%rcx
    34803e4d:	48 8b 45 f0          	mov    -0x10(%rbp),%rax
    34803e51:	48 83 c0 24          	add    $0x24,%rax
    34803e55:	48 8b 4d f0          	mov    -0x10(%rbp),%rcx
    34803e59:	8b 51 24             	mov    0x24(%rcx),%edx
    34803e5c:	48 83 c1 28          	add    $0x28,%rcx
    34803e60:	48 8b 75 f0          	mov    -0x10(%rbp),%rsi
    34803e64:	8b 7e 28             	mov    0x28(%rsi),%edi
    34803e67:	83 c7 ff             	add    $0xffffffff,%edi
    34803e6a:	39 fa                	cmp    %edi,%edx
    34803e6c:	41 0f 94 c0          	sete   %r8b
    34803e70:	41 80 e0 01          	and    $0x1,%r8b
    34803e74:	41 0f b6 d0          	movzbl %r8b,%edx
    34803e78:	89 56 1c             	mov    %edx,0x1c(%rsi)
    34803e7b:	4c 8b 4d f8          	mov    -0x8(%rbp),%r9
    34803e7f:	49 83 c1 10          	add    $0x10,%r9
    34803e83:	4c 8b 55 f8          	mov    -0x8(%rbp),%r10
    34803e87:	4d 8b 5a 10          	mov    0x10(%r10),%r11
    34803e8b:	49 83 fb 00          	cmp    $0x0,%r11
    34803e8f:	48 89 45 d0          	mov    %rax,-0x30(%rbp)
    34803e93:	48 89 4d c8          	mov    %rcx,-0x38(%rbp)
    34803e97:	4c 89 4d c0          	mov    %r9,-0x40(%rbp)
    34803e9b:	4c 89 5d b8          	mov    %r11,-0x48(%rbp)
    34803e9f:	0f 84 1e 00 00 00    	je     34803ec3 <prepare_for_pass+0x2d3>
    34803ea5:	48 8b 45 d0          	mov    -0x30(%rbp),%rax
    34803ea9:	8b 08                	mov    (%rax),%ecx
    34803eab:	48 8b 55 b8          	mov    -0x48(%rbp),%rdx
    34803eaf:	89 4a 18             	mov    %ecx,0x18(%rdx)
    34803eb2:	48 8b 75 c8          	mov    -0x38(%rbp),%rsi
    34803eb6:	8b 0e                	mov    (%rsi),%ecx
    34803eb8:	48 8b 7d c0          	mov    -0x40(%rbp),%rdi
    34803ebc:	4c 8b 07             	mov    (%rdi),%r8
    34803ebf:	41 89 48 1c          	mov    %ecx,0x1c(%r8)
    34803ec3:	48 83 c4 50          	add    $0x50,%rsp
    34803ec7:	5d                   	pop    %rbp
    34803ec8:	c3                   	retq   
    34803ec9:	0f 1f 80 00 00 00 00 	nopl   0x0(%rax)

0000000034803ed0 <pass_startup>:
    34803ed0:	55                   	push   %rbp
    34803ed1:	48 89 e5             	mov    %rsp,%rbp
    34803ed4:	48 83 ec 10          	sub    $0x10,%rsp
    34803ed8:	48 8b 87 f0 01 00 00 	mov    0x1f0(%rdi),%rax
    34803edf:	c7 40 18 00 00 00 00 	movl   $0x0,0x18(%rax)
    34803ee6:	48 8b 87 10 02 00 00 	mov    0x210(%rdi),%rax
    34803eed:	48 89 7d f8          	mov    %rdi,-0x8(%rbp)
    34803ef1:	ff 50 08             	callq  *0x8(%rax)
    34803ef4:	48 8b 45 f8          	mov    -0x8(%rbp),%rax
    34803ef8:	48 8b b8 10 02 00 00 	mov    0x210(%rax),%rdi
    34803eff:	48 89 7d f0          	mov    %rdi,-0x10(%rbp)
    34803f03:	48 89 c7             	mov    %rax,%rdi
    34803f06:	48 8b 4d f0          	mov    -0x10(%rbp),%rcx
    34803f0a:	ff 51 10             	callq  *0x10(%rcx)
    34803f0d:	48 83 c4 10          	add    $0x10,%rsp
    34803f11:	5d                   	pop    %rbp
    34803f12:	c3                   	retq   
    34803f13:	66 66 66 66 2e 0f 1f 	data32 data32 data32 nopw %cs:0x0(%rax,%rax,1)
    34803f1a:	84 00 00 00 00 00 

0000000034803f20 <finish_pass_master>:
    34803f20:	55                   	push   %rbp
    34803f21:	48 89 e5             	mov    %rsp,%rbp
    34803f24:	48 83 ec 30          	sub    $0x30,%rsp
    34803f28:	48 8b 87 f0 01 00 00 	mov    0x1f0(%rdi),%rax
    34803f2f:	48 8b 8f 30 02 00 00 	mov    0x230(%rdi),%rcx
    34803f36:	48 8b 49 10          	mov    0x10(%rcx),%rcx
    34803f3a:	48 89 7d f8          	mov    %rdi,-0x8(%rbp)
    34803f3e:	48 89 45 f0          	mov    %rax,-0x10(%rbp)
    34803f42:	ff d1                	callq  *%rcx
    34803f44:	48 8b 45 f0          	mov    -0x10(%rbp),%rax
    34803f48:	48 83 c0 20          	add    $0x20,%rax
    34803f4c:	48 8b 4d f0          	mov    -0x10(%rbp),%rcx
    34803f50:	8b 51 20             	mov    0x20(%rcx),%edx
    34803f53:	85 d2                	test   %edx,%edx
    34803f55:	48 89 45 e8          	mov    %rax,-0x18(%rbp)
    34803f59:	89 55 e4             	mov    %edx,-0x1c(%rbp)
    34803f5c:	0f 84 2d 00 00 00    	je     34803f8f <finish_pass_master+0x6f>
    34803f62:	e9 00 00 00 00       	jmpq   34803f67 <finish_pass_master+0x47>
    34803f67:	8b 45 e4             	mov    -0x1c(%rbp),%eax
    34803f6a:	83 e8 01             	sub    $0x1,%eax
    34803f6d:	89 45 e0             	mov    %eax,-0x20(%rbp)
    34803f70:	0f 84 46 00 00 00    	je     34803fbc <finish_pass_master+0x9c>
    34803f76:	e9 00 00 00 00       	jmpq   34803f7b <finish_pass_master+0x5b>
    34803f7b:	8b 45 e4             	mov    -0x1c(%rbp),%eax
    34803f7e:	83 e8 02             	sub    $0x2,%eax
    34803f81:	89 45 dc             	mov    %eax,-0x24(%rbp)
    34803f84:	0f 84 41 00 00 00    	je     34803fcb <finish_pass_master+0xab>
    34803f8a:	e9 64 00 00 00       	jmpq   34803ff3 <finish_pass_master+0xd3>
    34803f8f:	48 8b 45 e8          	mov    -0x18(%rbp),%rax
    34803f93:	c7 00 02 00 00 00    	movl   $0x2,(%rax)
    34803f99:	48 8b 4d f8          	mov    -0x8(%rbp),%rcx
    34803f9d:	83 b9 28 01 00 00 00 	cmpl   $0x0,0x128(%rcx)
    34803fa4:	0f 85 49 00 00 00    	jne    34803ff3 <finish_pass_master+0xd3>
    34803faa:	48 8b 45 f0          	mov    -0x10(%rbp),%rax
    34803fae:	8b 48 2c             	mov    0x2c(%rax),%ecx
    34803fb1:	83 c1 01             	add    $0x1,%ecx
    34803fb4:	89 48 2c             	mov    %ecx,0x2c(%rax)
    34803fb7:	e9 37 00 00 00       	jmpq   34803ff3 <finish_pass_master+0xd3>
    34803fbc:	48 8b 45 e8          	mov    -0x18(%rbp),%rax
    34803fc0:	c7 00 02 00 00 00    	movl   $0x2,(%rax)
    34803fc6:	e9 28 00 00 00       	jmpq   34803ff3 <finish_pass_master+0xd3>
    34803fcb:	48 8b 45 f8          	mov    -0x8(%rbp),%rax
    34803fcf:	83 b8 28 01 00 00 00 	cmpl   $0x0,0x128(%rax)
    34803fd6:	0f 84 0a 00 00 00    	je     34803fe6 <finish_pass_master+0xc6>
    34803fdc:	48 8b 45 e8          	mov    -0x18(%rbp),%rax
    34803fe0:	c7 00 01 00 00 00    	movl   $0x1,(%rax)
    34803fe6:	48 8b 45 f0          	mov    -0x10(%rbp),%rax
    34803fea:	8b 48 2c             	mov    0x2c(%rax),%ecx
    34803fed:	83 c1 01             	add    $0x1,%ecx
    34803ff0:	89 48 2c             	mov    %ecx,0x2c(%rax)
    34803ff3:	48 8b 45 f0          	mov    -0x10(%rbp),%rax
    34803ff7:	8b 48 24             	mov    0x24(%rax),%ecx
    34803ffa:	83 c1 01             	add    $0x1,%ecx
    34803ffd:	89 48 24             	mov    %ecx,0x24(%rax)
    34804000:	48 83 c4 30          	add    $0x30,%rsp
    34804004:	5d                   	pop    %rbp
    34804005:	c3                   	retq   
    34804006:	66 2e 0f 1f 84 00 00 	nopw   %cs:0x0(%rax,%rax,1)
    3480400d:	00 00 00 

0000000034804010 <initial_setup>:
    34804010:	55                   	push   %rbp
    34804011:	48 89 e5             	mov    %rsp,%rbp
    34804014:	48 81 ec 30 01 00 00 	sub    $0x130,%rsp
    3480401b:	83 fe 00             	cmp    $0x0,%esi
    3480401e:	48 89 7d f8          	mov    %rdi,-0x8(%rbp)
    34804022:	0f 84 0e 00 00 00    	je     34804036 <initial_setup+0x26>
    34804028:	48 8b 7d f8          	mov    -0x8(%rbp),%rdi
    3480402c:	e8 1f 17 00 00       	callq  34805750 <jpeg_calc_trans_dimensions>
    34804031:	e9 09 00 00 00       	jmpq   3480403f <initial_setup+0x2f>
    34804036:	48 8b 7d f8          	mov    -0x8(%rbp),%rdi
    3480403a:	e8 91 f2 ff ff       	callq  348032d0 <jpeg_calc_jpeg_dimensions>
    3480403f:	48 8b 45 f8          	mov    -0x8(%rbp),%rax
    34804043:	48 05 dc 01 00 00    	add    $0x1dc,%rax
    34804049:	48 8b 4d f8          	mov    -0x8(%rbp),%rcx
    3480404d:	8b 91 dc 01 00 00    	mov    0x1dc(%rcx),%edx
    34804053:	83 c2 ff             	add    $0xffffffff,%edx
    34804056:	83 fa 0f             	cmp    $0xf,%edx
    34804059:	48 89 45 f0          	mov    %rax,-0x10(%rbp)
    3480405d:	0f 86 2d 00 00 00    	jbe    34804090 <initial_setup+0x80>
    34804063:	48 8b 45 f8          	mov    -0x8(%rbp),%rax
    34804067:	48 8b 08             	mov    (%rax),%rcx
    3480406a:	c7 41 28 07 00 00 00 	movl   $0x7,0x28(%rcx)
    34804071:	48 8b 4d f0          	mov    -0x10(%rbp),%rcx
    34804075:	8b 11                	mov    (%rcx),%edx
    34804077:	48 8b 30             	mov    (%rax),%rsi
    3480407a:	89 56 2c             	mov    %edx,0x2c(%rsi)
    3480407d:	8b 11                	mov    (%rcx),%edx
    3480407f:	48 8b 30             	mov    (%rax),%rsi
    34804082:	89 56 30             	mov    %edx,0x30(%rsi)
    34804085:	48 8b 30             	mov    (%rax),%rsi
    34804088:	48 8b 36             	mov    (%rsi),%rsi
    3480408b:	48 89 c7             	mov    %rax,%rdi
    3480408e:	ff d6                	callq  *%rsi
    34804090:	b8 b0 f8 82 34       	mov    $0x3482f8b0,%eax
    34804095:	89 c1                	mov    %eax,%ecx
    34804097:	48 8b 55 f0          	mov    -0x10(%rbp),%rdx
    3480409b:	8b 02                	mov    (%rdx),%eax
    3480409d:	89 c6                	mov    %eax,%esi
    3480409f:	83 ee 02             	sub    $0x2,%esi
    348040a2:	89 75 ec             	mov    %esi,-0x14(%rbp)
    348040a5:	89 45 e8             	mov    %eax,-0x18(%rbp)
    348040a8:	48 89 4d e0          	mov    %rcx,-0x20(%rbp)
    348040ac:	0f 84 db 00 00 00    	je     3480418d <initial_setup+0x17d>
    348040b2:	e9 00 00 00 00       	jmpq   348040b7 <initial_setup+0xa7>
    348040b7:	8b 45 e8             	mov    -0x18(%rbp),%eax
    348040ba:	83 e8 03             	sub    $0x3,%eax
    348040bd:	89 45 dc             	mov    %eax,-0x24(%rbp)
    348040c0:	0f 84 55 00 00 00    	je     3480411b <initial_setup+0x10b>
    348040c6:	e9 00 00 00 00       	jmpq   348040cb <initial_setup+0xbb>
    348040cb:	8b 45 e8             	mov    -0x18(%rbp),%eax
    348040ce:	83 e8 04             	sub    $0x4,%eax
    348040d1:	89 45 d8             	mov    %eax,-0x28(%rbp)
    348040d4:	0f 84 54 00 00 00    	je     3480412e <initial_setup+0x11e>
    348040da:	e9 00 00 00 00       	jmpq   348040df <initial_setup+0xcf>
    348040df:	8b 45 e8             	mov    -0x18(%rbp),%eax
    348040e2:	83 e8 05             	sub    $0x5,%eax
    348040e5:	89 45 d4             	mov    %eax,-0x2c(%rbp)
    348040e8:	0f 84 53 00 00 00    	je     34804141 <initial_setup+0x131>
    348040ee:	e9 00 00 00 00       	jmpq   348040f3 <initial_setup+0xe3>
    348040f3:	8b 45 e8             	mov    -0x18(%rbp),%eax
    348040f6:	83 e8 06             	sub    $0x6,%eax
    348040f9:	89 45 d0             	mov    %eax,-0x30(%rbp)
    348040fc:	0f 84 52 00 00 00    	je     34804154 <initial_setup+0x144>
    34804102:	e9 00 00 00 00       	jmpq   34804107 <initial_setup+0xf7>
    34804107:	8b 45 e8             	mov    -0x18(%rbp),%eax
    3480410a:	83 e8 07             	sub    $0x7,%eax
    3480410d:	89 45 cc             	mov    %eax,-0x34(%rbp)
    34804110:	0f 84 51 00 00 00    	je     34804167 <initial_setup+0x157>
    34804116:	e9 5f 00 00 00       	jmpq   3480417a <initial_setup+0x16a>
    3480411b:	48 b8 40 f8 82 34 00 	movabs $0x3482f840,%rax
    34804122:	00 00 00 
    34804125:	48 89 45 e0          	mov    %rax,-0x20(%rbp)
    34804129:	e9 5f 00 00 00       	jmpq   3480418d <initial_setup+0x17d>
    3480412e:	48 b8 c0 f7 82 34 00 	movabs $0x3482f7c0,%rax
    34804135:	00 00 00 
    34804138:	48 89 45 e0          	mov    %rax,-0x20(%rbp)
    3480413c:	e9 4c 00 00 00       	jmpq   3480418d <initial_setup+0x17d>
    34804141:	48 b8 10 f7 82 34 00 	movabs $0x3482f710,%rax
    34804148:	00 00 00 
    3480414b:	48 89 45 e0          	mov    %rax,-0x20(%rbp)
    3480414f:	e9 39 00 00 00       	jmpq   3480418d <initial_setup+0x17d>
    34804154:	48 b8 40 f6 82 34 00 	movabs $0x3482f640,%rax
    3480415b:	00 00 00 
    3480415e:	48 89 45 e0          	mov    %rax,-0x20(%rbp)
    34804162:	e9 26 00 00 00       	jmpq   3480418d <initial_setup+0x17d>
    34804167:	48 b8 30 f5 82 34 00 	movabs $0x3482f530,%rax
    3480416e:	00 00 00 
    34804171:	48 89 45 e0          	mov    %rax,-0x20(%rbp)
    34804175:	e9 13 00 00 00       	jmpq   3480418d <initial_setup+0x17d>
    3480417a:	48 b8 f0 f3 82 34 00 	movabs $0x3482f3f0,%rax
    34804181:	00 00 00 
    34804184:	48 89 45 e0          	mov    %rax,-0x20(%rbp)
    34804188:	e9 00 00 00 00       	jmpq   3480418d <initial_setup+0x17d>
    3480418d:	48 8b 45 e0          	mov    -0x20(%rbp),%rax
    34804191:	b9 3f 00 00 00       	mov    $0x3f,%ecx
    34804196:	48 8b 55 f8          	mov    -0x8(%rbp),%rdx
    3480419a:	48 89 82 e0 01 00 00 	mov    %rax,0x1e0(%rdx)
    348041a1:	48 8b 45 f0          	mov    -0x10(%rbp),%rax
    348041a5:	8b 30                	mov    (%rax),%esi
    348041a7:	89 f7                	mov    %esi,%edi
    348041a9:	0f af ff             	imul   %edi,%edi
    348041ac:	83 c7 ff             	add    $0xffffffff,%edi
    348041af:	83 fe 08             	cmp    $0x8,%esi
    348041b2:	0f 4c cf             	cmovl  %edi,%ecx
    348041b5:	89 8a e8 01 00 00    	mov    %ecx,0x1e8(%rdx)
    348041bb:	48 83 c2 54          	add    $0x54,%rdx
    348041bf:	4c 8b 45 f8          	mov    -0x8(%rbp),%r8
    348041c3:	41 83 78 54 00       	cmpl   $0x0,0x54(%r8)
    348041c8:	48 89 55 c0          	mov    %rdx,-0x40(%rbp)
    348041cc:	0f 84 1c 00 00 00    	je     348041ee <initial_setup+0x1de>
    348041d2:	48 8b 45 f8          	mov    -0x8(%rbp),%rax
    348041d6:	83 78 50 00          	cmpl   $0x0,0x50(%rax)
    348041da:	0f 84 0e 00 00 00    	je     348041ee <initial_setup+0x1de>
    348041e0:	48 8b 45 f8          	mov    -0x8(%rbp),%rax
    348041e4:	83 78 5c 01          	cmpl   $0x1,0x5c(%rax)
    348041e8:	0f 8d 19 00 00 00    	jge    34804207 <initial_setup+0x1f7>
    348041ee:	48 8b 45 f8          	mov    -0x8(%rbp),%rax
    348041f2:	48 8b 08             	mov    (%rax),%rcx
    348041f5:	c7 41 28 21 00 00 00 	movl   $0x21,0x28(%rcx)
    348041fc:	48 8b 08             	mov    (%rax),%rcx
    348041ff:	48 8b 09             	mov    (%rcx),%rcx
    34804202:	48 89 c7             	mov    %rax,%rdi
    34804205:	ff d1                	callq  *%rcx
    34804207:	48 8b 45 c0          	mov    -0x40(%rbp),%rax
    3480420b:	81 38 dc ff 00 00    	cmpl   $0xffdc,(%rax)
    34804211:	0f 87 11 00 00 00    	ja     34804228 <initial_setup+0x218>
    34804217:	48 8b 45 f8          	mov    -0x8(%rbp),%rax
    3480421b:	81 78 50 dc ff 00 00 	cmpl   $0xffdc,0x50(%rax)
    34804222:	0f 86 23 00 00 00    	jbe    3480424b <initial_setup+0x23b>
    34804228:	48 8b 45 f8          	mov    -0x8(%rbp),%rax
    3480422c:	48 8b 08             	mov    (%rax),%rcx
    3480422f:	c7 41 28 2a 00 00 00 	movl   $0x2a,0x28(%rcx)
    34804236:	48 8b 08             	mov    (%rax),%rcx
    34804239:	c7 41 2c dc ff 00 00 	movl   $0xffdc,0x2c(%rcx)
    34804240:	48 8b 08             	mov    (%rax),%rcx
