
djpeg:     file format elf64-x86-64


Disassembly of section .text:

0000000034800100 <enclave_main>:
    34800100:	41 54                	push   %r12
    34800102:	53                   	push   %rbx
    34800103:	48 81 ec 68 03 00 00 	sub    $0x368,%rsp
    3480010a:	48 c7 05 eb b1 22 00 	movq   $0x34826a28,0x22b1eb(%rip)        # 34a2b300 <progname>
    34800111:	28 6a 82 34 
    34800115:	31 db                	xor    %ebx,%ebx
    34800117:	e8 04 f1 01 00       	callq  3481f220 <clock>
    3480011c:	48 89 44 24 18       	mov    %rax,0x18(%rsp)
    34800121:	4c 8d a4 24 d0 00 00 	lea    0xd0(%rsp),%r12
    34800128:	00 
    34800129:	0f 1f 80 00 00 00 00 	nopl   0x0(%rax)

0000000034800130 <.LBB0_1>:
    34800130:	48 8d 7c 24 28       	lea    0x28(%rsp),%rdi
    34800135:	e8 86 7c 00 00       	callq  34807dc0 <jpeg_std_error>
    3480013a:	48 89 84 24 d0 00 00 	mov    %rax,0xd0(%rsp)
    34800141:	00 
    34800142:	be 5a 00 00 00       	mov    $0x5a,%esi
    34800147:	ba 98 02 00 00       	mov    $0x298,%edx
    3480014c:	4c 89 e7             	mov    %r12,%rdi
    3480014f:	e8 fc 0d 00 00       	callq  34800f50 <jpeg_CreateDecompress>
    34800154:	48 c7 84 24 c0 00 00 	movq   $0x34827040,0xc0(%rsp)
    3480015b:	00 40 70 82 34 
    34800160:	48 b8 e8 03 00 00 14 	movabs $0x414000003e8,%rax
    34800167:	04 00 00 
    3480016a:	48 89 84 24 c8 00 00 	mov    %rax,0xc8(%rsp)
    34800171:	00 
    34800172:	be fe 00 00 00       	mov    $0xfe,%esi
    34800177:	ba 40 03 80 34       	mov    $0x34800340,%edx
    3480017c:	4c 89 e7             	mov    %r12,%rdi
    3480017f:	e8 0c 3a 00 00       	callq  34803b90 <jpeg_set_marker_processor>
    34800184:	be ec 00 00 00       	mov    $0xec,%esi
    34800189:	ba 40 03 80 34       	mov    $0x34800340,%edx
    3480018e:	4c 89 e7             	mov    %r12,%rdi
    34800191:	e8 fa 39 00 00       	callq  34803b90 <jpeg_set_marker_processor>
    34800196:	4c 89 e7             	mov    %r12,%rdi
    34800199:	e8 82 03 00 00       	callq  34800520 <parse_switches>
    3480019e:	bf c8 6f 82 34       	mov    $0x34826fc8,%edi
    348001a3:	be f6 81 82 34       	mov    $0x348281f6,%esi
    348001a8:	e8 e3 b0 01 00       	callq  3481b290 <fopen>
    348001ad:	48 89 44 24 10       	mov    %rax,0x10(%rsp)
    348001b2:	48 85 c0             	test   %rax,%rax
    348001b5:	0f 84 37 01 00 00    	je     348002f2 <.LBB0_2>
    348001bb:	bf 02 70 82 34       	mov    $0x34827002,%edi
    348001c0:	be 3f 77 82 34       	mov    $0x3482773f,%esi
    348001c5:	e8 c6 b0 01 00       	callq  3481b290 <fopen>
    348001ca:	48 85 c0             	test   %rax,%rax
    348001cd:	0f 84 3c 01 00 00    	je     3480030f <.LBB0_5>
    348001d3:	48 89 5c 24 20       	mov    %rbx,0x20(%rsp)
    348001d8:	4c 89 e7             	mov    %r12,%rdi
    348001db:	48 8b 74 24 10       	mov    0x10(%rsp),%rsi
    348001e0:	48 89 44 24 08       	mov    %rax,0x8(%rsp)
    348001e5:	e8 e6 18 00 00       	callq  34801ad0 <jpeg_stdio_src>
    348001ea:	be 01 00 00 00       	mov    $0x1,%esi
    348001ef:	4c 89 e7             	mov    %r12,%rdi
    348001f2:	e8 99 0e 00 00       	callq  34801090 <jpeg_read_header>
    348001f7:	4c 89 e7             	mov    %r12,%rdi
    348001fa:	e8 21 03 00 00       	callq  34800520 <parse_switches>
    348001ff:	31 f6                	xor    %esi,%esi
    34800201:	4c 89 e7             	mov    %r12,%rdi
    34800204:	e8 97 03 00 00       	callq  348005a0 <jinit_write_bmp>
    34800209:	48 89 c3             	mov    %rax,%rbx
    3480020c:	48 8b 44 24 08       	mov    0x8(%rsp),%rax
    34800211:	48 89 43 18          	mov    %rax,0x18(%rbx)
    34800215:	4c 89 e7             	mov    %r12,%rdi
    34800218:	e8 73 13 00 00       	callq  34801590 <jpeg_start_decompress>
    3480021d:	4c 89 e7             	mov    %r12,%rdi
    34800220:	48 89 de             	mov    %rbx,%rsi
    34800223:	ff 13                	callq  *(%rbx)
    34800225:	e9 20 00 00 00       	jmpq   3480024a <.LBB0_8>
    3480022a:	66 0f 1f 44 00 00    	nopw   0x0(%rax,%rax,1)

0000000034800230 <.LBB0_7>:
    34800230:	48 8b 73 20          	mov    0x20(%rbx),%rsi
    34800234:	8b 53 28             	mov    0x28(%rbx),%edx
    34800237:	4c 89 e7             	mov    %r12,%rdi
    3480023a:	e8 a1 15 00 00       	callq  348017e0 <jpeg_read_scanlines>
    3480023f:	4c 89 e7             	mov    %r12,%rdi
    34800242:	48 89 de             	mov    %rbx,%rsi
    34800245:	89 c2                	mov    %eax,%edx
    34800247:	ff 53 08             	callq  *0x8(%rbx)

000000003480024a <.LBB0_8>:
    3480024a:	8b 84 24 78 01 00 00 	mov    0x178(%rsp),%eax
    34800251:	3b 84 24 5c 01 00 00 	cmp    0x15c(%rsp),%eax
    34800258:	0f 82 d2 ff ff ff    	jb     34800230 <.LBB0_7>
    3480025e:	4c 89 e7             	mov    %r12,%rdi
    34800261:	48 89 de             	mov    %rbx,%rsi
    34800264:	ff 53 10             	callq  *0x10(%rbx)
    34800267:	4c 89 e7             	mov    %r12,%rdi
    3480026a:	e8 41 12 00 00       	callq  348014b0 <jpeg_finish_decompress>
    3480026f:	4c 89 e7             	mov    %r12,%rdi
    34800272:	e8 f9 0d 00 00       	callq  34801070 <jpeg_destroy_decompress>
    34800277:	48 8b 7c 24 10       	mov    0x10(%rsp),%rdi
    3480027c:	e8 4f ad 01 00       	callq  3481afd0 <fclose>
    34800281:	48 8b 7c 24 08       	mov    0x8(%rsp),%rdi
    34800286:	e8 45 ad 01 00       	callq  3481afd0 <fclose>
    3480028b:	48 8b 44 24 20       	mov    0x20(%rsp),%rax
    34800290:	3d 87 13 00 00       	cmp    $0x1387,%eax
    34800295:	8d 40 01             	lea    0x1(%rax),%eax
    34800298:	89 c3                	mov    %eax,%ebx
    3480029a:	0f 8c 90 fe ff ff    	jl     34800130 <.LBB0_1>
    348002a0:	e8 7b ef 01 00       	callq  3481f220 <clock>
    348002a5:	48 2b 44 24 18       	sub    0x18(%rsp),%rax
    348002aa:	66 48 0f 6e c8       	movq   %rax,%xmm1
    348002af:	66 0f 62 0d 49 67 02 	punpckldq 0x26749(%rip),%xmm1        # 34826a00 <fabs+0x20>
    348002b6:	00 
    348002b7:	66 0f 5c 0d 51 67 02 	subpd  0x26751(%rip),%xmm1        # 34826a10 <fabs+0x30>
    348002be:	00 
    348002bf:	66 0f 70 c1 4e       	pshufd $0x4e,%xmm1,%xmm0
    348002c4:	66 0f 58 c1          	addpd  %xmm1,%xmm0
    348002c8:	f2 0f 5e 05 50 67 02 	divsd  0x26750(%rip),%xmm0        # 34826a20 <fabs+0x40>
    348002cf:	00 
    348002d0:	bf 41 6a 82 34       	mov    $0x34826a41,%edi
    348002d5:	b0 01                	mov    $0x1,%al
    348002d7:	e8 24 e9 01 00       	callq  3481ec00 <printf>
    348002dc:	31 ff                	xor    %edi,%edi
    348002de:	48 83 bc 24 a8 00 00 	cmpq   $0x0,0xa8(%rsp)
    348002e5:	00 00 
    348002e7:	40 0f 95 c7          	setne  %dil
    348002eb:	01 ff                	add    %edi,%edi
    348002ed:	e8 ae f3 01 00       	callq  3481f6a0 <exit>

00000000348002f2 <.LBB0_2>:
    348002f2:	48 8b 3d 57 97 02 00 	mov    0x29757(%rip),%rdi        # 34829a50 <stderr>
    348002f9:	48 8b 15 00 b0 22 00 	mov    0x22b000(%rip),%rdx        # 34a2b300 <progname>
    34800300:	be 2e 6a 82 34       	mov    $0x34826a2e,%esi
    34800305:	b9 c8 6f 82 34       	mov    $0x34826fc8,%ecx
    3480030a:	e9 18 00 00 00       	jmpq   34800327 <.LBB0_3>

000000003480030f <.LBB0_5>:
    3480030f:	48 8b 3d 3a 97 02 00 	mov    0x2973a(%rip),%rdi        # 34829a50 <stderr>
    34800316:	48 8b 15 e3 af 22 00 	mov    0x22afe3(%rip),%rdx        # 34a2b300 <progname>
    3480031d:	be 2e 6a 82 34       	mov    $0x34826a2e,%esi
    34800322:	b9 02 70 82 34       	mov    $0x34827002,%ecx

0000000034800327 <.LBB0_3>:
    34800327:	31 c0                	xor    %eax,%eax
    34800329:	e8 02 b0 01 00       	callq  3481b330 <fprintf>
    3480032e:	bf 01 00 00 00       	mov    $0x1,%edi
    34800333:	e8 68 f3 01 00       	callq  3481f6a0 <exit>
    34800338:	0f 1f 84 00 00 00 00 	nopl   0x0(%rax,%rax,1)
    3480033f:	00 

0000000034800340 <print_text_marker>:
    34800340:	41 54                	push   %r12
    34800342:	53                   	push   %rbx
    34800343:	48 83 ec 18          	sub    $0x18,%rsp
    34800347:	48 89 fb             	mov    %rdi,%rbx
    3480034a:	48 8b 03             	mov    (%rbx),%rax
    3480034d:	8b 40 7c             	mov    0x7c(%rax),%eax
    34800350:	89 44 24 08          	mov    %eax,0x8(%rsp)
    34800354:	e8 e7 01 00 00       	callq  34800540 <jpeg_getc>
    34800359:	41 89 c4             	mov    %eax,%r12d
    3480035c:	41 c1 e4 08          	shl    $0x8,%r12d
    34800360:	48 89 5c 24 10       	mov    %rbx,0x10(%rsp)
    34800365:	48 89 df             	mov    %rbx,%rdi
    34800368:	e8 d3 01 00 00       	callq  34800540 <jpeg_getc>
    3480036d:	83 7c 24 08 00       	cmpl   $0x0,0x8(%rsp)
    34800372:	89 c0                	mov    %eax,%eax
    34800374:	4a 8d 5c 20 fe       	lea    -0x2(%rax,%r12,1),%rbx
    34800379:	0f 8f 32 01 00 00    	jg     348004b1 <.LBB1_1>

000000003480037f <.LBB1_4>:
    3480037f:	45 31 e4             	xor    %r12d,%r12d
    34800382:	e9 e4 00 00 00       	jmpq   3480046b <.LBB1_5>
    34800387:	66 0f 1f 84 00 00 00 	nopw   0x0(%rax,%rax,1)
    3480038e:	00 00 

0000000034800390 <.LBB1_8>:
    34800390:	41 83 fc 0a          	cmp    $0xa,%r12d
    34800394:	0f 84 56 00 00 00    	je     348003f0 <.LBB1_12>
    3480039a:	41 83 fc 5c          	cmp    $0x5c,%r12d
    3480039e:	0f 84 79 00 00 00    	je     3480041d <.LBB1_14>
    348003a4:	41 83 fc 0d          	cmp    $0xd,%r12d
    348003a8:	0f 84 95 00 00 00    	je     34800443 <.LBB1_11>
    348003ae:	e8 0d ac 01 00       	callq  3481afc0 <__ctype_b_loc>
    348003b3:	48 8b 00             	mov    (%rax),%rax
    348003b6:	49 63 cc             	movslq %r12d,%rcx
    348003b9:	f6 44 48 01 40       	testb  $0x40,0x1(%rax,%rcx,2)
    348003be:	48 8b 0d 8b 96 02 00 	mov    0x2968b(%rip),%rcx        # 34829a50 <stderr>
    348003c5:	0f 85 95 00 00 00    	jne    34800460 <.LBB1_16>
    348003cb:	be c2 6f 82 34       	mov    $0x34826fc2,%esi
    348003d0:	31 c0                	xor    %eax,%eax
    348003d2:	48 89 cf             	mov    %rcx,%rdi
    348003d5:	44 89 e2             	mov    %r12d,%edx
    348003d8:	e8 53 af 01 00       	callq  3481b330 <fprintf>
    348003dd:	e9 89 00 00 00       	jmpq   3480046b <.LBB1_5>
    348003e2:	66 66 66 66 66 2e 0f 	data32 data32 data32 data32 nopw %cs:0x0(%rax,%rax,1)
    348003e9:	1f 84 00 00 00 00 00 

00000000348003f0 <.LBB1_12>:
    348003f0:	83 7c 24 0c 0d       	cmpl   $0xd,0xc(%rsp)
    348003f5:	41 bc 0a 00 00 00    	mov    $0xa,%r12d
    348003fb:	0f 84 6a 00 00 00    	je     3480046b <.LBB1_5>
    34800401:	48 8b 35 48 96 02 00 	mov    0x29648(%rip),%rsi        # 34829a50 <stderr>
    34800408:	41 bc 0a 00 00 00    	mov    $0xa,%r12d
    3480040e:	bf 0a 00 00 00       	mov    $0xa,%edi
    34800413:	e8 a8 af 01 00       	callq  3481b3c0 <fputc>
    34800418:	e9 4e 00 00 00       	jmpq   3480046b <.LBB1_5>

000000003480041d <.LBB1_14>:
    3480041d:	48 8b 0d 2c 96 02 00 	mov    0x2962c(%rip),%rcx        # 34829a50 <stderr>
    34800424:	bf bf 6f 82 34       	mov    $0x34826fbf,%edi
    34800429:	be 02 00 00 00       	mov    $0x2,%esi
    3480042e:	ba 01 00 00 00       	mov    $0x1,%edx
    34800433:	e8 b8 b2 01 00       	callq  3481b6f0 <fwrite>
    34800438:	41 bc 5c 00 00 00    	mov    $0x5c,%r12d
    3480043e:	e9 28 00 00 00       	jmpq   3480046b <.LBB1_5>

0000000034800443 <.LBB1_11>:
    34800443:	48 8b 35 06 96 02 00 	mov    0x29606(%rip),%rsi        # 34829a50 <stderr>
    3480044a:	bf 0a 00 00 00       	mov    $0xa,%edi
    3480044f:	e8 6c af 01 00       	callq  3481b3c0 <fputc>
    34800454:	41 bc 0d 00 00 00    	mov    $0xd,%r12d
    3480045a:	e9 0c 00 00 00       	jmpq   3480046b <.LBB1_5>
    3480045f:	90                   	nop

0000000034800460 <.LBB1_16>:
    34800460:	44 89 e7             	mov    %r12d,%edi
    34800463:	48 89 ce             	mov    %rcx,%rsi
    34800466:	e8 45 e8 01 00       	callq  3481ecb0 <putc>

000000003480046b <.LBB1_5>:
    3480046b:	44 89 64 24 0c       	mov    %r12d,0xc(%rsp)

0000000034800470 <.LBB1_6>:
    34800470:	48 85 db             	test   %rbx,%rbx
    34800473:	0f 8e 20 00 00 00    	jle    34800499 <.LBB1_18>
    34800479:	48 ff cb             	dec    %rbx
    3480047c:	48 8b 7c 24 10       	mov    0x10(%rsp),%rdi
    34800481:	e8 ba 00 00 00       	callq  34800540 <jpeg_getc>
    34800486:	41 89 c4             	mov    %eax,%r12d
    34800489:	83 7c 24 08 00       	cmpl   $0x0,0x8(%rsp)
    3480048e:	0f 8e dc ff ff ff    	jle    34800470 <.LBB1_6>
    34800494:	e9 f7 fe ff ff       	jmpq   34800390 <.LBB1_8>

0000000034800499 <.LBB1_18>:
    34800499:	83 7c 24 08 00       	cmpl   $0x0,0x8(%rsp)
    3480049e:	0f 8f 3f 00 00 00    	jg     348004e3 <.LBB1_19>

00000000348004a4 <.LBB1_20>:
    348004a4:	b8 01 00 00 00       	mov    $0x1,%eax
    348004a9:	48 83 c4 18          	add    $0x18,%rsp
    348004ad:	5b                   	pop    %rbx
    348004ae:	41 5c                	pop    %r12
    348004b0:	c3                   	retq   

00000000348004b1 <.LBB1_1>:
    348004b1:	48 8b 44 24 10       	mov    0x10(%rsp),%rax
    348004b6:	8b 90 3c 02 00 00    	mov    0x23c(%rax),%edx
    348004bc:	81 fa fe 00 00 00    	cmp    $0xfe,%edx
    348004c2:	48 8b 3d 87 95 02 00 	mov    0x29587(%rip),%rdi        # 34829a50 <stderr>
    348004c9:	0f 85 2a 00 00 00    	jne    348004f9 <.LBB1_3>
    348004cf:	be 95 6f 82 34       	mov    $0x34826f95,%esi
    348004d4:	31 c0                	xor    %eax,%eax
    348004d6:	48 89 da             	mov    %rbx,%rdx
    348004d9:	e8 52 ae 01 00       	callq  3481b330 <fprintf>
    348004de:	e9 9c fe ff ff       	jmpq   3480037f <.LBB1_4>

00000000348004e3 <.LBB1_19>:
    348004e3:	48 8b 35 66 95 02 00 	mov    0x29566(%rip),%rsi        # 34829a50 <stderr>
    348004ea:	bf 0a 00 00 00       	mov    $0xa,%edi
    348004ef:	e8 cc ae 01 00       	callq  3481b3c0 <fputc>
    348004f4:	e9 ab ff ff ff       	jmpq   348004a4 <.LBB1_20>

00000000348004f9 <.LBB1_3>:
    348004f9:	81 c2 20 ff ff ff    	add    $0xffffff20,%edx
    348004ff:	be ab 6f 82 34       	mov    $0x34826fab,%esi
    34800504:	31 c0                	xor    %eax,%eax
    34800506:	48 89 d9             	mov    %rbx,%rcx
    34800509:	e8 22 ae 01 00       	callq  3481b330 <fprintf>
    3480050e:	e9 6c fe ff ff       	jmpq   3480037f <.LBB1_4>
    34800513:	66 66 66 66 2e 0f 1f 	data32 data32 data32 nopw %cs:0x0(%rax,%rax,1)
    3480051a:	84 00 00 00 00 00 

0000000034800520 <parse_switches>:
    34800520:	48 8b 07             	mov    (%rdi),%rax
    34800523:	c7 40 7c 00 00 00 00 	movl   $0x0,0x7c(%rax)
    3480052a:	c7 47 60 00 00 00 00 	movl   $0x0,0x60(%rdi)
    34800531:	c3                   	retq   
    34800532:	66 66 66 66 66 2e 0f 	data32 data32 data32 data32 nopw %cs:0x0(%rax,%rax,1)
    34800539:	1f 84 00 00 00 00 00 

0000000034800540 <jpeg_getc>:
    34800540:	41 54                	push   %r12
    34800542:	53                   	push   %rbx
    34800543:	50                   	push   %rax
    34800544:	49 89 fc             	mov    %rdi,%r12
    34800547:	49 8b 5c 24 28       	mov    0x28(%r12),%rbx
    3480054c:	48 83 7b 08 00       	cmpq   $0x0,0x8(%rbx)
    34800551:	0f 85 22 00 00 00    	jne    34800579 <.LBB3_3>
    34800557:	4c 89 e7             	mov    %r12,%rdi
    3480055a:	ff 53 18             	callq  *0x18(%rbx)
    3480055d:	85 c0                	test   %eax,%eax
    3480055f:	0f 85 14 00 00 00    	jne    34800579 <.LBB3_3>
    34800565:	49 8b 04 24          	mov    (%r12),%rax
    34800569:	c7 40 28 19 00 00 00 	movl   $0x19,0x28(%rax)
    34800570:	49 8b 04 24          	mov    (%r12),%rax
    34800574:	4c 89 e7             	mov    %r12,%rdi
    34800577:	ff 10                	callq  *(%rax)

0000000034800579 <.LBB3_3>:
    34800579:	48 ff 4b 08          	decq   0x8(%rbx)
    3480057d:	48 8b 03             	mov    (%rbx),%rax
    34800580:	48 8d 48 01          	lea    0x1(%rax),%rcx
    34800584:	48 89 0b             	mov    %rcx,(%rbx)
    34800587:	0f b6 00             	movzbl (%rax),%eax
    3480058a:	48 83 c4 08          	add    $0x8,%rsp
    3480058e:	5b                   	pop    %rbx
    3480058f:	41 5c                	pop    %r12
    34800591:	c3                   	retq   
    34800592:	66 2e 0f 1f 84 00 00 	nopw   %cs:0x0(%rax,%rax,1)
    34800599:	00 00 00 
    3480059c:	0f 1f 40 00          	nopl   0x0(%rax)

00000000348005a0 <jinit_write_bmp>:
    348005a0:	41 54                	push   %r12
    348005a2:	53                   	push   %rbx
    348005a3:	48 83 ec 18          	sub    $0x18,%rsp
    348005a7:	41 89 f4             	mov    %esi,%r12d
    348005aa:	48 89 fb             	mov    %rdi,%rbx
    348005ad:	48 8b 43 08          	mov    0x8(%rbx),%rax
    348005b1:	be 01 00 00 00       	mov    $0x1,%esi
    348005b6:	ba 50 00 00 00       	mov    $0x50,%edx
    348005bb:	ff 10                	callq  *(%rax)
    348005bd:	48 c7 00 f0 06 80 34 	movq   $0x348006f0,(%rax)
    348005c4:	48 c7 40 10 00 07 80 	movq   $0x34800700,0x10(%rax)
    348005cb:	34 
    348005cc:	44 89 60 30          	mov    %r12d,0x30(%rax)
    348005d0:	8b 4b 40             	mov    0x40(%rbx),%ecx
    348005d3:	83 f9 02             	cmp    $0x2,%ecx
    348005d6:	48 89 44 24 10       	mov    %rax,0x10(%rsp)
    348005db:	0f 84 16 00 00 00    	je     348005f7 <.LBB0_3>
    348005e1:	83 f9 01             	cmp    $0x1,%ecx
    348005e4:	0f 85 28 00 00 00    	jne    34800612 <.LBB0_4>
    348005ea:	48 c7 40 08 30 08 80 	movq   $0x34800830,0x8(%rax)
    348005f1:	34 
    348005f2:	e9 2d 00 00 00       	jmpq   34800624 <.LBB0_5>

00000000348005f7 <.LBB0_3>:
    348005f7:	83 7b 6c 00          	cmpl   $0x0,0x6c(%rbx)
    348005fb:	ba 30 08 80 34       	mov    $0x34800830,%edx
    34800600:	b9 d0 08 80 34       	mov    $0x348008d0,%ecx
    34800605:	48 0f 45 ca          	cmovne %rdx,%rcx
    34800609:	48 89 48 08          	mov    %rcx,0x8(%rax)
    3480060d:	e9 12 00 00 00       	jmpq   34800624 <.LBB0_5>

0000000034800612 <.LBB0_4>:
    34800612:	48 8b 0b             	mov    (%rbx),%rcx
    34800615:	c7 41 28 ed 03 00 00 	movl   $0x3ed,0x28(%rcx)
    3480061c:	48 8b 0b             	mov    (%rbx),%rcx
    3480061f:	48 89 df             	mov    %rbx,%rdi
    34800622:	ff 11                	callq  *(%rcx)

0000000034800624 <.LBB0_5>:
    34800624:	48 89 df             	mov    %rbx,%rdi
    34800627:	e8 24 5a 00 00       	callq  34806050 <jpeg_calc_output_dimensions>
    3480062c:	44 8b a3 94 00 00 00 	mov    0x94(%rbx),%r12d
    34800633:	44 0f af a3 88 00 00 	imul   0x88(%rbx),%r12d
    3480063a:	00 
    3480063b:	48 8b 44 24 10       	mov    0x10(%rsp),%rax
    34800640:	44 89 60 40          	mov    %r12d,0x40(%rax)
    34800644:	41 ff cc             	dec    %r12d
    34800647:	48 89 c1             	mov    %rax,%rcx
    3480064a:	66 0f 1f 44 00 00    	nopw   0x0(%rax,%rax,1)

0000000034800650 <.LBB0_6>:
    34800650:	41 ff c4             	inc    %r12d
    34800653:	41 f6 c4 03          	test   $0x3,%r12b
    34800657:	0f 85 f3 ff ff ff    	jne    34800650 <.LBB0_6>
    3480065d:	44 89 61 44          	mov    %r12d,0x44(%rcx)
    34800661:	44 89 e0             	mov    %r12d,%eax
    34800664:	2b 41 40             	sub    0x40(%rcx),%eax
    34800667:	89 41 48             	mov    %eax,0x48(%rcx)
    3480066a:	48 8b 43 08          	mov    0x8(%rbx),%rax
    3480066e:	44 8b 83 8c 00 00 00 	mov    0x8c(%rbx),%r8d
    34800675:	be 01 00 00 00       	mov    $0x1,%esi
    3480067a:	48 89 5c 24 08       	mov    %rbx,0x8(%rsp)
    3480067f:	48 89 cb             	mov    %rcx,%rbx
    34800682:	31 d2                	xor    %edx,%edx
    34800684:	41 b9 01 00 00 00    	mov    $0x1,%r9d
    3480068a:	48 8b 7c 24 08       	mov    0x8(%rsp),%rdi
    3480068f:	44 89 e1             	mov    %r12d,%ecx
    34800692:	ff 50 20             	callq  *0x20(%rax)
    34800695:	48 89 43 38          	mov    %rax,0x38(%rbx)
    34800699:	c7 43 4c 00 00 00 00 	movl   $0x0,0x4c(%rbx)
    348006a0:	48 8b 7c 24 08       	mov    0x8(%rsp),%rdi
    348006a5:	48 8b 47 10          	mov    0x10(%rdi),%rax
    348006a9:	48 85 c0             	test   %rax,%rax
    348006ac:	0f 84 03 00 00 00    	je     348006b5 <.LBB0_9>
    348006b2:	ff 40 24             	incl   0x24(%rax)

00000000348006b5 <.LBB0_9>:
    348006b5:	48 8b 47 08          	mov    0x8(%rdi),%rax
    348006b9:	be 01 00 00 00       	mov    $0x1,%esi
    348006be:	b9 01 00 00 00       	mov    $0x1,%ecx
    348006c3:	44 89 e2             	mov    %r12d,%edx
    348006c6:	ff 50 10             	callq  *0x10(%rax)
    348006c9:	48 8b 4c 24 10       	mov    0x10(%rsp),%rcx
    348006ce:	48 89 41 20          	mov    %rax,0x20(%rcx)
    348006d2:	c7 41 28 01 00 00 00 	movl   $0x1,0x28(%rcx)
    348006d9:	48 89 c8             	mov    %rcx,%rax
    348006dc:	48 83 c4 18          	add    $0x18,%rsp
    348006e0:	5b                   	pop    %rbx
    348006e1:	41 5c                	pop    %r12
    348006e3:	c3                   	retq   
    348006e4:	66 66 66 2e 0f 1f 84 	data32 data32 nopw %cs:0x0(%rax,%rax,1)
    348006eb:	00 00 00 00 00 

00000000348006f0 <start_output_bmp>:
    348006f0:	c3                   	retq   
    348006f1:	66 66 66 66 66 66 2e 	data32 data32 data32 data32 data32 nopw %cs:0x0(%rax,%rax,1)
    348006f8:	0f 1f 84 00 00 00 00 
    348006ff:	00 

0000000034800700 <finish_output_bmp>:
    34800700:	41 54                	push   %r12
    34800702:	53                   	push   %rbx
    34800703:	48 83 ec 28          	sub    $0x28,%rsp
    34800707:	49 89 fc             	mov    %rdi,%r12
    3480070a:	48 8b 46 18          	mov    0x18(%rsi),%rax
    3480070e:	48 89 44 24 08       	mov    %rax,0x8(%rsp)
    34800713:	49 8b 5c 24 10       	mov    0x10(%r12),%rbx
    34800718:	83 7e 30 00          	cmpl   $0x0,0x30(%rsi)
    3480071c:	48 89 74 24 20       	mov    %rsi,0x20(%rsp)
    34800721:	0f 84 0a 00 00 00    	je     34800731 <.LBB2_2>
    34800727:	e8 54 02 00 00       	callq  34800980 <write_os2_header>
    3480072c:	e9 05 00 00 00       	jmpq   34800736 <.LBB2_3>

0000000034800731 <.LBB2_2>:
    34800731:	e8 ba 03 00 00       	callq  34800af0 <write_bmp_header>

0000000034800736 <.LBB2_3>:
    34800736:	41 8b 94 24 8c 00 00 	mov    0x8c(%r12),%edx
    3480073d:	00 
    3480073e:	85 d2                	test   %edx,%edx
    34800740:	0f 84 a9 00 00 00    	je     348007ef <.LBB2_11>
    34800746:	4c 89 64 24 18       	mov    %r12,0x18(%rsp)
    3480074b:	48 89 5c 24 10       	mov    %rbx,0x10(%rsp)

0000000034800750 <.LBB2_6>:
    34800750:	48 85 db             	test   %rbx,%rbx
    34800753:	0f 84 27 00 00 00    	je     34800780 <.LBB2_8>
    34800759:	41 8b 84 24 8c 00 00 	mov    0x8c(%r12),%eax
    34800760:	00 
    34800761:	29 d0                	sub    %edx,%eax
    34800763:	48 89 43 08          	mov    %rax,0x8(%rbx)
    34800767:	41 8b 84 24 8c 00 00 	mov    0x8c(%r12),%eax
    3480076e:	00 
    3480076f:	48 89 43 10          	mov    %rax,0x10(%rbx)
    34800773:	4c 89 e7             	mov    %r12,%rdi
    34800776:	89 54 24 04          	mov    %edx,0x4(%rsp)
    3480077a:	ff 13                	callq  *(%rbx)
    3480077c:	8b 54 24 04          	mov    0x4(%rsp),%edx

0000000034800780 <.LBB2_8>:
    34800780:	49 8b 44 24 08       	mov    0x8(%r12),%rax
    34800785:	48 8b 5c 24 20       	mov    0x20(%rsp),%rbx
    3480078a:	48 8b 73 38          	mov    0x38(%rbx),%rsi
    3480078e:	ff ca                	dec    %edx
    34800790:	b9 01 00 00 00       	mov    $0x1,%ecx
    34800795:	45 31 c0             	xor    %r8d,%r8d
    34800798:	4c 89 e7             	mov    %r12,%rdi
    3480079b:	89 54 24 04          	mov    %edx,0x4(%rsp)
    3480079f:	ff 50 38             	callq  *0x38(%rax)
    348007a2:	44 8b 63 44          	mov    0x44(%rbx),%r12d
    348007a6:	45 85 e4             	test   %r12d,%r12d
    348007a9:	0f 84 2a 00 00 00    	je     348007d9 <.LBB2_5>
    348007af:	48 8b 18             	mov    (%rax),%rbx
    348007b2:	66 66 66 66 66 2e 0f 	data32 data32 data32 data32 nopw %cs:0x0(%rax,%rax,1)
    348007b9:	1f 84 00 00 00 00 00 

00000000348007c0 <.LBB2_10>:
    348007c0:	0f b6 3b             	movzbl (%rbx),%edi
    348007c3:	48 8b 74 24 08       	mov    0x8(%rsp),%rsi
    348007c8:	e8 e3 e4 01 00       	callq  3481ecb0 <putc>
    348007cd:	48 ff c3             	inc    %rbx
    348007d0:	41 ff cc             	dec    %r12d
    348007d3:	0f 85 e7 ff ff ff    	jne    348007c0 <.LBB2_10>

00000000348007d9 <.LBB2_5>:
    348007d9:	8b 54 24 04          	mov    0x4(%rsp),%edx
    348007dd:	85 d2                	test   %edx,%edx
    348007df:	4c 8b 64 24 18       	mov    0x18(%rsp),%r12
    348007e4:	48 8b 5c 24 10       	mov    0x10(%rsp),%rbx
    348007e9:	0f 85 61 ff ff ff    	jne    34800750 <.LBB2_6>

00000000348007ef <.LBB2_11>:
    348007ef:	48 85 db             	test   %rbx,%rbx
    348007f2:	48 8b 7c 24 08       	mov    0x8(%rsp),%rdi
    348007f7:	0f 84 03 00 00 00    	je     34800800 <.LBB2_13>
    348007fd:	ff 43 20             	incl   0x20(%rbx)

0000000034800800 <.LBB2_13>:
    34800800:	e8 9b a8 01 00       	callq  3481b0a0 <ferror>
    34800805:	85 c0                	test   %eax,%eax
    34800807:	0f 84 1b 00 00 00    	je     34800828 <.LBB2_14>
    3480080d:	49 8b 04 24          	mov    (%r12),%rax
    34800811:	c7 40 28 26 00 00 00 	movl   $0x26,0x28(%rax)
    34800818:	49 8b 04 24          	mov    (%r12),%rax
    3480081c:	4c 89 e7             	mov    %r12,%rdi
    3480081f:	48 83 c4 28          	add    $0x28,%rsp
    34800823:	5b                   	pop    %rbx
    34800824:	41 5c                	pop    %r12
    34800826:	ff 20                	jmpq   *(%rax)

0000000034800828 <.LBB2_14>:
    34800828:	48 83 c4 28          	add    $0x28,%rsp
    3480082c:	5b                   	pop    %rbx
    3480082d:	41 5c                	pop    %r12
    3480082f:	c3                   	retq   

0000000034800830 <put_gray_rows>:
    34800830:	41 54                	push   %r12
    34800832:	53                   	push   %rbx
    34800833:	50                   	push   %rax
    34800834:	49 89 f4             	mov    %rsi,%r12
    34800837:	48 89 fb             	mov    %rdi,%rbx
    3480083a:	48 8b 43 08          	mov    0x8(%rbx),%rax
    3480083e:	49 8b 74 24 38       	mov    0x38(%r12),%rsi
    34800843:	41 8b 54 24 4c       	mov    0x4c(%r12),%edx
    34800848:	b9 01 00 00 00       	mov    $0x1,%ecx
    3480084d:	41 b8 01 00 00 00    	mov    $0x1,%r8d
    34800853:	ff 50 38             	callq  *0x38(%rax)
    34800856:	41 ff 44 24 4c       	incl   0x4c(%r12)
    3480085b:	48 8b 38             	mov    (%rax),%rdi
    3480085e:	8b 83 88 00 00 00    	mov    0x88(%rbx),%eax
    34800864:	85 c0                	test   %eax,%eax
    34800866:	0f 84 2a 00 00 00    	je     34800896 <.LBB3_4>
    3480086c:	49 8b 4c 24 20       	mov    0x20(%r12),%rcx
    34800871:	48 8b 11             	mov    (%rcx),%rdx
    34800874:	8d 48 ff             	lea    -0x1(%rax),%ecx
    34800877:	48 ff c1             	inc    %rcx
    3480087a:	48 89 fe             	mov    %rdi,%rsi
    3480087d:	0f 1f 00             	nopl   (%rax)

0000000034800880 <.LBB3_2>:
    34800880:	0f b6 1a             	movzbl (%rdx),%ebx
    34800883:	48 ff c2             	inc    %rdx
    34800886:	88 1e                	mov    %bl,(%rsi)
    34800888:	48 ff c6             	inc    %rsi
    3480088b:	ff c8                	dec    %eax
    3480088d:	0f 85 ed ff ff ff    	jne    34800880 <.LBB3_2>
    34800893:	48 01 cf             	add    %rcx,%rdi

0000000034800896 <.LBB3_4>:
    34800896:	41 8b 44 24 48       	mov    0x48(%r12),%eax
    3480089b:	85 c0                	test   %eax,%eax
    3480089d:	0f 8e 1d 00 00 00    	jle    348008c0 <.LBB3_6>
    348008a3:	89 c1                	mov    %eax,%ecx
    348008a5:	f7 d1                	not    %ecx
    348008a7:	83 f9 fd             	cmp    $0xfffffffd,%ecx
    348008aa:	ba fe ff ff ff       	mov    $0xfffffffe,%edx
    348008af:	0f 4f d1             	cmovg  %ecx,%edx
    348008b2:	8d 54 10 01          	lea    0x1(%rax,%rdx,1),%edx
    348008b6:	48 ff c2             	inc    %rdx
    348008b9:	31 f6                	xor    %esi,%esi
    348008bb:	e8 d7 e2 01 00       	callq  3481eb97 <memset>

00000000348008c0 <.LBB3_6>:
    348008c0:	48 83 c4 08          	add    $0x8,%rsp
    348008c4:	5b                   	pop    %rbx
    348008c5:	41 5c                	pop    %r12
    348008c7:	c3                   	retq   
    348008c8:	0f 1f 84 00 00 00 00 	nopl   0x0(%rax,%rax,1)
    348008cf:	00 

00000000348008d0 <put_pixel_rows>:
    348008d0:	41 54                	push   %r12
    348008d2:	53                   	push   %rbx
    348008d3:	50                   	push   %rax
    348008d4:	49 89 f4             	mov    %rsi,%r12
    348008d7:	48 89 fb             	mov    %rdi,%rbx
    348008da:	48 8b 43 08          	mov    0x8(%rbx),%rax
    348008de:	49 8b 74 24 38       	mov    0x38(%r12),%rsi
    348008e3:	41 8b 54 24 4c       	mov    0x4c(%r12),%edx
    348008e8:	b9 01 00 00 00       	mov    $0x1,%ecx
    348008ed:	41 b8 01 00 00 00    	mov    $0x1,%r8d
    348008f3:	ff 50 38             	callq  *0x38(%rax)
    348008f6:	41 ff 44 24 4c       	incl   0x4c(%r12)
    348008fb:	48 8b 38             	mov    (%rax),%rdi
    348008fe:	8b 83 88 00 00 00    	mov    0x88(%rbx),%eax
    34800904:	85 c0                	test   %eax,%eax
    34800906:	0f 84 3a 00 00 00    	je     34800946 <.LBB4_4>
    3480090c:	49 8b 4c 24 20       	mov    0x20(%r12),%rcx
    34800911:	48 8b 09             	mov    (%rcx),%rcx
    34800914:	8d 50 ff             	lea    -0x1(%rax),%edx
    34800917:	48 8d 54 52 03       	lea    0x3(%rdx,%rdx,2),%rdx
    3480091c:	48 8d 77 02          	lea    0x2(%rdi),%rsi

0000000034800920 <.LBB4_2>:
    34800920:	0f b6 19             	movzbl (%rcx),%ebx
    34800923:	88 1e                	mov    %bl,(%rsi)
    34800925:	0f b6 59 01          	movzbl 0x1(%rcx),%ebx
    34800929:	88 5e ff             	mov    %bl,-0x1(%rsi)
    3480092c:	0f b6 59 02          	movzbl 0x2(%rcx),%ebx
    34800930:	88 5e fe             	mov    %bl,-0x2(%rsi)
    34800933:	48 83 c6 03          	add    $0x3,%rsi
    34800937:	48 83 c1 03          	add    $0x3,%rcx
    3480093b:	ff c8                	dec    %eax
    3480093d:	0f 85 dd ff ff ff    	jne    34800920 <.LBB4_2>
    34800943:	48 01 d7             	add    %rdx,%rdi

0000000034800946 <.LBB4_4>:
    34800946:	41 8b 44 24 48       	mov    0x48(%r12),%eax
    3480094b:	85 c0                	test   %eax,%eax
    3480094d:	0f 8e 1d 00 00 00    	jle    34800970 <.LBB4_6>
    34800953:	89 c1                	mov    %eax,%ecx
    34800955:	f7 d1                	not    %ecx
    34800957:	83 f9 fd             	cmp    $0xfffffffd,%ecx
    3480095a:	ba fe ff ff ff       	mov    $0xfffffffe,%edx
    3480095f:	0f 4f d1             	cmovg  %ecx,%edx
    34800962:	8d 54 10 01          	lea    0x1(%rax,%rdx,1),%edx
    34800966:	48 ff c2             	inc    %rdx
    34800969:	31 f6                	xor    %esi,%esi
    3480096b:	e8 27 e2 01 00       	callq  3481eb97 <memset>

0000000034800970 <.LBB4_6>:
    34800970:	48 83 c4 08          	add    $0x8,%rsp
    34800974:	5b                   	pop    %rbx
    34800975:	41 5c                	pop    %r12
    34800977:	c3                   	retq   
    34800978:	0f 1f 84 00 00 00 00 	nopl   0x0(%rax,%rax,1)
    3480097f:	00 

0000000034800980 <write_os2_header>:
    34800980:	41 54                	push   %r12
    34800982:	53                   	push   %rbx
    34800983:	48 83 ec 38          	sub    $0x38,%rsp
    34800987:	49 89 f4             	mov    %rsi,%r12
    3480098a:	48 89 fb             	mov    %rdi,%rbx
    3480098d:	83 7b 40 02          	cmpl   $0x2,0x40(%rbx)
    34800991:	0f 85 1f 00 00 00    	jne    348009b6 <.LBB5_1>
    34800997:	31 d2                	xor    %edx,%edx
    34800999:	83 7b 6c 00          	cmpl   $0x0,0x6c(%rbx)
    3480099d:	0f 95 c1             	setne  %cl
    348009a0:	41 b0 18             	mov    $0x18,%r8b
    348009a3:	0f 84 03 00 00 00    	je     348009ac <.LBB5_4>
    348009a9:	41 b0 08             	mov    $0x8,%r8b

00000000348009ac <.LBB5_4>:
    348009ac:	88 ca                	mov    %cl,%dl
    348009ae:	c1 e2 08             	shl    $0x8,%edx
    348009b1:	e9 08 00 00 00       	jmpq   348009be <.LBB5_5>

00000000348009b6 <.LBB5_1>:
    348009b6:	ba 00 01 00 00       	mov    $0x100,%edx
    348009bb:	41 b0 08             	mov    $0x8,%r8b

00000000348009be <.LBB5_5>:
    348009be:	48 89 54 24 30       	mov    %rdx,0x30(%rsp)
    348009c3:	8d 0c 52             	lea    (%rdx,%rdx,2),%ecx
    348009c6:	89 ce                	mov    %ecx,%esi
    348009c8:	83 ce 1a             	or     $0x1a,%esi
    348009cb:	41 8b 7c 24 44       	mov    0x44(%r12),%edi
    348009d0:	8b 93 8c 00 00 00    	mov    0x8c(%rbx),%edx
    348009d6:	48 0f af d7          	imul   %rdi,%rdx
    348009da:	48 01 f2             	add    %rsi,%rdx
    348009dd:	c7 44 24 20 00 00 00 	movl   $0x0,0x20(%rsp)
    348009e4:	00 
    348009e5:	66 c7 44 24 10 00 00 	movw   $0x0,0x10(%rsp)
    348009ec:	66 c7 44 24 1a 42 4d 	movw   $0x4d42,0x1a(%rsp)
    348009f3:	88 54 24 1c          	mov    %dl,0x1c(%rsp)
    348009f7:	88 74 24 1d          	mov    %dh,0x1d(%rsp)
    348009fb:	48 89 d6             	mov    %rdx,%rsi
    348009fe:	48 c1 ee 10          	shr    $0x10,%rsi
    34800a02:	40 88 74 24 1e       	mov    %sil,0x1e(%rsp)
    34800a07:	48 c1 ea 18          	shr    $0x18,%rdx
    34800a0b:	88 54 24 1f          	mov    %dl,0x1f(%rsp)
    34800a0f:	c6 44 24 24 1a       	movb   $0x1a,0x24(%rsp)
    34800a14:	88 6c 24 25          	mov    %ch,0x25(%rsp)
    34800a18:	66 c7 44 24 26 00 00 	movw   $0x0,0x26(%rsp)
    34800a1f:	66 c7 44 24 0e 0c 00 	movw   $0xc,0xe(%rsp)
    34800a26:	8b 8b 88 00 00 00    	mov    0x88(%rbx),%ecx
    34800a2c:	88 4c 24 12          	mov    %cl,0x12(%rsp)
    34800a30:	88 6c 24 13          	mov    %ch,0x13(%rsp)
    34800a34:	8b 8b 8c 00 00 00    	mov    0x8c(%rbx),%ecx
    34800a3a:	88 4c 24 14          	mov    %cl,0x14(%rsp)
    34800a3e:	88 6c 24 15          	mov    %ch,0x15(%rsp)
    34800a42:	66 c7 44 24 16 01 00 	movw   $0x1,0x16(%rsp)
    34800a49:	44 88 44 24 18       	mov    %r8b,0x18(%rsp)
    34800a4e:	c6 44 24 19 00       	movb   $0x0,0x19(%rsp)
    34800a53:	49 8b 4c 24 18       	mov    0x18(%r12),%rcx
    34800a58:	48 8d 7c 24 1a       	lea    0x1a(%rsp),%rdi
    34800a5d:	be 01 00 00 00       	mov    $0x1,%esi
    34800a62:	ba 0e 00 00 00       	mov    $0xe,%edx
    34800a67:	e8 84 ac 01 00       	callq  3481b6f0 <fwrite>
    34800a6c:	48 83 f8 0e          	cmp    $0xe,%rax
    34800a70:	0f 84 12 00 00 00    	je     34800a88 <.LBB5_7>
    34800a76:	48 8b 03             	mov    (%rbx),%rax
    34800a79:	c7 40 28 26 00 00 00 	movl   $0x26,0x28(%rax)
    34800a80:	48 8b 03             	mov    (%rbx),%rax
    34800a83:	48 89 df             	mov    %rbx,%rdi
    34800a86:	ff 10                	callq  *(%rax)

0000000034800a88 <.LBB5_7>:
    34800a88:	4c 89 64 24 28       	mov    %r12,0x28(%rsp)
    34800a8d:	49 8b 4c 24 18       	mov    0x18(%r12),%rcx
    34800a92:	48 8d 7c 24 0e       	lea    0xe(%rsp),%rdi
    34800a97:	be 01 00 00 00       	mov    $0x1,%esi
    34800a9c:	ba 0c 00 00 00       	mov    $0xc,%edx
    34800aa1:	e8 4a ac 01 00       	callq  3481b6f0 <fwrite>
    34800aa6:	48 83 f8 0c          	cmp    $0xc,%rax
    34800aaa:	0f 84 12 00 00 00    	je     34800ac2 <.LBB5_9>
    34800ab0:	48 8b 03             	mov    (%rbx),%rax
    34800ab3:	c7 40 28 26 00 00 00 	movl   $0x26,0x28(%rax)
    34800aba:	48 8b 03             	mov    (%rbx),%rax
    34800abd:	48 89 df             	mov    %rbx,%rdi
    34800ac0:	ff 10                	callq  *(%rax)

0000000034800ac2 <.LBB5_9>:
    34800ac2:	48 8b 54 24 30       	mov    0x30(%rsp),%rdx
    34800ac7:	85 d2                	test   %edx,%edx
    34800ac9:	0f 84 12 00 00 00    	je     34800ae1 <.LBB5_11>
    34800acf:	b9 03 00 00 00       	mov    $0x3,%ecx
    34800ad4:	48 89 df             	mov    %rbx,%rdi
    34800ad7:	48 8b 74 24 28       	mov    0x28(%rsp),%rsi
    34800adc:	e8 2f 02 00 00       	callq  34800d10 <write_colormap>

0000000034800ae1 <.LBB5_11>:
    34800ae1:	48 83 c4 38          	add    $0x38,%rsp
    34800ae5:	5b                   	pop    %rbx
    34800ae6:	41 5c                	pop    %r12
    34800ae8:	c3                   	retq   
    34800ae9:	0f 1f 80 00 00 00 00 	nopl   0x0(%rax)

0000000034800af0 <write_bmp_header>:
    34800af0:	41 54                	push   %r12
    34800af2:	53                   	push   %rbx
    34800af3:	48 83 ec 48          	sub    $0x48,%rsp
    34800af7:	49 89 f4             	mov    %rsi,%r12
    34800afa:	48 89 fb             	mov    %rdi,%rbx
    34800afd:	83 7b 40 02          	cmpl   $0x2,0x40(%rbx)
    34800b01:	0f 85 1d 00 00 00    	jne    34800b24 <.LBB6_1>
    34800b07:	31 d2                	xor    %edx,%edx
    34800b09:	83 7b 6c 00          	cmpl   $0x0,0x6c(%rbx)
    34800b0d:	0f 95 c1             	setne  %cl
    34800b10:	b0 18                	mov    $0x18,%al
    34800b12:	0f 84 02 00 00 00    	je     34800b1a <.LBB6_4>
    34800b18:	b0 08                	mov    $0x8,%al

0000000034800b1a <.LBB6_4>:
    34800b1a:	88 ca                	mov    %cl,%dl
    34800b1c:	c1 e2 08             	shl    $0x8,%edx
    34800b1f:	e9 07 00 00 00       	jmpq   34800b2b <.LBB6_5>

0000000034800b24 <.LBB6_1>:
    34800b24:	ba 00 01 00 00       	mov    $0x100,%edx
    34800b29:	b0 08                	mov    $0x8,%al

0000000034800b2b <.LBB6_5>:
    34800b2b:	48 89 d7             	mov    %rdx,%rdi
    34800b2e:	8d 14 bd 00 00 00 00 	lea    0x0(,%rdi,4),%edx
    34800b35:	83 ca 36             	or     $0x36,%edx
    34800b38:	41 8b 74 24 44       	mov    0x44(%r12),%esi
    34800b3d:	8b 8b 8c 00 00 00    	mov    0x8c(%rbx),%ecx
    34800b43:	48 0f af ce          	imul   %rsi,%rcx
    34800b47:	48 01 d1             	add    %rdx,%rcx
    34800b4a:	c7 44 24 08 00 00 00 	movl   $0x0,0x8(%rsp)
    34800b51:	00 
    34800b52:	0f 57 c0             	xorps  %xmm0,%xmm0
    34800b55:	0f 29 44 24 10       	movaps %xmm0,0x10(%rsp)
    34800b5a:	0f 29 44 24 20       	movaps %xmm0,0x20(%rsp)
    34800b5f:	48 c7 44 24 30 00 00 	movq   $0x0,0x30(%rsp)
    34800b66:	00 00 
    34800b68:	66 c7 44 24 02 42 4d 	movw   $0x4d42,0x2(%rsp)
    34800b6f:	88 4c 24 04          	mov    %cl,0x4(%rsp)
    34800b73:	88 6c 24 05          	mov    %ch,0x5(%rsp)
    34800b77:	48 89 ca             	mov    %rcx,%rdx
    34800b7a:	48 c1 ea 10          	shr    $0x10,%rdx
    34800b7e:	88 54 24 06          	mov    %dl,0x6(%rsp)
    34800b82:	48 c1 e9 18          	shr    $0x18,%rcx
    34800b86:	88 4c 24 07          	mov    %cl,0x7(%rsp)
    34800b8a:	c6 44 24 0c 36       	movb   $0x36,0xc(%rsp)
    34800b8f:	48 89 fe             	mov    %rdi,%rsi
    34800b92:	89 f9                	mov    %edi,%ecx
    34800b94:	c1 e9 06             	shr    $0x6,%ecx
    34800b97:	88 4c 24 0d          	mov    %cl,0xd(%rsp)
    34800b9b:	66 c7 44 24 0e 00 00 	movw   $0x0,0xe(%rsp)
    34800ba2:	66 c7 44 24 10 28 00 	movw   $0x28,0x10(%rsp)
    34800ba9:	8b 8b 88 00 00 00    	mov    0x88(%rbx),%ecx
    34800baf:	88 4c 24 14          	mov    %cl,0x14(%rsp)
    34800bb3:	88 6c 24 15          	mov    %ch,0x15(%rsp)
    34800bb7:	8b 8b 88 00 00 00    	mov    0x88(%rbx),%ecx
    34800bbd:	89 ca                	mov    %ecx,%edx
    34800bbf:	c1 ea 10             	shr    $0x10,%edx
    34800bc2:	88 54 24 16          	mov    %dl,0x16(%rsp)
    34800bc6:	c1 e9 18             	shr    $0x18,%ecx
    34800bc9:	88 4c 24 17          	mov    %cl,0x17(%rsp)
    34800bcd:	8b 8b 8c 00 00 00    	mov    0x8c(%rbx),%ecx
    34800bd3:	88 4c 24 18          	mov    %cl,0x18(%rsp)
    34800bd7:	88 6c 24 19          	mov    %ch,0x19(%rsp)
    34800bdb:	8b 8b 8c 00 00 00    	mov    0x8c(%rbx),%ecx
    34800be1:	89 ca                	mov    %ecx,%edx
    34800be3:	c1 ea 10             	shr    $0x10,%edx
    34800be6:	88 54 24 1a          	mov    %dl,0x1a(%rsp)
    34800bea:	c1 e9 18             	shr    $0x18,%ecx
    34800bed:	88 4c 24 1b          	mov    %cl,0x1b(%rsp)
    34800bf1:	66 c7 44 24 1c 01 00 	movw   $0x1,0x1c(%rsp)
    34800bf8:	88 44 24 1e          	mov    %al,0x1e(%rsp)
    34800bfc:	c6 44 24 1f 00       	movb   $0x0,0x1f(%rsp)
    34800c01:	80 bb 7e 01 00 00 02 	cmpb   $0x2,0x17e(%rbx)
    34800c08:	0f 85 4d 00 00 00    	jne    34800c5b <.LBB6_7>
    34800c0e:	6b 83 80 01 00 00 64 	imul   $0x64,0x180(%rbx),%eax
    34800c15:	88 44 24 28          	mov    %al,0x28(%rsp)
    34800c19:	88 64 24 29          	mov    %ah,0x29(%rsp)
    34800c1d:	0f b7 83 80 01 00 00 	movzwl 0x180(%rbx),%eax
    34800c24:	6b c0 64             	imul   $0x64,%eax,%eax
    34800c27:	c1 e8 10             	shr    $0x10,%eax
    34800c2a:	88 44 24 2a          	mov    %al,0x2a(%rsp)
    34800c2e:	c6 44 24 2b 00       	movb   $0x0,0x2b(%rsp)
    34800c33:	0f b7 83 82 01 00 00 	movzwl 0x182(%rbx),%eax
    34800c3a:	6b c0 64             	imul   $0x64,%eax,%eax
    34800c3d:	88 44 24 2c          	mov    %al,0x2c(%rsp)
    34800c41:	88 64 24 2d          	mov    %ah,0x2d(%rsp)
    34800c45:	0f b7 83 82 01 00 00 	movzwl 0x182(%rbx),%eax
    34800c4c:	6b c0 64             	imul   $0x64,%eax,%eax
    34800c4f:	c1 e8 10             	shr    $0x10,%eax
    34800c52:	88 44 24 2e          	mov    %al,0x2e(%rsp)
    34800c56:	c6 44 24 2f 00       	movb   $0x0,0x2f(%rsp)

0000000034800c5b <.LBB6_7>:
    34800c5b:	c6 44 24 30 00       	movb   $0x0,0x30(%rsp)
    34800c60:	48 89 f0             	mov    %rsi,%rax
    34800c63:	48 89 44 24 40       	mov    %rax,0x40(%rsp)
    34800c68:	88 64 24 31          	mov    %ah,0x31(%rsp)
    34800c6c:	49 8b 4c 24 18       	mov    0x18(%r12),%rcx
    34800c71:	48 8d 7c 24 02       	lea    0x2(%rsp),%rdi
    34800c76:	be 01 00 00 00       	mov    $0x1,%esi
    34800c7b:	ba 0e 00 00 00       	mov    $0xe,%edx
    34800c80:	e8 6b aa 01 00       	callq  3481b6f0 <fwrite>
    34800c85:	48 83 f8 0e          	cmp    $0xe,%rax
    34800c89:	0f 84 12 00 00 00    	je     34800ca1 <.LBB6_9>
    34800c8f:	48 8b 03             	mov    (%rbx),%rax
    34800c92:	c7 40 28 26 00 00 00 	movl   $0x26,0x28(%rax)
    34800c99:	48 8b 03             	mov    (%rbx),%rax
    34800c9c:	48 89 df             	mov    %rbx,%rdi
    34800c9f:	ff 10                	callq  *(%rax)

0000000034800ca1 <.LBB6_9>:
    34800ca1:	4c 89 64 24 38       	mov    %r12,0x38(%rsp)
    34800ca6:	49 8b 4c 24 18       	mov    0x18(%r12),%rcx
    34800cab:	48 8d 7c 24 10       	lea    0x10(%rsp),%rdi
    34800cb0:	be 01 00 00 00       	mov    $0x1,%esi
    34800cb5:	ba 28 00 00 00       	mov    $0x28,%edx
    34800cba:	e8 31 aa 01 00       	callq  3481b6f0 <fwrite>
    34800cbf:	48 83 f8 28          	cmp    $0x28,%rax
    34800cc3:	0f 84 12 00 00 00    	je     34800cdb <.LBB6_11>
    34800cc9:	48 8b 03             	mov    (%rbx),%rax
    34800ccc:	c7 40 28 26 00 00 00 	movl   $0x26,0x28(%rax)
    34800cd3:	48 8b 03             	mov    (%rbx),%rax
    34800cd6:	48 89 df             	mov    %rbx,%rdi
    34800cd9:	ff 10                	callq  *(%rax)

0000000034800cdb <.LBB6_11>:
    34800cdb:	48 8b 54 24 40       	mov    0x40(%rsp),%rdx
    34800ce0:	85 d2                	test   %edx,%edx
    34800ce2:	0f 84 12 00 00 00    	je     34800cfa <.LBB6_13>
    34800ce8:	b9 04 00 00 00       	mov    $0x4,%ecx
    34800ced:	48 89 df             	mov    %rbx,%rdi
    34800cf0:	48 8b 74 24 38       	mov    0x38(%rsp),%rsi
    34800cf5:	e8 16 00 00 00       	callq  34800d10 <write_colormap>

0000000034800cfa <.LBB6_13>:
    34800cfa:	48 83 c4 48          	add    $0x48,%rsp
    34800cfe:	5b                   	pop    %rbx
    34800cff:	41 5c                	pop    %r12
    34800d01:	c3                   	retq   
    34800d02:	66 66 66 66 66 2e 0f 	data32 data32 data32 data32 nopw %cs:0x0(%rax,%rax,1)
    34800d09:	1f 84 00 00 00 00 00 

0000000034800d10 <write_colormap>:
    34800d10:	41 54                	push   %r12
    34800d12:	53                   	push   %rbx
    34800d13:	48 83 ec 28          	sub    $0x28,%rsp
    34800d17:	89 4c 24 04          	mov    %ecx,0x4(%rsp)
    34800d1b:	89 d3                	mov    %edx,%ebx
    34800d1d:	48 8b 87 a0 00 00 00 	mov    0xa0(%rdi),%rax
    34800d24:	4c 8b 66 18          	mov    0x18(%rsi),%r12
    34800d28:	48 89 44 24 20       	mov    %rax,0x20(%rsp)
    34800d2d:	48 85 c0             	test   %rax,%rax
    34800d30:	0f 84 a5 00 00 00    	je     34800ddb <.LBB7_7>
    34800d36:	8b 87 9c 00 00 00    	mov    0x9c(%rdi),%eax
    34800d3c:	83 bf 90 00 00 00 03 	cmpl   $0x3,0x90(%rdi)
    34800d43:	48 89 44 24 18       	mov    %rax,0x18(%rsp)
    34800d48:	4c 89 64 24 08       	mov    %r12,0x8(%rsp)
    34800d4d:	0f 85 e8 00 00 00    	jne    34800e3b <.LBB7_12>
    34800d53:	85 c0                	test   %eax,%eax
    34800d55:	0f 8e d8 01 00 00    	jle    34800f33 <.LBB7_26>
    34800d5b:	48 89 7c 24 10       	mov    %rdi,0x10(%rsp)
    34800d60:	89 1c 24             	mov    %ebx,(%rsp)
    34800d63:	31 db                	xor    %ebx,%ebx
    34800d65:	66 66 2e 0f 1f 84 00 	data32 nopw %cs:0x0(%rax,%rax,1)
    34800d6c:	00 00 00 00 

0000000034800d70 <.LBB7_4>:
    34800d70:	4c 8b 64 24 20       	mov    0x20(%rsp),%r12
    34800d75:	49 8b 44 24 10       	mov    0x10(%r12),%rax
    34800d7a:	0f b6 3c 18          	movzbl (%rax,%rbx,1),%edi
    34800d7e:	48 8b 74 24 08       	mov    0x8(%rsp),%rsi
    34800d83:	e8 28 df 01 00       	callq  3481ecb0 <putc>
    34800d88:	49 8b 44 24 08       	mov    0x8(%r12),%rax
    34800d8d:	0f b6 3c 18          	movzbl (%rax,%rbx,1),%edi
    34800d91:	48 8b 74 24 08       	mov    0x8(%rsp),%rsi
    34800d96:	e8 15 df 01 00       	callq  3481ecb0 <putc>
    34800d9b:	49 8b 04 24          	mov    (%r12),%rax
    34800d9f:	4c 8b 64 24 08       	mov    0x8(%rsp),%r12
    34800da4:	0f b6 3c 18          	movzbl (%rax,%rbx,1),%edi
    34800da8:	4c 89 e6             	mov    %r12,%rsi
    34800dab:	e8 00 df 01 00       	callq  3481ecb0 <putc>
    34800db0:	83 7c 24 04 04       	cmpl   $0x4,0x4(%rsp)
    34800db5:	0f 85 0a 00 00 00    	jne    34800dc5 <.LBB7_6>
    34800dbb:	31 ff                	xor    %edi,%edi
    34800dbd:	4c 89 e6             	mov    %r12,%rsi
    34800dc0:	e8 eb de 01 00       	callq  3481ecb0 <putc>

0000000034800dc5 <.LBB7_6>:
    34800dc5:	48 ff c3             	inc    %rbx
    34800dc8:	48 8b 4c 24 18       	mov    0x18(%rsp),%rcx
    34800dcd:	48 39 d9             	cmp    %rbx,%rcx
    34800dd0:	0f 85 9a ff ff ff    	jne    34800d70 <.LBB7_4>
    34800dd6:	e9 d9 00 00 00       	jmpq   34800eb4 <.LBB7_17>

0000000034800ddb <.LBB7_7>:
    34800ddb:	48 89 7c 24 10       	mov    %rdi,0x10(%rsp)
    34800de0:	89 1c 24             	mov    %ebx,(%rsp)
    34800de3:	31 db                	xor    %ebx,%ebx
    34800de5:	66 66 2e 0f 1f 84 00 	data32 nopw %cs:0x0(%rax,%rax,1)
    34800dec:	00 00 00 00 

0000000034800df0 <.LBB7_8>:
    34800df0:	89 df                	mov    %ebx,%edi
    34800df2:	4c 89 e6             	mov    %r12,%rsi
    34800df5:	e8 b6 de 01 00       	callq  3481ecb0 <putc>
    34800dfa:	89 df                	mov    %ebx,%edi
    34800dfc:	4c 89 e6             	mov    %r12,%rsi
    34800dff:	e8 ac de 01 00       	callq  3481ecb0 <putc>
    34800e04:	89 df                	mov    %ebx,%edi
    34800e06:	4c 89 e6             	mov    %r12,%rsi
    34800e09:	e8 a2 de 01 00       	callq  3481ecb0 <putc>
    34800e0e:	83 7c 24 04 04       	cmpl   $0x4,0x4(%rsp)
    34800e13:	0f 85 0a 00 00 00    	jne    34800e23 <.LBB7_10>
    34800e19:	31 ff                	xor    %edi,%edi
    34800e1b:	4c 89 e6             	mov    %r12,%rsi
    34800e1e:	e8 8d de 01 00       	callq  3481ecb0 <putc>

0000000034800e23 <.LBB7_10>:
    34800e23:	ff c3                	inc    %ebx
    34800e25:	81 fb 00 01 00 00    	cmp    $0x100,%ebx
    34800e2b:	0f 85 bf ff ff ff    	jne    34800df0 <.LBB7_8>
    34800e31:	b9 00 01 00 00       	mov    $0x100,%ecx
    34800e36:	e9 79 00 00 00       	jmpq   34800eb4 <.LBB7_17>

0000000034800e3b <.LBB7_12>:
    34800e3b:	85 c0                	test   %eax,%eax
    34800e3d:	0f 8e f0 00 00 00    	jle    34800f33 <.LBB7_26>
    34800e43:	48 89 7c 24 10       	mov    %rdi,0x10(%rsp)
    34800e48:	89 1c 24             	mov    %ebx,(%rsp)
    34800e4b:	31 db                	xor    %ebx,%ebx
    34800e4d:	0f 1f 00             	nopl   (%rax)

0000000034800e50 <.LBB7_14>:
    34800e50:	4c 8b 64 24 20       	mov    0x20(%rsp),%r12
    34800e55:	49 8b 04 24          	mov    (%r12),%rax
    34800e59:	0f b6 3c 18          	movzbl (%rax,%rbx,1),%edi
    34800e5d:	48 8b 74 24 08       	mov    0x8(%rsp),%rsi
    34800e62:	e8 49 de 01 00       	callq  3481ecb0 <putc>
    34800e67:	49 8b 04 24          	mov    (%r12),%rax
    34800e6b:	0f b6 3c 18          	movzbl (%rax,%rbx,1),%edi
    34800e6f:	48 8b 74 24 08       	mov    0x8(%rsp),%rsi
    34800e74:	e8 37 de 01 00       	callq  3481ecb0 <putc>
    34800e79:	49 8b 04 24          	mov    (%r12),%rax
    34800e7d:	4c 8b 64 24 08       	mov    0x8(%rsp),%r12
    34800e82:	0f b6 3c 18          	movzbl (%rax,%rbx,1),%edi
    34800e86:	4c 89 e6             	mov    %r12,%rsi
    34800e89:	e8 22 de 01 00       	callq  3481ecb0 <putc>
    34800e8e:	83 7c 24 04 04       	cmpl   $0x4,0x4(%rsp)
    34800e93:	0f 85 0a 00 00 00    	jne    34800ea3 <.LBB7_16>
    34800e99:	31 ff                	xor    %edi,%edi
    34800e9b:	4c 89 e6             	mov    %r12,%rsi
    34800e9e:	e8 0d de 01 00       	callq  3481ecb0 <putc>

0000000034800ea3 <.LBB7_16>:
    34800ea3:	48 ff c3             	inc    %rbx
    34800ea6:	48 8b 4c 24 18       	mov    0x18(%rsp),%rcx
    34800eab:	48 39 d9             	cmp    %rbx,%rcx
    34800eae:	0f 85 9c ff ff ff    	jne    34800e50 <.LBB7_14>

0000000034800eb4 <.LBB7_17>:
    34800eb4:	8b 1c 24             	mov    (%rsp),%ebx
    34800eb7:	48 8b 7c 24 10       	mov    0x10(%rsp),%rdi
    34800ebc:	39 d9                	cmp    %ebx,%ecx
    34800ebe:	0f 8e 1f 00 00 00    	jle    34800ee3 <.LBB7_19>

0000000034800ec4 <.LBB7_18>:
    34800ec4:	48 8b 07             	mov    (%rdi),%rax
    34800ec7:	c7 40 28 10 04 00 00 	movl   $0x410,0x28(%rax)
    34800ece:	48 8b 07             	mov    (%rdi),%rax
    34800ed1:	89 48 2c             	mov    %ecx,0x2c(%rax)
    34800ed4:	48 8b 07             	mov    (%rdi),%rax
    34800ed7:	48 89 4c 24 18       	mov    %rcx,0x18(%rsp)
    34800edc:	ff 10                	callq  *(%rax)
    34800ede:	48 8b 4c 24 18       	mov    0x18(%rsp),%rcx

0000000034800ee3 <.LBB7_19>:
    34800ee3:	39 d9                	cmp    %ebx,%ecx
    34800ee5:	0f 8d 40 00 00 00    	jge    34800f2b <.LBB7_24>
    34800eeb:	29 cb                	sub    %ecx,%ebx
    34800eed:	0f 1f 00             	nopl   (%rax)

0000000034800ef0 <.LBB7_21>:
    34800ef0:	31 ff                	xor    %edi,%edi
    34800ef2:	4c 89 e6             	mov    %r12,%rsi
    34800ef5:	e8 b6 dd 01 00       	callq  3481ecb0 <putc>
    34800efa:	31 ff                	xor    %edi,%edi
    34800efc:	4c 89 e6             	mov    %r12,%rsi
    34800eff:	e8 ac dd 01 00       	callq  3481ecb0 <putc>
    34800f04:	31 ff                	xor    %edi,%edi
    34800f06:	4c 89 e6             	mov    %r12,%rsi
    34800f09:	e8 a2 dd 01 00       	callq  3481ecb0 <putc>
    34800f0e:	83 7c 24 04 04       	cmpl   $0x4,0x4(%rsp)
    34800f13:	0f 85 0a 00 00 00    	jne    34800f23 <.LBB7_23>
    34800f19:	31 ff                	xor    %edi,%edi
    34800f1b:	4c 89 e6             	mov    %r12,%rsi
    34800f1e:	e8 8d dd 01 00       	callq  3481ecb0 <putc>

0000000034800f23 <.LBB7_23>:
    34800f23:	ff cb                	dec    %ebx
    34800f25:	0f 85 c5 ff ff ff    	jne    34800ef0 <.LBB7_21>

0000000034800f2b <.LBB7_24>:
    34800f2b:	48 83 c4 28          	add    $0x28,%rsp
    34800f2f:	5b                   	pop    %rbx
    34800f30:	41 5c                	pop    %r12
    34800f32:	c3                   	retq   

0000000034800f33 <.LBB7_26>:
    34800f33:	31 c9                	xor    %ecx,%ecx
    34800f35:	39 d9                	cmp    %ebx,%ecx
    34800f37:	0f 8f 87 ff ff ff    	jg     34800ec4 <.LBB7_18>
    34800f3d:	e9 a1 ff ff ff       	jmpq   34800ee3 <.LBB7_19>
    34800f42:	66 2e 0f 1f 84 00 00 	nopw   %cs:0x0(%rax,%rax,1)
    34800f49:	00 00 00 
    34800f4c:	0f 1f 40 00          	nopl   0x0(%rax)

0000000034800f50 <jpeg_CreateDecompress>:
    34800f50:	41 54                	push   %r12
    34800f52:	53                   	push   %rbx
    34800f53:	50                   	push   %rax
    34800f54:	49 89 d4             	mov    %rdx,%r12
    34800f57:	48 89 fb             	mov    %rdi,%rbx
    34800f5a:	48 c7 43 08 00 00 00 	movq   $0x0,0x8(%rbx)
    34800f61:	00 
    34800f62:	83 fe 5a             	cmp    $0x5a,%esi
    34800f65:	0f 84 22 00 00 00    	je     34800f8d <.LBB0_2>
    34800f6b:	48 8b 03             	mov    (%rbx),%rax
    34800f6e:	c7 40 28 0d 00 00 00 	movl   $0xd,0x28(%rax)
    34800f75:	48 8b 03             	mov    (%rbx),%rax
    34800f78:	c7 40 2c 5a 00 00 00 	movl   $0x5a,0x2c(%rax)
    34800f7f:	48 8b 03             	mov    (%rbx),%rax
    34800f82:	89 70 30             	mov    %esi,0x30(%rax)
    34800f85:	48 8b 03             	mov    (%rbx),%rax
    34800f88:	48 89 df             	mov    %rbx,%rdi
    34800f8b:	ff 10                	callq  *(%rax)

0000000034800f8d <.LBB0_2>:
    34800f8d:	49 81 fc 98 02 00 00 	cmp    $0x298,%r12
    34800f94:	0f 84 23 00 00 00    	je     34800fbd <.LBB0_4>
    34800f9a:	48 8b 03             	mov    (%rbx),%rax
    34800f9d:	c7 40 28 16 00 00 00 	movl   $0x16,0x28(%rax)
    34800fa4:	48 8b 03             	mov    (%rbx),%rax
    34800fa7:	c7 40 2c 98 02 00 00 	movl   $0x298,0x2c(%rax)
    34800fae:	48 8b 03             	mov    (%rbx),%rax
    34800fb1:	44 89 60 30          	mov    %r12d,0x30(%rax)
    34800fb5:	48 8b 03             	mov    (%rbx),%rax
    34800fb8:	48 89 df             	mov    %rbx,%rdi
    34800fbb:	ff 10                	callq  *(%rax)

0000000034800fbd <.LBB0_4>:
    34800fbd:	4c 8b 23             	mov    (%rbx),%r12
    34800fc0:	48 8b 43 18          	mov    0x18(%rbx),%rax
    34800fc4:	48 89 04 24          	mov    %rax,(%rsp)
    34800fc8:	48 8d 7b 08          	lea    0x8(%rbx),%rdi
    34800fcc:	31 f6                	xor    %esi,%esi
    34800fce:	ba 90 02 00 00       	mov    $0x290,%edx
    34800fd3:	e8 bf db 01 00       	callq  3481eb97 <memset>
    34800fd8:	4c 89 23             	mov    %r12,(%rbx)
    34800fdb:	48 8b 04 24          	mov    (%rsp),%rax
    34800fdf:	48 89 43 18          	mov    %rax,0x18(%rbx)
    34800fe3:	c7 43 20 01 00 00 00 	movl   $0x1,0x20(%rbx)
    34800fea:	48 89 df             	mov    %rbx,%rdi
    34800fed:	e8 5e 9c 00 00       	callq  3480ac50 <jinit_memory_mgr>
    34800ff2:	48 c7 43 10 00 00 00 	movq   $0x0,0x10(%rbx)
    34800ff9:	00 
    34800ffa:	48 c7 43 28 00 00 00 	movq   $0x0,0x28(%rbx)
    34801001:	00 
    34801002:	0f 57 c0             	xorps  %xmm0,%xmm0
    34801005:	0f 11 83 d8 00 00 00 	movups %xmm0,0xd8(%rbx)
    3480100c:	0f 11 83 c8 00 00 00 	movups %xmm0,0xc8(%rbx)
    34801013:	b8 21 00 00 00       	mov    $0x21,%eax
    34801018:	0f 1f 84 00 00 00 00 	nopl   0x0(%rax,%rax,1)
    3480101f:	00 

0000000034801020 <.LBB0_5>:
    34801020:	48 c7 44 c3 e0 00 00 	movq   $0x0,-0x20(%rbx,%rax,8)
    34801027:	00 00 
    34801029:	48 c7 04 c3 00 00 00 	movq   $0x0,(%rbx,%rax,8)
    34801030:	00 
    34801031:	48 ff c0             	inc    %rax
    34801034:	48 83 f8 25          	cmp    $0x25,%rax
    34801038:	0f 85 e2 ff ff ff    	jne    34801020 <.LBB0_5>
    3480103e:	48 c7 83 98 01 00 00 	movq   $0x0,0x198(%rbx)
    34801045:	00 00 00 00 
    34801049:	48 89 df             	mov    %rbx,%rdi
    3480104c:	e8 4f 1e 00 00       	callq  34802ea0 <jinit_marker_reader>
    34801051:	48 89 df             	mov    %rbx,%rdi
    34801054:	e8 b7 10 00 00       	callq  34802110 <jinit_input_controller>
    34801059:	c7 43 24 c8 00 00 00 	movl   $0xc8,0x24(%rbx)
    34801060:	48 83 c4 08          	add    $0x8,%rsp
    34801064:	5b                   	pop    %rbx
    34801065:	41 5c                	pop    %r12
    34801067:	c3                   	retq   
    34801068:	0f 1f 84 00 00 00 00 	nopl   0x0(%rax,%rax,1)
    3480106f:	00 

0000000034801070 <jpeg_destroy_decompress>:
    34801070:	e9 7b b0 00 00       	jmpq   3480c0f0 <jpeg_destroy>
    34801075:	66 66 2e 0f 1f 84 00 	data32 nopw %cs:0x0(%rax,%rax,1)
    3480107c:	00 00 00 00 

0000000034801080 <jpeg_abort_decompress>:
    34801080:	e9 1b b0 00 00       	jmpq   3480c0a0 <jpeg_abort>
    34801085:	66 66 2e 0f 1f 84 00 	data32 nopw %cs:0x0(%rax,%rax,1)
    3480108c:	00 00 00 00 

0000000034801090 <jpeg_read_header>:
    34801090:	41 54                	push   %r12
    34801092:	53                   	push   %rbx
    34801093:	50                   	push   %rax
    34801094:	41 89 f4             	mov    %esi,%r12d
    34801097:	48 89 fb             	mov    %rdi,%rbx
    3480109a:	8b 43 24             	mov    0x24(%rbx),%eax
    3480109d:	83 e0 fe             	and    $0xfffffffe,%eax
    348010a0:	3d c8 00 00 00       	cmp    $0xc8,%eax
    348010a5:	0f 84 1b 00 00 00    	je     348010c6 <.LBB3_2>
    348010ab:	48 8b 03             	mov    (%rbx),%rax
    348010ae:	c7 40 28 15 00 00 00 	movl   $0x15,0x28(%rax)
    348010b5:	8b 43 24             	mov    0x24(%rbx),%eax
    348010b8:	48 8b 0b             	mov    (%rbx),%rcx
    348010bb:	89 41 2c             	mov    %eax,0x2c(%rcx)
    348010be:	48 8b 03             	mov    (%rbx),%rax
    348010c1:	48 89 df             	mov    %rbx,%rdi
    348010c4:	ff 10                	callq  *(%rax)

00000000348010c6 <.LBB3_2>:
    348010c6:	48 89 df             	mov    %rbx,%rdi
    348010c9:	e8 52 00 00 00       	callq  34801120 <jpeg_consume_input>
    348010ce:	83 f8 02             	cmp    $0x2,%eax
    348010d1:	0f 84 13 00 00 00    	je     348010ea <.LBB3_5>
    348010d7:	83 f8 01             	cmp    $0x1,%eax
    348010da:	0f 85 32 00 00 00    	jne    34801112 <.LBB3_8>
    348010e0:	b8 01 00 00 00       	mov    $0x1,%eax
    348010e5:	e9 28 00 00 00       	jmpq   34801112 <.LBB3_8>

00000000348010ea <.LBB3_5>:
    348010ea:	45 85 e4             	test   %r12d,%r12d
    348010ed:	0f 84 12 00 00 00    	je     34801105 <.LBB3_7>
    348010f3:	48 8b 03             	mov    (%rbx),%rax
    348010f6:	c7 40 28 35 00 00 00 	movl   $0x35,0x28(%rax)
    348010fd:	48 8b 03             	mov    (%rbx),%rax
    34801100:	48 89 df             	mov    %rbx,%rdi
    34801103:	ff 10                	callq  *(%rax)

0000000034801105 <.LBB3_7>:
    34801105:	48 89 df             	mov    %rbx,%rdi
    34801108:	e8 93 af 00 00       	callq  3480c0a0 <jpeg_abort>
    3480110d:	b8 02 00 00 00       	mov    $0x2,%eax

0000000034801112 <.LBB3_8>:
    34801112:	48 83 c4 08          	add    $0x8,%rsp
    34801116:	5b                   	pop    %rbx
    34801117:	41 5c                	pop    %r12
    34801119:	c3                   	retq   
    3480111a:	66 0f 1f 44 00 00    	nopw   0x0(%rax,%rax,1)

0000000034801120 <jpeg_consume_input>:
    34801120:	53                   	push   %rbx
    34801121:	48 89 fb             	mov    %rdi,%rbx
    34801124:	8b 43 24             	mov    0x24(%rbx),%eax
    34801127:	3d ca 00 00 00       	cmp    $0xca,%eax
    3480112c:	0f 8e 1c 00 00 00    	jle    3480114e <.LBB4_1>
    34801132:	8d 88 35 ff ff ff    	lea    -0xcb(%rax),%ecx
    34801138:	83 f9 06             	cmp    $0x6,%ecx
    3480113b:	0f 83 38 00 00 00    	jae    34801179 <.LBB4_6>

0000000034801141 <.LBB4_7>:
    34801141:	48 8b 83 60 02 00 00 	mov    0x260(%rbx),%rax
    34801148:	48 89 df             	mov    %rbx,%rdi
    3480114b:	5b                   	pop    %rbx
    3480114c:	ff 20                	jmpq   *(%rax)

000000003480114e <.LBB4_1>:
    3480114e:	3d c8 00 00 00       	cmp    $0xc8,%eax
    34801153:	0f 84 4a 00 00 00    	je     348011a3 <.LBB4_8>
    34801159:	3d c9 00 00 00       	cmp    $0xc9,%eax
    3480115e:	0f 84 5d 00 00 00    	je     348011c1 <.LBB4_9>
    34801164:	3d ca 00 00 00       	cmp    $0xca,%eax
    34801169:	b8 01 00 00 00       	mov    $0x1,%eax
    3480116e:	0f 84 76 00 00 00    	je     348011ea <.LBB4_11>
    34801174:	e9 0b 00 00 00       	jmpq   34801184 <.LBB4_4>

0000000034801179 <.LBB4_6>:
    34801179:	3d d2 00 00 00       	cmp    $0xd2,%eax
    3480117e:	0f 84 bd ff ff ff    	je     34801141 <.LBB4_7>

0000000034801184 <.LBB4_4>:
    34801184:	48 8b 03             	mov    (%rbx),%rax
    34801187:	c7 40 28 15 00 00 00 	movl   $0x15,0x28(%rax)
    3480118e:	8b 43 24             	mov    0x24(%rbx),%eax
    34801191:	48 8b 0b             	mov    (%rbx),%rcx
    34801194:	89 41 2c             	mov    %eax,0x2c(%rcx)
    34801197:	48 8b 03             	mov    (%rbx),%rax
    3480119a:	48 89 df             	mov    %rbx,%rdi
    3480119d:	ff 10                	callq  *(%rax)
    3480119f:	31 c0                	xor    %eax,%eax
    348011a1:	5b                   	pop    %rbx
    348011a2:	c3                   	retq   

00000000348011a3 <.LBB4_8>:
    348011a3:	48 8b 83 60 02 00 00 	mov    0x260(%rbx),%rax
    348011aa:	48 89 df             	mov    %rbx,%rdi
    348011ad:	ff 50 08             	callq  *0x8(%rax)
    348011b0:	48 8b 43 28          	mov    0x28(%rbx),%rax
    348011b4:	48 89 df             	mov    %rbx,%rdi
    348011b7:	ff 50 10             	callq  *0x10(%rax)
    348011ba:	c7 43 24 c9 00 00 00 	movl   $0xc9,0x24(%rbx)

00000000348011c1 <.LBB4_9>:
    348011c1:	48 8b 83 60 02 00 00 	mov    0x260(%rbx),%rax
    348011c8:	48 89 df             	mov    %rbx,%rdi
    348011cb:	ff 10                	callq  *(%rax)
    348011cd:	83 f8 01             	cmp    $0x1,%eax
    348011d0:	0f 85 14 00 00 00    	jne    348011ea <.LBB4_11>
    348011d6:	48 89 df             	mov    %rbx,%rdi
    348011d9:	e8 12 00 00 00       	callq  348011f0 <default_decompress_parms>
    348011de:	c7 43 24 ca 00 00 00 	movl   $0xca,0x24(%rbx)
    348011e5:	b8 01 00 00 00       	mov    $0x1,%eax

00000000348011ea <.LBB4_11>:
    348011ea:	5b                   	pop    %rbx
    348011eb:	c3                   	retq   
    348011ec:	0f 1f 40 00          	nopl   0x0(%rax)

00000000348011f0 <default_decompress_parms>:
    348011f0:	41 54                	push   %r12
    348011f2:	53                   	push   %rbx
    348011f3:	50                   	push   %rax
    348011f4:	48 89 fb             	mov    %rdi,%rbx
    348011f7:	8b 43 38             	mov    0x38(%rbx),%eax
    348011fa:	83 f8 04             	cmp    $0x4,%eax
    348011fd:	0f 84 2a 00 00 00    	je     3480122d <.LBB5_4>
    34801203:	83 f8 03             	cmp    $0x3,%eax
    34801206:	0f 84 79 00 00 00    	je     34801285 <.LBB5_9>
    3480120c:	31 f6                	xor    %esi,%esi
    3480120e:	83 f8 01             	cmp    $0x1,%eax
    34801211:	41 bc 00 00 00 00    	mov    $0x0,%r12d
    34801217:	0f 85 1a 01 00 00    	jne    34801337 <.LBB5_36>
    3480121d:	be 01 00 00 00       	mov    $0x1,%esi
    34801222:	41 bc 01 00 00 00    	mov    $0x1,%r12d
    34801228:	e9 0a 01 00 00       	jmpq   34801337 <.LBB5_36>

000000003480122d <.LBB5_4>:
    3480122d:	41 bc 04 00 00 00    	mov    $0x4,%r12d
    34801233:	83 bb 84 01 00 00 00 	cmpl   $0x0,0x184(%rbx)
    3480123a:	0f 84 82 00 00 00    	je     348012c2 <.LBB5_21>
    34801240:	8a 83 88 01 00 00    	mov    0x188(%rbx),%al
    34801246:	84 c0                	test   %al,%al
    34801248:	0f 84 74 00 00 00    	je     348012c2 <.LBB5_21>
    3480124e:	3c 02                	cmp    $0x2,%al
    34801250:	0f 84 25 00 00 00    	je     3480127b <.LBB5_8>
    34801256:	48 8b 03             	mov    (%rbx),%rax
    34801259:	c7 40 28 74 00 00 00 	movl   $0x74,0x28(%rax)
    34801260:	0f b6 83 88 01 00 00 	movzbl 0x188(%rbx),%eax
    34801267:	48 8b 0b             	mov    (%rbx),%rcx
    3480126a:	89 41 2c             	mov    %eax,0x2c(%rcx)
    3480126d:	48 8b 03             	mov    (%rbx),%rax
    34801270:	be ff ff ff ff       	mov    $0xffffffff,%esi
    34801275:	48 89 df             	mov    %rbx,%rdi
    34801278:	ff 50 08             	callq  *0x8(%rax)

000000003480127b <.LBB5_8>:
    3480127b:	be 05 00 00 00       	mov    $0x5,%esi
    34801280:	e9 b2 00 00 00       	jmpq   34801337 <.LBB5_36>

0000000034801285 <.LBB5_9>:
    34801285:	48 8b 93 30 01 00 00 	mov    0x130(%rbx),%rdx
    3480128c:	8b 02                	mov    (%rdx),%eax
    3480128e:	8b 4a 60             	mov    0x60(%rdx),%ecx
    34801291:	8b 92 c0 00 00 00    	mov    0xc0(%rdx),%edx
    34801297:	83 f8 01             	cmp    $0x1,%eax
    3480129a:	41 bc 02 00 00 00    	mov    $0x2,%r12d
    348012a0:	0f 85 26 00 00 00    	jne    348012cc <.LBB5_13>
    348012a6:	83 f9 02             	cmp    $0x2,%ecx
    348012a9:	0f 85 1d 00 00 00    	jne    348012cc <.LBB5_13>
    348012af:	83 fa 03             	cmp    $0x3,%edx
    348012b2:	0f 85 14 00 00 00    	jne    348012cc <.LBB5_13>

00000000348012b8 <.LBB5_35>:
    348012b8:	be 03 00 00 00       	mov    $0x3,%esi
    348012bd:	e9 75 00 00 00       	jmpq   34801337 <.LBB5_36>

00000000348012c2 <.LBB5_21>:
    348012c2:	be 04 00 00 00       	mov    $0x4,%esi
    348012c7:	e9 6b 00 00 00       	jmpq   34801337 <.LBB5_36>

00000000348012cc <.LBB5_13>:
    348012cc:	83 f8 01             	cmp    $0x1,%eax
    348012cf:	0f 85 17 00 00 00    	jne    348012ec <.LBB5_16>
    348012d5:	83 f9 22             	cmp    $0x22,%ecx
    348012d8:	0f 85 0e 00 00 00    	jne    348012ec <.LBB5_16>
    348012de:	be 07 00 00 00       	mov    $0x7,%esi
    348012e3:	83 fa 23             	cmp    $0x23,%edx
    348012e6:	0f 84 4b 00 00 00    	je     34801337 <.LBB5_36>

00000000348012ec <.LBB5_16>:
    348012ec:	83 f8 52             	cmp    $0x52,%eax
    348012ef:	41 bc 02 00 00 00    	mov    $0x2,%r12d
    348012f5:	0f 85 1c 00 00 00    	jne    34801317 <.LBB5_22>
    348012fb:	83 f9 47             	cmp    $0x47,%ecx
    348012fe:	0f 85 13 00 00 00    	jne    34801317 <.LBB5_22>
    34801304:	83 fa 42             	cmp    $0x42,%edx
    34801307:	0f 85 0a 00 00 00    	jne    34801317 <.LBB5_22>

000000003480130d <.LBB5_19>:
    3480130d:	be 02 00 00 00       	mov    $0x2,%esi
    34801312:	e9 20 00 00 00       	jmpq   34801337 <.LBB5_36>

0000000034801317 <.LBB5_22>:
    34801317:	83 f8 72             	cmp    $0x72,%eax
    3480131a:	0f 85 8a 00 00 00    	jne    348013aa <.LBB5_25>
    34801320:	83 f9 67             	cmp    $0x67,%ecx
    34801323:	0f 85 81 00 00 00    	jne    348013aa <.LBB5_25>
    34801329:	be 06 00 00 00       	mov    $0x6,%esi
    3480132e:	83 fa 62             	cmp    $0x62,%edx
    34801331:	0f 85 73 00 00 00    	jne    348013aa <.LBB5_25>

0000000034801337 <.LBB5_36>:
    34801337:	89 73 3c             	mov    %esi,0x3c(%rbx)
    3480133a:	44 89 63 40          	mov    %r12d,0x40(%rbx)
    3480133e:	8b 83 2c 02 00 00    	mov    0x22c(%rbx),%eax
    34801344:	89 43 44             	mov    %eax,0x44(%rbx)
    34801347:	89 43 48             	mov    %eax,0x48(%rbx)
    3480134a:	48 b8 00 00 00 00 00 	movabs $0x3ff0000000000000,%rax
    34801351:	00 f0 3f 
    34801354:	48 89 43 50          	mov    %rax,0x50(%rbx)
    34801358:	48 c7 43 58 00 00 00 	movq   $0x0,0x58(%rbx)
    3480135f:	00 
    34801360:	48 b8 00 00 00 00 01 	movabs $0x100000000,%rax
    34801367:	00 00 00 
    3480136a:	48 89 43 60          	mov    %rax,0x60(%rbx)
    3480136e:	48 c7 43 68 01 00 00 	movq   $0x1,0x68(%rbx)
    34801375:	00 
    34801376:	48 b8 02 00 00 00 01 	movabs $0x100000002,%rax
    3480137d:	00 00 00 
    34801380:	48 89 43 70          	mov    %rax,0x70(%rbx)
    34801384:	48 c7 43 78 00 01 00 	movq   $0x100,0x78(%rbx)
    3480138b:	00 
    3480138c:	48 c7 83 a0 00 00 00 	movq   $0x0,0xa0(%rbx)
    34801393:	00 00 00 00 
    34801397:	48 c7 83 80 00 00 00 	movq   $0x0,0x80(%rbx)
    3480139e:	00 00 00 00 
    348013a2:	48 83 c4 08          	add    $0x8,%rsp
    348013a6:	5b                   	pop    %rbx
    348013a7:	41 5c                	pop    %r12
    348013a9:	c3                   	retq   

00000000348013aa <.LBB5_25>:
    348013aa:	83 bb 78 01 00 00 00 	cmpl   $0x0,0x178(%rbx)
    348013b1:	0f 85 01 ff ff ff    	jne    348012b8 <.LBB5_35>
    348013b7:	83 bb 84 01 00 00 00 	cmpl   $0x0,0x184(%rbx)
    348013be:	0f 84 3a 00 00 00    	je     348013fe <.LBB5_31>
    348013c4:	8a 83 88 01 00 00    	mov    0x188(%rbx),%al
    348013ca:	84 c0                	test   %al,%al
    348013cc:	0f 84 3b ff ff ff    	je     3480130d <.LBB5_19>
    348013d2:	3c 01                	cmp    $0x1,%al
    348013d4:	0f 84 de fe ff ff    	je     348012b8 <.LBB5_35>
    348013da:	48 8b 03             	mov    (%rbx),%rax
    348013dd:	c7 40 28 74 00 00 00 	movl   $0x74,0x28(%rax)
    348013e4:	0f b6 83 88 01 00 00 	movzbl 0x188(%rbx),%eax
    348013eb:	48 8b 0b             	mov    (%rbx),%rcx
    348013ee:	89 41 2c             	mov    %eax,0x2c(%rcx)
    348013f1:	48 8b 03             	mov    (%rbx),%rax
    348013f4:	be ff ff ff ff       	mov    $0xffffffff,%esi
    348013f9:	e9 1e 00 00 00       	jmpq   3480141c <.LBB5_34>

00000000348013fe <.LBB5_31>:
    348013fe:	48 8b 33             	mov    (%rbx),%rsi
    34801401:	89 46 2c             	mov    %eax,0x2c(%rsi)
    34801404:	89 4e 30             	mov    %ecx,0x30(%rsi)
    34801407:	89 56 34             	mov    %edx,0x34(%rsi)
    3480140a:	48 8b 03             	mov    (%rbx),%rax
    3480140d:	c7 40 28 71 00 00 00 	movl   $0x71,0x28(%rax)
    34801414:	48 8b 03             	mov    (%rbx),%rax
    34801417:	be 01 00 00 00       	mov    $0x1,%esi

000000003480141c <.LBB5_34>:
    3480141c:	48 89 df             	mov    %rbx,%rdi
    3480141f:	ff 50 08             	callq  *0x8(%rax)
    34801422:	e9 91 fe ff ff       	jmpq   348012b8 <.LBB5_35>
    34801427:	66 0f 1f 84 00 00 00 	nopw   0x0(%rax,%rax,1)
    3480142e:	00 00 

0000000034801430 <jpeg_input_complete>:
    34801430:	53                   	push   %rbx
    34801431:	48 89 fb             	mov    %rdi,%rbx
    34801434:	b8 38 ff ff ff       	mov    $0xffffff38,%eax
    34801439:	03 43 24             	add    0x24(%rbx),%eax
    3480143c:	83 f8 0b             	cmp    $0xb,%eax
    3480143f:	0f 82 1b 00 00 00    	jb     34801460 <.LBB6_2>
    34801445:	48 8b 03             	mov    (%rbx),%rax
    34801448:	c7 40 28 15 00 00 00 	movl   $0x15,0x28(%rax)
    3480144f:	8b 43 24             	mov    0x24(%rbx),%eax
    34801452:	48 8b 0b             	mov    (%rbx),%rcx
    34801455:	89 41 2c             	mov    %eax,0x2c(%rcx)
    34801458:	48 8b 03             	mov    (%rbx),%rax
    3480145b:	48 89 df             	mov    %rbx,%rdi
    3480145e:	ff 10                	callq  *(%rax)

0000000034801460 <.LBB6_2>:
    34801460:	48 8b 83 60 02 00 00 	mov    0x260(%rbx),%rax
    34801467:	8b 40 24             	mov    0x24(%rax),%eax
    3480146a:	5b                   	pop    %rbx
    3480146b:	c3                   	retq   
    3480146c:	0f 1f 40 00          	nopl   0x0(%rax)

0000000034801470 <jpeg_has_multiple_scans>:
    34801470:	53                   	push   %rbx
    34801471:	48 89 fb             	mov    %rdi,%rbx
    34801474:	b8 36 ff ff ff       	mov    $0xffffff36,%eax
    34801479:	03 43 24             	add    0x24(%rbx),%eax
    3480147c:	83 f8 09             	cmp    $0x9,%eax
    3480147f:	0f 82 1b 00 00 00    	jb     348014a0 <.LBB7_2>
    34801485:	48 8b 03             	mov    (%rbx),%rax
    34801488:	c7 40 28 15 00 00 00 	movl   $0x15,0x28(%rax)
    3480148f:	8b 43 24             	mov    0x24(%rbx),%eax
    34801492:	48 8b 0b             	mov    (%rbx),%rcx
    34801495:	89 41 2c             	mov    %eax,0x2c(%rcx)
    34801498:	48 8b 03             	mov    (%rbx),%rax
    3480149b:	48 89 df             	mov    %rbx,%rdi
    3480149e:	ff 10                	callq  *(%rax)

00000000348014a0 <.LBB7_2>:
    348014a0:	48 8b 83 60 02 00 00 	mov    0x260(%rbx),%rax
    348014a7:	8b 40 20             	mov    0x20(%rax),%eax
    348014aa:	5b                   	pop    %rbx
    348014ab:	c3                   	retq   
    348014ac:	0f 1f 40 00          	nopl   0x0(%rax)

00000000348014b0 <jpeg_finish_decompress>:
    348014b0:	53                   	push   %rbx
    348014b1:	48 89 fb             	mov    %rdi,%rbx
    348014b4:	8b 43 24             	mov    0x24(%rbx),%eax
    348014b7:	8d 88 33 ff ff ff    	lea    -0xcd(%rax),%ecx
    348014bd:	83 f9 01             	cmp    $0x1,%ecx
    348014c0:	0f 87 0d 00 00 00    	ja     348014d3 <.LBB8_6>
    348014c6:	83 7b 58 00          	cmpl   $0x0,0x58(%rbx)
    348014ca:	0f 84 45 00 00 00    	je     34801515 <.LBB8_2>
    348014d0:	8b 43 24             	mov    0x24(%rbx),%eax

00000000348014d3 <.LBB8_6>:
    348014d3:	3d d2 00 00 00       	cmp    $0xd2,%eax
    348014d8:	0f 84 72 00 00 00    	je     34801550 <.LBB8_10>
    348014de:	3d cf 00 00 00       	cmp    $0xcf,%eax
    348014e3:	0f 85 0c 00 00 00    	jne    348014f5 <.LBB8_9>
    348014e9:	c7 43 24 d2 00 00 00 	movl   $0xd2,0x24(%rbx)
    348014f0:	e9 5b 00 00 00       	jmpq   34801550 <.LBB8_10>

00000000348014f5 <.LBB8_9>:
    348014f5:	48 8b 03             	mov    (%rbx),%rax
    348014f8:	c7 40 28 15 00 00 00 	movl   $0x15,0x28(%rax)
    348014ff:	8b 43 24             	mov    0x24(%rbx),%eax
    34801502:	48 8b 0b             	mov    (%rbx),%rcx
    34801505:	89 41 2c             	mov    %eax,0x2c(%rcx)
    34801508:	48 8b 03             	mov    (%rbx),%rax
    3480150b:	48 89 df             	mov    %rbx,%rdi
    3480150e:	ff 10                	callq  *(%rax)
    34801510:	e9 3b 00 00 00       	jmpq   34801550 <.LBB8_10>

0000000034801515 <.LBB8_2>:
    34801515:	8b 83 a8 00 00 00    	mov    0xa8(%rbx),%eax
    3480151b:	3b 83 8c 00 00 00    	cmp    0x8c(%rbx),%eax
    34801521:	0f 83 12 00 00 00    	jae    34801539 <.LBB8_4>
    34801527:	48 8b 03             	mov    (%rbx),%rax
    3480152a:	c7 40 28 45 00 00 00 	movl   $0x45,0x28(%rax)
    34801531:	48 8b 03             	mov    (%rbx),%rax
    34801534:	48 89 df             	mov    %rbx,%rdi
    34801537:	ff 10                	callq  *(%rax)

0000000034801539 <.LBB8_4>:
    34801539:	48 8b 83 40 02 00 00 	mov    0x240(%rbx),%rax
    34801540:	48 89 df             	mov    %rbx,%rdi
    34801543:	ff 50 08             	callq  *0x8(%rax)
    34801546:	c7 43 24 d2 00 00 00 	movl   $0xd2,0x24(%rbx)
    3480154d:	0f 1f 00             	nopl   (%rax)

0000000034801550 <.LBB8_10>:
    34801550:	48 8b 83 60 02 00 00 	mov    0x260(%rbx),%rax
    34801557:	83 78 24 00          	cmpl   $0x0,0x24(%rax)
    3480155b:	0f 85 11 00 00 00    	jne    34801572 <.LBB8_13>
    34801561:	48 89 df             	mov    %rbx,%rdi
    34801564:	ff 10                	callq  *(%rax)
    34801566:	85 c0                	test   %eax,%eax
    34801568:	0f 85 e2 ff ff ff    	jne    34801550 <.LBB8_10>
    3480156e:	31 c0                	xor    %eax,%eax
    34801570:	5b                   	pop    %rbx
    34801571:	c3                   	retq   

0000000034801572 <.LBB8_13>:
    34801572:	48 8b 43 28          	mov    0x28(%rbx),%rax
    34801576:	48 89 df             	mov    %rbx,%rdi
    34801579:	ff 50 30             	callq  *0x30(%rax)
    3480157c:	48 89 df             	mov    %rbx,%rdi
    3480157f:	e8 1c ab 00 00       	callq  3480c0a0 <jpeg_abort>
    34801584:	b8 01 00 00 00       	mov    $0x1,%eax
    34801589:	5b                   	pop    %rbx
    3480158a:	c3                   	retq   
    3480158b:	0f 1f 44 00 00       	nopl   0x0(%rax,%rax,1)

0000000034801590 <jpeg_start_decompress>:
    34801590:	53                   	push   %rbx
    34801591:	48 89 fb             	mov    %rdi,%rbx
    34801594:	8b 43 24             	mov    0x24(%rbx),%eax
    34801597:	3d cc 00 00 00       	cmp    $0xcc,%eax
    3480159c:	0f 84 ff 00 00 00    	je     348016a1 <.LBB0_18>
    348015a2:	3d cb 00 00 00       	cmp    $0xcb,%eax
    348015a7:	0f 84 52 00 00 00    	je     348015ff <.LBB0_6>
    348015ad:	3d ca 00 00 00       	cmp    $0xca,%eax
    348015b2:	0f 85 20 00 00 00    	jne    348015d8 <.LBB0_17>
    348015b8:	48 89 df             	mov    %rbx,%rdi
    348015bb:	e8 d0 4e 00 00       	callq  34806490 <jinit_master_decompress>
    348015c0:	83 7b 58 00          	cmpl   $0x0,0x58(%rbx)
    348015c4:	0f 84 2e 00 00 00    	je     348015f8 <.LBB0_5>
    348015ca:	c7 43 24 cf 00 00 00 	movl   $0xcf,0x24(%rbx)
    348015d1:	b8 01 00 00 00       	mov    $0x1,%eax
    348015d6:	5b                   	pop    %rbx
    348015d7:	c3                   	retq   

00000000348015d8 <.LBB0_17>:
    348015d8:	48 8b 03             	mov    (%rbx),%rax
    348015db:	c7 40 28 15 00 00 00 	movl   $0x15,0x28(%rax)
    348015e2:	8b 43 24             	mov    0x24(%rbx),%eax
    348015e5:	48 8b 0b             	mov    (%rbx),%rcx
    348015e8:	89 41 2c             	mov    %eax,0x2c(%rcx)
    348015eb:	48 8b 03             	mov    (%rbx),%rax
    348015ee:	48 89 df             	mov    %rbx,%rdi
    348015f1:	ff 10                	callq  *(%rax)
    348015f3:	e9 a9 00 00 00       	jmpq   348016a1 <.LBB0_18>

00000000348015f8 <.LBB0_5>:
    348015f8:	c7 43 24 cb 00 00 00 	movl   $0xcb,0x24(%rbx)

00000000348015ff <.LBB0_6>:
    348015ff:	48 8b 83 60 02 00 00 	mov    0x260(%rbx),%rax
    34801606:	83 78 20 00          	cmpl   $0x0,0x20(%rax)
    3480160a:	0f 85 12 00 00 00    	jne    34801622 <.LBB0_7>
    34801610:	e9 80 00 00 00       	jmpq   34801695 <.LBB0_16>

0000000034801615 <.LBB0_15>:
    34801615:	8b 93 b0 01 00 00    	mov    0x1b0(%rbx),%edx
    3480161b:	48 01 d0             	add    %rdx,%rax
    3480161e:	48 89 41 10          	mov    %rax,0x10(%rcx)

0000000034801622 <.LBB0_7>:
    34801622:	48 8b 4b 10          	mov    0x10(%rbx),%rcx
    34801626:	66 2e 0f 1f 84 00 00 	nopw   %cs:0x0(%rax,%rax,1)
    3480162d:	00 00 00 

0000000034801630 <.LBB0_8>:
    34801630:	48 85 c9             	test   %rcx,%rcx
    34801633:	0f 84 05 00 00 00    	je     3480163e <.LBB0_10>
    34801639:	48 89 df             	mov    %rbx,%rdi
    3480163c:	ff 11                	callq  *(%rcx)

000000003480163e <.LBB0_10>:
    3480163e:	48 8b 83 60 02 00 00 	mov    0x260(%rbx),%rax
    34801645:	48 89 df             	mov    %rbx,%rdi
    34801648:	ff 10                	callq  *(%rax)
    3480164a:	85 c0                	test   %eax,%eax
    3480164c:	0f 84 58 00 00 00    	je     348016aa <.LBB0_19>
    34801652:	83 f8 02             	cmp    $0x2,%eax
    34801655:	0f 84 3a 00 00 00    	je     34801695 <.LBB0_16>
    3480165b:	48 8b 4b 10          	mov    0x10(%rbx),%rcx
    3480165f:	83 c8 02             	or     $0x2,%eax
    34801662:	83 f8 03             	cmp    $0x3,%eax
    34801665:	0f 85 c5 ff ff ff    	jne    34801630 <.LBB0_8>
    3480166b:	48 85 c9             	test   %rcx,%rcx
    3480166e:	0f 84 bc ff ff ff    	je     34801630 <.LBB0_8>
    34801674:	48 8b 51 08          	mov    0x8(%rcx),%rdx
    34801678:	48 ff c2             	inc    %rdx
    3480167b:	48 89 51 08          	mov    %rdx,0x8(%rcx)
    3480167f:	48 8b 4b 10          	mov    0x10(%rbx),%rcx
    34801683:	48 8b 41 10          	mov    0x10(%rcx),%rax
    34801687:	48 39 c2             	cmp    %rax,%rdx
    3480168a:	0f 8c a0 ff ff ff    	jl     34801630 <.LBB0_8>
    34801690:	e9 80 ff ff ff       	jmpq   34801615 <.LBB0_15>

0000000034801695 <.LBB0_16>:
    34801695:	8b 83 ac 00 00 00    	mov    0xac(%rbx),%eax
    3480169b:	89 83 b4 00 00 00    	mov    %eax,0xb4(%rbx)

00000000348016a1 <.LBB0_18>:
    348016a1:	48 89 df             	mov    %rbx,%rdi
    348016a4:	5b                   	pop    %rbx
    348016a5:	e9 06 00 00 00       	jmpq   348016b0 <output_pass_setup>

00000000348016aa <.LBB0_19>:
    348016aa:	31 c0                	xor    %eax,%eax
    348016ac:	5b                   	pop    %rbx
    348016ad:	c3                   	retq   
    348016ae:	66 90                	xchg   %ax,%ax

00000000348016b0 <output_pass_setup>:
    348016b0:	41 54                	push   %r12
    348016b2:	53                   	push   %rbx
    348016b3:	48 83 ec 18          	sub    $0x18,%rsp
    348016b7:	48 89 fb             	mov    %rdi,%rbx
    348016ba:	81 7b 24 cc 00 00 00 	cmpl   $0xcc,0x24(%rbx)
    348016c1:	0f 84 1d 00 00 00    	je     348016e4 <.LBB1_2>
    348016c7:	48 8b 83 40 02 00 00 	mov    0x240(%rbx),%rax
    348016ce:	48 89 df             	mov    %rbx,%rdi
    348016d1:	ff 10                	callq  *(%rax)
    348016d3:	c7 83 a8 00 00 00 00 	movl   $0x0,0xa8(%rbx)
    348016da:	00 00 00 
    348016dd:	c7 43 24 cc 00 00 00 	movl   $0xcc,0x24(%rbx)

00000000348016e4 <.LBB1_2>:
    348016e4:	48 8b 83 40 02 00 00 	mov    0x240(%rbx),%rax
    348016eb:	83 78 10 00          	cmpl   $0x0,0x10(%rax)
    348016ef:	0f 84 c1 00 00 00    	je     348017b6 <.LBB1_9>
    348016f5:	48 8d 83 a8 00 00 00 	lea    0xa8(%rbx),%rax
    348016fc:	48 89 44 24 10       	mov    %rax,0x10(%rsp)
    34801701:	66 66 66 66 66 66 2e 	data32 data32 data32 data32 data32 nopw %cs:0x0(%rax,%rax,1)
    34801708:	0f 1f 84 00 00 00 00 
    3480170f:	00 

0000000034801710 <.LBB1_4>:
    34801710:	8b 83 a8 00 00 00    	mov    0xa8(%rbx),%eax
    34801716:	3b 83 8c 00 00 00    	cmp    0x8c(%rbx),%eax
    3480171c:	0f 83 60 00 00 00    	jae    34801782 <.LBB1_8>
    34801722:	48 8b 4b 10          	mov    0x10(%rbx),%rcx
    34801726:	48 85 c9             	test   %rcx,%rcx
    34801729:	0f 84 1b 00 00 00    	je     3480174a <.LBB1_7>
    3480172f:	48 89 41 08          	mov    %rax,0x8(%rcx)
    34801733:	8b 83 8c 00 00 00    	mov    0x8c(%rbx),%eax
    34801739:	48 8b 4b 10          	mov    0x10(%rbx),%rcx
    3480173d:	48 89 41 10          	mov    %rax,0x10(%rcx)
    34801741:	48 8b 43 10          	mov    0x10(%rbx),%rax
    34801745:	48 89 df             	mov    %rbx,%rdi
    34801748:	ff 10                	callq  *(%rax)

000000003480174a <.LBB1_7>:
    3480174a:	8b 83 a8 00 00 00    	mov    0xa8(%rbx),%eax
    34801750:	89 44 24 0c          	mov    %eax,0xc(%rsp)
    34801754:	48 8b 83 48 02 00 00 	mov    0x248(%rbx),%rax
    3480175b:	45 31 e4             	xor    %r12d,%r12d
    3480175e:	31 f6                	xor    %esi,%esi
    34801760:	31 c9                	xor    %ecx,%ecx
    34801762:	48 89 df             	mov    %rbx,%rdi
    34801765:	48 8b 54 24 10       	mov    0x10(%rsp),%rdx
    3480176a:	ff 50 08             	callq  *0x8(%rax)
    3480176d:	8b 44 24 0c          	mov    0xc(%rsp),%eax
    34801771:	39 83 a8 00 00 00    	cmp    %eax,0xa8(%rbx)
    34801777:	0f 85 93 ff ff ff    	jne    34801710 <.LBB1_4>
    3480177d:	e9 49 00 00 00       	jmpq   348017cb <.LBB1_10>

0000000034801782 <.LBB1_8>:
    34801782:	48 8b 83 40 02 00 00 	mov    0x240(%rbx),%rax
    34801789:	48 89 df             	mov    %rbx,%rdi
    3480178c:	ff 50 08             	callq  *0x8(%rax)
    3480178f:	48 8b 83 40 02 00 00 	mov    0x240(%rbx),%rax
    34801796:	48 89 df             	mov    %rbx,%rdi
    34801799:	ff 10                	callq  *(%rax)
    3480179b:	c7 83 a8 00 00 00 00 	movl   $0x0,0xa8(%rbx)
    348017a2:	00 00 00 
    348017a5:	48 8b 83 40 02 00 00 	mov    0x240(%rbx),%rax
    348017ac:	83 78 10 00          	cmpl   $0x0,0x10(%rax)
    348017b0:	0f 85 5a ff ff ff    	jne    34801710 <.LBB1_4>

00000000348017b6 <.LBB1_9>:
    348017b6:	83 7b 5c 01          	cmpl   $0x1,0x5c(%rbx)
    348017ba:	b8 cd 00 00 00       	mov    $0xcd,%eax
    348017bf:	83 d8 ff             	sbb    $0xffffffff,%eax
    348017c2:	89 43 24             	mov    %eax,0x24(%rbx)
    348017c5:	41 bc 01 00 00 00    	mov    $0x1,%r12d

00000000348017cb <.LBB1_10>:
    348017cb:	44 89 e0             	mov    %r12d,%eax
    348017ce:	48 83 c4 18          	add    $0x18,%rsp
    348017d2:	5b                   	pop    %rbx
    348017d3:	41 5c                	pop    %r12
    348017d5:	c3                   	retq   
    348017d6:	66 2e 0f 1f 84 00 00 	nopw   %cs:0x0(%rax,%rax,1)
    348017dd:	00 00 00 

00000000348017e0 <jpeg_read_scanlines>:
    348017e0:	41 54                	push   %r12
    348017e2:	53                   	push   %rbx
    348017e3:	50                   	push   %rax
    348017e4:	89 54 24 04          	mov    %edx,0x4(%rsp)
    348017e8:	49 89 f4             	mov    %rsi,%r12
    348017eb:	48 89 fb             	mov    %rdi,%rbx
    348017ee:	81 7b 24 cd 00 00 00 	cmpl   $0xcd,0x24(%rbx)
    348017f5:	0f 84 1b 00 00 00    	je     34801816 <.LBB2_2>
    348017fb:	48 8b 03             	mov    (%rbx),%rax
    348017fe:	c7 40 28 15 00 00 00 	movl   $0x15,0x28(%rax)
    34801805:	8b 43 24             	mov    0x24(%rbx),%eax
    34801808:	48 8b 0b             	mov    (%rbx),%rcx
    3480180b:	89 41 2c             	mov    %eax,0x2c(%rcx)
    3480180e:	48 8b 03             	mov    (%rbx),%rax
    34801811:	48 89 df             	mov    %rbx,%rdi
    34801814:	ff 10                	callq  *(%rax)

0000000034801816 <.LBB2_2>:
    34801816:	8b 83 a8 00 00 00    	mov    0xa8(%rbx),%eax
    3480181c:	3b 83 8c 00 00 00    	cmp    0x8c(%rbx),%eax
    34801822:	0f 83 54 00 00 00    	jae    3480187c <.LBB2_3>
    34801828:	48 8b 4b 10          	mov    0x10(%rbx),%rcx
    3480182c:	48 85 c9             	test   %rcx,%rcx
    3480182f:	0f 84 1b 00 00 00    	je     34801850 <.LBB2_6>
    34801835:	48 89 41 08          	mov    %rax,0x8(%rcx)
    34801839:	8b 83 8c 00 00 00    	mov    0x8c(%rbx),%eax
    3480183f:	48 8b 4b 10          	mov    0x10(%rbx),%rcx
    34801843:	48 89 41 10          	mov    %rax,0x10(%rcx)
    34801847:	48 8b 43 10          	mov    0x10(%rbx),%rax
    3480184b:	48 89 df             	mov    %rbx,%rdi
    3480184e:	ff 10                	callq  *(%rax)

0000000034801850 <.LBB2_6>:
    34801850:	c7 04 24 00 00 00 00 	movl   $0x0,(%rsp)
    34801857:	48 8b 83 48 02 00 00 	mov    0x248(%rbx),%rax
    3480185e:	48 89 e2             	mov    %rsp,%rdx
    34801861:	48 89 df             	mov    %rbx,%rdi
    34801864:	4c 89 e6             	mov    %r12,%rsi
    34801867:	8b 4c 24 04          	mov    0x4(%rsp),%ecx
    3480186b:	ff 50 08             	callq  *0x8(%rax)
    3480186e:	8b 04 24             	mov    (%rsp),%eax
    34801871:	01 83 a8 00 00 00    	add    %eax,0xa8(%rbx)
    34801877:	e9 1a 00 00 00       	jmpq   34801896 <.LBB2_7>

000000003480187c <.LBB2_3>:
    3480187c:	48 8b 03             	mov    (%rbx),%rax
    3480187f:	c7 40 28 7e 00 00 00 	movl   $0x7e,0x28(%rax)
    34801886:	48 8b 03             	mov    (%rbx),%rax
    34801889:	be ff ff ff ff       	mov    $0xffffffff,%esi
    3480188e:	48 89 df             	mov    %rbx,%rdi
    34801891:	ff 50 08             	callq  *0x8(%rax)
    34801894:	31 c0                	xor    %eax,%eax

0000000034801896 <.LBB2_7>:
    34801896:	48 83 c4 08          	add    $0x8,%rsp
    3480189a:	5b                   	pop    %rbx
    3480189b:	41 5c                	pop    %r12
    3480189d:	c3                   	retq   
    3480189e:	66 90                	xchg   %ax,%ax

00000000348018a0 <jpeg_read_raw_data>:
    348018a0:	41 54                	push   %r12
    348018a2:	53                   	push   %rbx
    348018a3:	48 83 ec 18          	sub    $0x18,%rsp
    348018a7:	89 54 24 0c          	mov    %edx,0xc(%rsp)
    348018ab:	49 89 f4             	mov    %rsi,%r12
    348018ae:	48 89 fb             	mov    %rdi,%rbx
    348018b1:	81 7b 24 ce 00 00 00 	cmpl   $0xce,0x24(%rbx)
    348018b8:	0f 84 1b 00 00 00    	je     348018d9 <.LBB3_2>
    348018be:	48 8b 03             	mov    (%rbx),%rax
    348018c1:	c7 40 28 15 00 00 00 	movl   $0x15,0x28(%rax)
    348018c8:	8b 43 24             	mov    0x24(%rbx),%eax
    348018cb:	48 8b 0b             	mov    (%rbx),%rcx
    348018ce:	89 41 2c             	mov    %eax,0x2c(%rcx)
    348018d1:	48 8b 03             	mov    (%rbx),%rax
    348018d4:	48 89 df             	mov    %rbx,%rdi
    348018d7:	ff 10                	callq  *(%rax)

00000000348018d9 <.LBB3_2>:
    348018d9:	8b 83 a8 00 00 00    	mov    0xa8(%rbx),%eax
    348018df:	3b 83 8c 00 00 00    	cmp    0x8c(%rbx),%eax
    348018e5:	0f 83 7f 00 00 00    	jae    3480196a <.LBB3_9>
    348018eb:	4c 89 64 24 10       	mov    %r12,0x10(%rsp)
    348018f0:	48 8b 4b 10          	mov    0x10(%rbx),%rcx
    348018f4:	48 85 c9             	test   %rcx,%rcx
    348018f7:	0f 84 1b 00 00 00    	je     34801918 <.LBB3_5>
    348018fd:	48 89 41 08          	mov    %rax,0x8(%rcx)
    34801901:	8b 83 8c 00 00 00    	mov    0x8c(%rbx),%eax
    34801907:	48 8b 4b 10          	mov    0x10(%rbx),%rcx
    3480190b:	48 89 41 10          	mov    %rax,0x10(%rcx)
    3480190f:	48 8b 43 10          	mov    0x10(%rbx),%rax
    34801913:	48 89 df             	mov    %rbx,%rdi
    34801916:	ff 10                	callq  *(%rax)

0000000034801918 <.LBB3_5>:
    34801918:	44 8b a3 ac 01 00 00 	mov    0x1ac(%rbx),%r12d
    3480191f:	44 0f af a3 a4 01 00 	imul   0x1a4(%rbx),%r12d
    34801926:	00 
    34801927:	44 3b 64 24 0c       	cmp    0xc(%rsp),%r12d
    3480192c:	0f 86 12 00 00 00    	jbe    34801944 <.LBB3_7>
    34801932:	48 8b 03             	mov    (%rbx),%rax
    34801935:	c7 40 28 18 00 00 00 	movl   $0x18,0x28(%rax)
    3480193c:	48 8b 03             	mov    (%rbx),%rax
    3480193f:	48 89 df             	mov    %rbx,%rdi
    34801942:	ff 10                	callq  *(%rax)

0000000034801944 <.LBB3_7>:
    34801944:	48 8b 83 50 02 00 00 	mov    0x250(%rbx),%rax
    3480194b:	48 89 df             	mov    %rbx,%rdi
    3480194e:	48 8b 74 24 10       	mov    0x10(%rsp),%rsi
    34801953:	ff 50 18             	callq  *0x18(%rax)
    34801956:	85 c0                	test   %eax,%eax
    34801958:	0f 84 24 00 00 00    	je     34801982 <.LBB3_10>
    3480195e:	44 01 a3 a8 00 00 00 	add    %r12d,0xa8(%rbx)
    34801965:	e9 1b 00 00 00       	jmpq   34801985 <.LBB3_11>

000000003480196a <.LBB3_9>:
    3480196a:	48 8b 03             	mov    (%rbx),%rax
    3480196d:	c7 40 28 7e 00 00 00 	movl   $0x7e,0x28(%rax)
    34801974:	48 8b 03             	mov    (%rbx),%rax
    34801977:	be ff ff ff ff       	mov    $0xffffffff,%esi
    3480197c:	48 89 df             	mov    %rbx,%rdi
    3480197f:	ff 50 08             	callq  *0x8(%rax)

0000000034801982 <.LBB3_10>:
    34801982:	45 31 e4             	xor    %r12d,%r12d

0000000034801985 <.LBB3_11>:
    34801985:	44 89 e0             	mov    %r12d,%eax
    34801988:	48 83 c4 18          	add    $0x18,%rsp
    3480198c:	5b                   	pop    %rbx
    3480198d:	41 5c                	pop    %r12
    3480198f:	c3                   	retq   

0000000034801990 <jpeg_start_output>:
    34801990:	41 54                	push   %r12
    34801992:	53                   	push   %rbx
    34801993:	50                   	push   %rax
    34801994:	41 89 f4             	mov    %esi,%r12d
    34801997:	48 89 fb             	mov    %rdi,%rbx
    3480199a:	8b 43 24             	mov    0x24(%rbx),%eax
    3480199d:	3d cc 00 00 00       	cmp    $0xcc,%eax
    348019a2:	0f 84 26 00 00 00    	je     348019ce <.LBB4_3>
    348019a8:	3d cf 00 00 00       	cmp    $0xcf,%eax
    348019ad:	0f 84 1b 00 00 00    	je     348019ce <.LBB4_3>
    348019b3:	48 8b 03             	mov    (%rbx),%rax
    348019b6:	c7 40 28 15 00 00 00 	movl   $0x15,0x28(%rax)
    348019bd:	8b 43 24             	mov    0x24(%rbx),%eax
    348019c0:	48 8b 0b             	mov    (%rbx),%rcx
    348019c3:	89 41 2c             	mov    %eax,0x2c(%rcx)
    348019c6:	48 8b 03             	mov    (%rbx),%rax
    348019c9:	48 89 df             	mov    %rbx,%rdi
    348019cc:	ff 10                	callq  *(%rax)

00000000348019ce <.LBB4_3>:
    348019ce:	45 85 e4             	test   %r12d,%r12d
    348019d1:	b8 01 00 00 00       	mov    $0x1,%eax
    348019d6:	41 0f 4f c4          	cmovg  %r12d,%eax
    348019da:	48 8b 8b 60 02 00 00 	mov    0x260(%rbx),%rcx
    348019e1:	83 79 24 00          	cmpl   $0x0,0x24(%rcx)
    348019e5:	0f 84 0b 00 00 00    	je     348019f6 <.LBB4_5>
    348019eb:	8b 8b ac 00 00 00    	mov    0xac(%rbx),%ecx
    348019f1:	39 c8                	cmp    %ecx,%eax
    348019f3:	0f 4f c1             	cmovg  %ecx,%eax

00000000348019f6 <.LBB4_5>:
    348019f6:	89 83 b4 00 00 00    	mov    %eax,0xb4(%rbx)
    348019fc:	48 89 df             	mov    %rbx,%rdi
    348019ff:	48 83 c4 08          	add    $0x8,%rsp
    34801a03:	5b                   	pop    %rbx
    34801a04:	41 5c                	pop    %r12
    34801a06:	e9 a5 fc ff ff       	jmpq   348016b0 <output_pass_setup>
    34801a0b:	0f 1f 44 00 00       	nopl   0x0(%rax,%rax,1)

0000000034801a10 <jpeg_finish_output>:
    34801a10:	53                   	push   %rbx
    34801a11:	48 89 fb             	mov    %rdi,%rbx
    34801a14:	8b 43 24             	mov    0x24(%rbx),%eax
    34801a17:	8d 88 33 ff ff ff    	lea    -0xcd(%rax),%ecx
    34801a1d:	83 f9 01             	cmp    $0x1,%ecx
    34801a20:	0f 87 26 00 00 00    	ja     34801a4c <.LBB5_4>
    34801a26:	83 7b 58 00          	cmpl   $0x0,0x58(%rbx)
    34801a2a:	0f 84 19 00 00 00    	je     34801a49 <.LBB5_3>
    34801a30:	48 8b 83 40 02 00 00 	mov    0x240(%rbx),%rax
    34801a37:	48 89 df             	mov    %rbx,%rdi
    34801a3a:	ff 50 08             	callq  *0x8(%rax)
    34801a3d:	c7 43 24 d0 00 00 00 	movl   $0xd0,0x24(%rbx)
    34801a44:	e9 37 00 00 00       	jmpq   34801a80 <.LBB5_6>

0000000034801a49 <.LBB5_3>:
    34801a49:	8b 43 24             	mov    0x24(%rbx),%eax

0000000034801a4c <.LBB5_4>:
    34801a4c:	3d d0 00 00 00       	cmp    $0xd0,%eax
    34801a51:	0f 84 29 00 00 00    	je     34801a80 <.LBB5_6>
    34801a57:	48 8b 03             	mov    (%rbx),%rax
    34801a5a:	c7 40 28 15 00 00 00 	movl   $0x15,0x28(%rax)
    34801a61:	8b 43 24             	mov    0x24(%rbx),%eax
    34801a64:	48 8b 0b             	mov    (%rbx),%rcx
    34801a67:	89 41 2c             	mov    %eax,0x2c(%rcx)
    34801a6a:	48 8b 03             	mov    (%rbx),%rax
    34801a6d:	48 89 df             	mov    %rbx,%rdi
    34801a70:	ff 10                	callq  *(%rax)
    34801a72:	66 66 66 66 66 2e 0f 	data32 data32 data32 data32 nopw %cs:0x0(%rax,%rax,1)
    34801a79:	1f 84 00 00 00 00 00 

0000000034801a80 <.LBB5_6>:
    34801a80:	8b 83 ac 00 00 00    	mov    0xac(%rbx),%eax
    34801a86:	3b 83 b4 00 00 00    	cmp    0xb4(%rbx),%eax
    34801a8c:	0f 8f 22 00 00 00    	jg     34801ab4 <.LBB5_10>
    34801a92:	48 8b 83 60 02 00 00 	mov    0x260(%rbx),%rax
    34801a99:	83 78 24 00          	cmpl   $0x0,0x24(%rax)
    34801a9d:	0f 85 11 00 00 00    	jne    34801ab4 <.LBB5_10>
    34801aa3:	48 89 df             	mov    %rbx,%rdi
    34801aa6:	ff 10                	callq  *(%rax)
    34801aa8:	85 c0                	test   %eax,%eax
    34801aaa:	0f 85 d0 ff ff ff    	jne    34801a80 <.LBB5_6>
    34801ab0:	31 c0                	xor    %eax,%eax
    34801ab2:	5b                   	pop    %rbx
    34801ab3:	c3                   	retq   

0000000034801ab4 <.LBB5_10>:
    34801ab4:	c7 43 24 cf 00 00 00 	movl   $0xcf,0x24(%rbx)
    34801abb:	b8 01 00 00 00       	mov    $0x1,%eax
    34801ac0:	5b                   	pop    %rbx
    34801ac1:	c3                   	retq   
    34801ac2:	66 2e 0f 1f 84 00 00 	nopw   %cs:0x0(%rax,%rax,1)
    34801ac9:	00 00 00 
    34801acc:	0f 1f 40 00          	nopl   0x0(%rax)

0000000034801ad0 <jpeg_stdio_src>:
    34801ad0:	41 54                	push   %r12
    34801ad2:	53                   	push   %rbx
    34801ad3:	50                   	push   %rax
    34801ad4:	49 89 f4             	mov    %rsi,%r12
    34801ad7:	48 89 fb             	mov    %rdi,%rbx
    34801ada:	48 83 7b 28 00       	cmpq   $0x0,0x28(%rbx)
    34801adf:	0f 85 30 00 00 00    	jne    34801b15 <.LBB0_2>
    34801ae5:	48 8b 43 08          	mov    0x8(%rbx),%rax
    34801ae9:	31 f6                	xor    %esi,%esi
    34801aeb:	ba 50 00 00 00       	mov    $0x50,%edx
    34801af0:	48 89 df             	mov    %rbx,%rdi
    34801af3:	ff 10                	callq  *(%rax)
    34801af5:	48 89 04 24          	mov    %rax,(%rsp)
    34801af9:	48 89 43 28          	mov    %rax,0x28(%rbx)
    34801afd:	48 8b 43 08          	mov    0x8(%rbx),%rax
    34801b01:	31 f6                	xor    %esi,%esi
    34801b03:	ba 00 10 00 00       	mov    $0x1000,%edx
    34801b08:	48 89 df             	mov    %rbx,%rdi
    34801b0b:	ff 10                	callq  *(%rax)
    34801b0d:	48 8b 0c 24          	mov    (%rsp),%rcx
    34801b11:	48 89 41 40          	mov    %rax,0x40(%rcx)

0000000034801b15 <.LBB0_2>:
    34801b15:	48 8b 43 28          	mov    0x28(%rbx),%rax
    34801b19:	48 c7 40 10 60 1b 80 	movq   $0x34801b60,0x10(%rax)
    34801b20:	34 
    34801b21:	48 c7 40 18 70 1b 80 	movq   $0x34801b70,0x18(%rax)
    34801b28:	34 
    34801b29:	48 c7 40 20 10 1c 80 	movq   $0x34801c10,0x20(%rax)
    34801b30:	34 
    34801b31:	48 c7 40 28 70 2b 80 	movq   $0x34802b70,0x28(%rax)
    34801b38:	34 
    34801b39:	48 c7 40 30 70 1c 80 	movq   $0x34801c70,0x30(%rax)
    34801b40:	34 
    34801b41:	4c 89 60 38          	mov    %r12,0x38(%rax)
    34801b45:	0f 57 c0             	xorps  %xmm0,%xmm0
    34801b48:	0f 11 00             	movups %xmm0,(%rax)
    34801b4b:	48 83 c4 08          	add    $0x8,%rsp
    34801b4f:	5b                   	pop    %rbx
    34801b50:	41 5c                	pop    %r12
    34801b52:	c3                   	retq   
    34801b53:	66 66 66 66 2e 0f 1f 	data32 data32 data32 nopw %cs:0x0(%rax,%rax,1)
    34801b5a:	84 00 00 00 00 00 

0000000034801b60 <init_source>:
    34801b60:	48 8b 47 28          	mov    0x28(%rdi),%rax
    34801b64:	c7 40 48 01 00 00 00 	movl   $0x1,0x48(%rax)
    34801b6b:	c3                   	retq   
    34801b6c:	0f 1f 40 00          	nopl   0x0(%rax)

0000000034801b70 <fill_input_buffer>:
    34801b70:	41 54                	push   %r12
    34801b72:	53                   	push   %rbx
    34801b73:	50                   	push   %rax
    34801b74:	49 89 fc             	mov    %rdi,%r12
    34801b77:	49 8b 5c 24 28       	mov    0x28(%r12),%rbx
    34801b7c:	48 8b 4b 38          	mov    0x38(%rbx),%rcx
    34801b80:	48 8b 7b 40          	mov    0x40(%rbx),%rdi
    34801b84:	be 01 00 00 00       	mov    $0x1,%esi
    34801b89:	ba 00 10 00 00       	mov    $0x1000,%edx
    34801b8e:	e8 ed 98 01 00       	callq  3481b480 <fread>
    34801b93:	48 85 c0             	test   %rax,%rax
    34801b96:	0f 85 4c 00 00 00    	jne    34801be8 <.LBB2_4>
    34801b9c:	83 7b 48 00          	cmpl   $0x0,0x48(%rbx)
    34801ba0:	0f 84 14 00 00 00    	je     34801bba <.LBB2_3>
    34801ba6:	49 8b 04 24          	mov    (%r12),%rax
    34801baa:	c7 40 28 2b 00 00 00 	movl   $0x2b,0x28(%rax)
    34801bb1:	49 8b 04 24          	mov    (%r12),%rax
    34801bb5:	4c 89 e7             	mov    %r12,%rdi
    34801bb8:	ff 10                	callq  *(%rax)

0000000034801bba <.LBB2_3>:
    34801bba:	49 8b 04 24          	mov    (%r12),%rax
    34801bbe:	c7 40 28 7b 00 00 00 	movl   $0x7b,0x28(%rax)
    34801bc5:	49 8b 04 24          	mov    (%r12),%rax
    34801bc9:	be ff ff ff ff       	mov    $0xffffffff,%esi
    34801bce:	4c 89 e7             	mov    %r12,%rdi
    34801bd1:	ff 50 08             	callq  *0x8(%rax)
    34801bd4:	48 8b 43 40          	mov    0x40(%rbx),%rax
    34801bd8:	c6 00 ff             	movb   $0xff,(%rax)
    34801bdb:	48 8b 43 40          	mov    0x40(%rbx),%rax
    34801bdf:	c6 40 01 d9          	movb   $0xd9,0x1(%rax)
    34801be3:	b8 02 00 00 00       	mov    $0x2,%eax

0000000034801be8 <.LBB2_4>:
    34801be8:	48 8b 4b 40          	mov    0x40(%rbx),%rcx
    34801bec:	48 89 0b             	mov    %rcx,(%rbx)
    34801bef:	48 89 43 08          	mov    %rax,0x8(%rbx)
    34801bf3:	c7 43 48 00 00 00 00 	movl   $0x0,0x48(%rbx)
    34801bfa:	b8 01 00 00 00       	mov    $0x1,%eax
    34801bff:	48 83 c4 08          	add    $0x8,%rsp
    34801c03:	5b                   	pop    %rbx
    34801c04:	41 5c                	pop    %r12
    34801c06:	c3                   	retq   
    34801c07:	66 0f 1f 84 00 00 00 	nopw   0x0(%rax,%rax,1)
    34801c0e:	00 00 

0000000034801c10 <skip_input_data>:
    34801c10:	41 54                	push   %r12
    34801c12:	53                   	push   %rbx
    34801c13:	50                   	push   %rax
    34801c14:	48 89 f3             	mov    %rsi,%rbx
    34801c17:	48 85 db             	test   %rbx,%rbx
    34801c1a:	0f 8e 43 00 00 00    	jle    34801c63 <.LBB3_5>
    34801c20:	4c 8b 67 28          	mov    0x28(%rdi),%r12
    34801c24:	49 8b 44 24 08       	mov    0x8(%r12),%rax
    34801c29:	48 39 d8             	cmp    %rbx,%rax
    34801c2c:	0f 8d 28 00 00 00    	jge    34801c5a <.LBB3_4>
    34801c32:	48 89 3c 24          	mov    %rdi,(%rsp)
    34801c36:	66 2e 0f 1f 84 00 00 	nopw   %cs:0x0(%rax,%rax,1)
    34801c3d:	00 00 00 

0000000034801c40 <.LBB3_3>:
    34801c40:	48 29 c3             	sub    %rax,%rbx
    34801c43:	48 8b 3c 24          	mov    (%rsp),%rdi
    34801c47:	41 ff 54 24 18       	callq  *0x18(%r12)
    34801c4c:	49 8b 44 24 08       	mov    0x8(%r12),%rax
    34801c51:	48 39 c3             	cmp    %rax,%rbx
    34801c54:	0f 8f e6 ff ff ff    	jg     34801c40 <.LBB3_3>

0000000034801c5a <.LBB3_4>:
    34801c5a:	49 01 1c 24          	add    %rbx,(%r12)
    34801c5e:	49 29 5c 24 08       	sub    %rbx,0x8(%r12)

0000000034801c63 <.LBB3_5>:
    34801c63:	48 83 c4 08          	add    $0x8,%rsp
    34801c67:	5b                   	pop    %rbx
    34801c68:	41 5c                	pop    %r12
    34801c6a:	c3                   	retq   
    34801c6b:	0f 1f 44 00 00       	nopl   0x0(%rax,%rax,1)

0000000034801c70 <term_source>:
    34801c70:	c3                   	retq   
    34801c71:	66 66 66 66 66 66 2e 	data32 data32 data32 data32 data32 nopw %cs:0x0(%rax,%rax,1)
    34801c78:	0f 1f 84 00 00 00 00 
    34801c7f:	00 

0000000034801c80 <jpeg_mem_src>:
    34801c80:	41 54                	push   %r12
    34801c82:	53                   	push   %rbx
    34801c83:	50                   	push   %rax
    34801c84:	48 89 f3             	mov    %rsi,%rbx
    34801c87:	49 89 fc             	mov    %rdi,%r12
    34801c8a:	48 85 db             	test   %rbx,%rbx
    34801c8d:	0f 84 51 00 00 00    	je     34801ce4 <.LBB5_2>
    34801c93:	48 85 d2             	test   %rdx,%rdx
    34801c96:	0f 84 48 00 00 00    	je     34801ce4 <.LBB5_2>
    34801c9c:	49 83 7c 24 28 00    	cmpq   $0x0,0x28(%r12)
    34801ca2:	0f 84 64 00 00 00    	je     34801d0c <.LBB5_4>

0000000034801ca8 <.LBB5_5>:
    34801ca8:	49 8b 44 24 28       	mov    0x28(%r12),%rax
    34801cad:	48 c7 40 10 30 1d 80 	movq   $0x34801d30,0x10(%rax)
    34801cb4:	34 
    34801cb5:	48 c7 40 18 40 1d 80 	movq   $0x34801d40,0x18(%rax)
    34801cbc:	34 
    34801cbd:	48 c7 40 20 10 1c 80 	movq   $0x34801c10,0x20(%rax)
    34801cc4:	34 
    34801cc5:	48 c7 40 28 70 2b 80 	movq   $0x34802b70,0x28(%rax)
    34801ccc:	34 
    34801ccd:	48 c7 40 30 70 1c 80 	movq   $0x34801c70,0x30(%rax)
    34801cd4:	34 
    34801cd5:	48 89 50 08          	mov    %rdx,0x8(%rax)
    34801cd9:	48 89 18             	mov    %rbx,(%rax)
    34801cdc:	48 83 c4 08          	add    $0x8,%rsp
    34801ce0:	5b                   	pop    %rbx
    34801ce1:	41 5c                	pop    %r12
    34801ce3:	c3                   	retq   

0000000034801ce4 <.LBB5_2>:
    34801ce4:	49 8b 04 24          	mov    (%r12),%rax
    34801ce8:	c7 40 28 2b 00 00 00 	movl   $0x2b,0x28(%rax)
    34801cef:	49 8b 04 24          	mov    (%r12),%rax
    34801cf3:	4c 89 e7             	mov    %r12,%rdi
    34801cf6:	48 89 14 24          	mov    %rdx,(%rsp)
    34801cfa:	ff 10                	callq  *(%rax)
    34801cfc:	48 8b 14 24          	mov    (%rsp),%rdx
    34801d00:	49 83 7c 24 28 00    	cmpq   $0x0,0x28(%r12)
    34801d06:	0f 85 9c ff ff ff    	jne    34801ca8 <.LBB5_5>

0000000034801d0c <.LBB5_4>:
    34801d0c:	49 8b 44 24 08       	mov    0x8(%r12),%rax
    34801d11:	31 f6                	xor    %esi,%esi
    34801d13:	48 89 14 24          	mov    %rdx,(%rsp)
    34801d17:	ba 38 00 00 00       	mov    $0x38,%edx
    34801d1c:	4c 89 e7             	mov    %r12,%rdi
    34801d1f:	ff 10                	callq  *(%rax)
    34801d21:	48 8b 14 24          	mov    (%rsp),%rdx
    34801d25:	49 89 44 24 28       	mov    %rax,0x28(%r12)
    34801d2a:	e9 79 ff ff ff       	jmpq   34801ca8 <.LBB5_5>
    34801d2f:	90                   	nop

0000000034801d30 <init_mem_source>:
    34801d30:	c3                   	retq   
    34801d31:	66 66 66 66 66 66 2e 	data32 data32 data32 data32 data32 nopw %cs:0x0(%rax,%rax,1)
    34801d38:	0f 1f 84 00 00 00 00 
    34801d3f:	00 

0000000034801d40 <fill_mem_input_buffer>:
    34801d40:	53                   	push   %rbx
    34801d41:	48 89 fb             	mov    %rdi,%rbx
    34801d44:	48 8b 03             	mov    (%rbx),%rax
    34801d47:	c7 40 28 7b 00 00 00 	movl   $0x7b,0x28(%rax)
    34801d4e:	48 8b 03             	mov    (%rbx),%rax
    34801d51:	be ff ff ff ff       	mov    $0xffffffff,%esi
    34801d56:	ff 50 08             	callq  *0x8(%rax)
    34801d59:	48 8b 43 28          	mov    0x28(%rbx),%rax
    34801d5d:	48 c7 00 a8 71 82 34 	movq   $0x348271a8,(%rax)
    34801d64:	48 8b 43 28          	mov    0x28(%rbx),%rax
    34801d68:	48 c7 40 08 02 00 00 	movq   $0x2,0x8(%rax)
    34801d6f:	00 
    34801d70:	b8 01 00 00 00       	mov    $0x1,%eax
    34801d75:	5b                   	pop    %rbx
    34801d76:	c3                   	retq   
    34801d77:	66 0f 1f 84 00 00 00 	nopw   0x0(%rax,%rax,1)
    34801d7e:	00 00 

0000000034801d80 <jpeg_core_output_dimensions>:
    34801d80:	41 54                	push   %r12
    34801d82:	53                   	push   %rbx
    34801d83:	50                   	push   %rax
    34801d84:	48 89 fb             	mov    %rdi,%rbx
    34801d87:	48 63 b3 2c 02 00 00 	movslq 0x22c(%rbx),%rsi
    34801d8e:	8b 43 44             	mov    0x44(%rbx),%eax
    34801d91:	0f af c6             	imul   %esi,%eax
    34801d94:	8b 4b 48             	mov    0x48(%rbx),%ecx
    34801d97:	39 c8                	cmp    %ecx,%eax
    34801d99:	0f 86 d0 00 00 00    	jbe    34801e6f <.LBB0_1>
    34801d9f:	8d 14 09             	lea    (%rcx,%rcx,1),%edx
    34801da2:	39 d0                	cmp    %edx,%eax
    34801da4:	0f 86 e1 00 00 00    	jbe    34801e8b <.LBB0_3>
    34801daa:	8d 3c 49             	lea    (%rcx,%rcx,2),%edi
    34801dad:	39 f8                	cmp    %edi,%eax
    34801daf:	0f 86 f8 00 00 00    	jbe    34801ead <.LBB0_5>
    34801db5:	44 8d 0c 8d 00 00 00 	lea    0x0(,%rcx,4),%r9d
    34801dbc:	00 
    34801dbd:	44 39 c8             	cmp    %r9d,%eax
    34801dc0:	0f 86 0b 01 00 00    	jbe    34801ed1 <.LBB0_7>
    34801dc6:	8d 3c 89             	lea    (%rcx,%rcx,4),%edi
    34801dc9:	39 f8                	cmp    %edi,%eax
    34801dcb:	0f 86 24 01 00 00    	jbe    34801ef5 <.LBB0_9>
    34801dd1:	8d 3c 52             	lea    (%rdx,%rdx,2),%edi
    34801dd4:	39 f8                	cmp    %edi,%eax
    34801dd6:	0f 86 3d 01 00 00    	jbe    34801f19 <.LBB0_11>
    34801ddc:	44 8d 04 cd 00 00 00 	lea    0x0(,%rcx,8),%r8d
    34801de3:	00 
    34801de4:	44 89 c7             	mov    %r8d,%edi
    34801de7:	29 cf                	sub    %ecx,%edi
    34801de9:	39 f8                	cmp    %edi,%eax
    34801deb:	0f 86 52 01 00 00    	jbe    34801f43 <.LBB0_13>
    34801df1:	44 39 c0             	cmp    %r8d,%eax
    34801df4:	0f 86 7b 01 00 00    	jbe    34801f75 <.LBB0_15>
    34801dfa:	8d 3c c9             	lea    (%rcx,%rcx,8),%edi
    34801dfd:	39 f8                	cmp    %edi,%eax
    34801dff:	0f 86 94 01 00 00    	jbe    34801f99 <.LBB0_17>
    34801e05:	8d 14 92             	lea    (%rdx,%rdx,4),%edx
    34801e08:	39 d0                	cmp    %edx,%eax
    34801e0a:	0f 86 ad 01 00 00    	jbe    34801fbd <.LBB0_19>
    34801e10:	6b d1 0b             	imul   $0xb,%ecx,%edx
    34801e13:	39 d0                	cmp    %edx,%eax
    34801e15:	0f 86 cc 01 00 00    	jbe    34801fe7 <.LBB0_21>
    34801e1b:	43 8d 14 49          	lea    (%r9,%r9,2),%edx
    34801e1f:	39 d0                	cmp    %edx,%eax
    34801e21:	0f 86 e4 01 00 00    	jbe    3480200b <.LBB0_23>
    34801e27:	6b d1 0d             	imul   $0xd,%ecx,%edx
    34801e2a:	39 d0                	cmp    %edx,%eax
    34801e2c:	0f 86 05 02 00 00    	jbe    34802037 <.LBB0_25>
    34801e32:	6b d1 0e             	imul   $0xe,%ecx,%edx
    34801e35:	39 d0                	cmp    %edx,%eax
    34801e37:	0f 86 1e 02 00 00    	jbe    3480205b <.LBB0_27>
    34801e3d:	8d 0c 89             	lea    (%rcx,%rcx,4),%ecx
    34801e40:	8d 0c 49             	lea    (%rcx,%rcx,2),%ecx
    34801e43:	39 c8                	cmp    %ecx,%eax
    34801e45:	8b 7b 30             	mov    0x30(%rbx),%edi
    34801e48:	0f 86 31 02 00 00    	jbe    3480207f <.LBB0_29>
    34801e4e:	48 c1 e7 04          	shl    $0x4,%rdi
    34801e52:	e8 39 8d 00 00       	callq  3480ab90 <jdiv_round_up>
    34801e57:	89 83 88 00 00 00    	mov    %eax,0x88(%rbx)
    34801e5d:	8b 7b 34             	mov    0x34(%rbx),%edi
    34801e60:	48 c1 e7 04          	shl    $0x4,%rdi
    34801e64:	41 bc 10 00 00 00    	mov    $0x10,%r12d
    34801e6a:	e9 34 02 00 00       	jmpq   348020a3 <.LBB0_31>

0000000034801e6f <.LBB0_1>:
    34801e6f:	8b 7b 30             	mov    0x30(%rbx),%edi
    34801e72:	e8 19 8d 00 00       	callq  3480ab90 <jdiv_round_up>
    34801e77:	89 83 88 00 00 00    	mov    %eax,0x88(%rbx)
    34801e7d:	8b 7b 34             	mov    0x34(%rbx),%edi
    34801e80:	41 bc 01 00 00 00    	mov    $0x1,%r12d
    34801e86:	e9 18 02 00 00       	jmpq   348020a3 <.LBB0_31>

0000000034801e8b <.LBB0_3>:
    34801e8b:	8b 7b 30             	mov    0x30(%rbx),%edi
    34801e8e:	48 01 ff             	add    %rdi,%rdi
    34801e91:	e8 fa 8c 00 00       	callq  3480ab90 <jdiv_round_up>
    34801e96:	89 83 88 00 00 00    	mov    %eax,0x88(%rbx)
    34801e9c:	8b 7b 34             	mov    0x34(%rbx),%edi
    34801e9f:	48 01 ff             	add    %rdi,%rdi
    34801ea2:	41 bc 02 00 00 00    	mov    $0x2,%r12d
    34801ea8:	e9 f6 01 00 00       	jmpq   348020a3 <.LBB0_31>

0000000034801ead <.LBB0_5>:
    34801ead:	8b 43 30             	mov    0x30(%rbx),%eax
    34801eb0:	48 8d 3c 40          	lea    (%rax,%rax,2),%rdi
    34801eb4:	e8 d7 8c 00 00       	callq  3480ab90 <jdiv_round_up>
    34801eb9:	89 83 88 00 00 00    	mov    %eax,0x88(%rbx)
    34801ebf:	8b 43 34             	mov    0x34(%rbx),%eax
    34801ec2:	48 8d 3c 40          	lea    (%rax,%rax,2),%rdi
    34801ec6:	41 bc 03 00 00 00    	mov    $0x3,%r12d
    34801ecc:	e9 d2 01 00 00       	jmpq   348020a3 <.LBB0_31>

0000000034801ed1 <.LBB0_7>:
    34801ed1:	8b 7b 30             	mov    0x30(%rbx),%edi
    34801ed4:	48 c1 e7 02          	shl    $0x2,%rdi
    34801ed8:	e8 b3 8c 00 00       	callq  3480ab90 <jdiv_round_up>
    34801edd:	89 83 88 00 00 00    	mov    %eax,0x88(%rbx)
    34801ee3:	8b 7b 34             	mov    0x34(%rbx),%edi
    34801ee6:	48 c1 e7 02          	shl    $0x2,%rdi
    34801eea:	41 bc 04 00 00 00    	mov    $0x4,%r12d
    34801ef0:	e9 ae 01 00 00       	jmpq   348020a3 <.LBB0_31>

0000000034801ef5 <.LBB0_9>:
    34801ef5:	8b 43 30             	mov    0x30(%rbx),%eax
    34801ef8:	48 8d 3c 80          	lea    (%rax,%rax,4),%rdi
    34801efc:	e8 8f 8c 00 00       	callq  3480ab90 <jdiv_round_up>
    34801f01:	89 83 88 00 00 00    	mov    %eax,0x88(%rbx)
    34801f07:	8b 43 34             	mov    0x34(%rbx),%eax
    34801f0a:	48 8d 3c 80          	lea    (%rax,%rax,4),%rdi
    34801f0e:	41 bc 05 00 00 00    	mov    $0x5,%r12d
    34801f14:	e9 8a 01 00 00       	jmpq   348020a3 <.LBB0_31>

0000000034801f19 <.LBB0_11>:
    34801f19:	8b 43 30             	mov    0x30(%rbx),%eax
    34801f1c:	48 01 c0             	add    %rax,%rax
    34801f1f:	48 8d 3c 40          	lea    (%rax,%rax,2),%rdi
    34801f23:	e8 68 8c 00 00       	callq  3480ab90 <jdiv_round_up>
    34801f28:	89 83 88 00 00 00    	mov    %eax,0x88(%rbx)
    34801f2e:	8b 43 34             	mov    0x34(%rbx),%eax
    34801f31:	48 01 c0             	add    %rax,%rax
    34801f34:	48 8d 3c 40          	lea    (%rax,%rax,2),%rdi
    34801f38:	41 bc 06 00 00 00    	mov    $0x6,%r12d
    34801f3e:	e9 60 01 00 00       	jmpq   348020a3 <.LBB0_31>

0000000034801f43 <.LBB0_13>:
    34801f43:	8b 43 30             	mov    0x30(%rbx),%eax
    34801f46:	48 8d 3c c5 00 00 00 	lea    0x0(,%rax,8),%rdi
    34801f4d:	00 
    34801f4e:	48 29 c7             	sub    %rax,%rdi
    34801f51:	e8 3a 8c 00 00       	callq  3480ab90 <jdiv_round_up>
    34801f56:	89 83 88 00 00 00    	mov    %eax,0x88(%rbx)
    34801f5c:	8b 43 34             	mov    0x34(%rbx),%eax
    34801f5f:	48 8d 3c c5 00 00 00 	lea    0x0(,%rax,8),%rdi
    34801f66:	00 
    34801f67:	48 29 c7             	sub    %rax,%rdi
    34801f6a:	41 bc 07 00 00 00    	mov    $0x7,%r12d
    34801f70:	e9 2e 01 00 00       	jmpq   348020a3 <.LBB0_31>

0000000034801f75 <.LBB0_15>:
    34801f75:	8b 7b 30             	mov    0x30(%rbx),%edi
    34801f78:	48 c1 e7 03          	shl    $0x3,%rdi
    34801f7c:	e8 0f 8c 00 00       	callq  3480ab90 <jdiv_round_up>
    34801f81:	89 83 88 00 00 00    	mov    %eax,0x88(%rbx)
    34801f87:	8b 7b 34             	mov    0x34(%rbx),%edi
    34801f8a:	48 c1 e7 03          	shl    $0x3,%rdi
    34801f8e:	41 bc 08 00 00 00    	mov    $0x8,%r12d
    34801f94:	e9 0a 01 00 00       	jmpq   348020a3 <.LBB0_31>

0000000034801f99 <.LBB0_17>:
    34801f99:	8b 43 30             	mov    0x30(%rbx),%eax
    34801f9c:	48 8d 3c c0          	lea    (%rax,%rax,8),%rdi
    34801fa0:	e8 eb 8b 00 00       	callq  3480ab90 <jdiv_round_up>
    34801fa5:	89 83 88 00 00 00    	mov    %eax,0x88(%rbx)
    34801fab:	8b 43 34             	mov    0x34(%rbx),%eax
    34801fae:	48 8d 3c c0          	lea    (%rax,%rax,8),%rdi
    34801fb2:	41 bc 09 00 00 00    	mov    $0x9,%r12d
    34801fb8:	e9 e6 00 00 00       	jmpq   348020a3 <.LBB0_31>

0000000034801fbd <.LBB0_19>:
    34801fbd:	8b 43 30             	mov    0x30(%rbx),%eax
    34801fc0:	48 01 c0             	add    %rax,%rax
    34801fc3:	48 8d 3c 80          	lea    (%rax,%rax,4),%rdi
    34801fc7:	e8 c4 8b 00 00       	callq  3480ab90 <jdiv_round_up>
    34801fcc:	89 83 88 00 00 00    	mov    %eax,0x88(%rbx)
    34801fd2:	8b 43 34             	mov    0x34(%rbx),%eax
    34801fd5:	48 01 c0             	add    %rax,%rax
    34801fd8:	48 8d 3c 80          	lea    (%rax,%rax,4),%rdi
    34801fdc:	41 bc 0a 00 00 00    	mov    $0xa,%r12d
    34801fe2:	e9 bc 00 00 00       	jmpq   348020a3 <.LBB0_31>

0000000034801fe7 <.LBB0_21>:
    34801fe7:	8b 43 30             	mov    0x30(%rbx),%eax
    34801fea:	48 6b f8 0b          	imul   $0xb,%rax,%rdi
    34801fee:	e8 9d 8b 00 00       	callq  3480ab90 <jdiv_round_up>
    34801ff3:	89 83 88 00 00 00    	mov    %eax,0x88(%rbx)
    34801ff9:	8b 43 34             	mov    0x34(%rbx),%eax
    34801ffc:	48 6b f8 0b          	imul   $0xb,%rax,%rdi
    34802000:	41 bc 0b 00 00 00    	mov    $0xb,%r12d
    34802006:	e9 98 00 00 00       	jmpq   348020a3 <.LBB0_31>

000000003480200b <.LBB0_23>:
    3480200b:	8b 43 30             	mov    0x30(%rbx),%eax
    3480200e:	48 c1 e0 02          	shl    $0x2,%rax
    34802012:	48 8d 3c 40          	lea    (%rax,%rax,2),%rdi
    34802016:	e8 75 8b 00 00       	callq  3480ab90 <jdiv_round_up>
    3480201b:	89 83 88 00 00 00    	mov    %eax,0x88(%rbx)
    34802021:	8b 43 34             	mov    0x34(%rbx),%eax
    34802024:	48 c1 e0 02          	shl    $0x2,%rax
    34802028:	48 8d 3c 40          	lea    (%rax,%rax,2),%rdi
    3480202c:	41 bc 0c 00 00 00    	mov    $0xc,%r12d
    34802032:	e9 6c 00 00 00       	jmpq   348020a3 <.LBB0_31>

0000000034802037 <.LBB0_25>:
    34802037:	8b 43 30             	mov    0x30(%rbx),%eax
    3480203a:	48 6b f8 0d          	imul   $0xd,%rax,%rdi
    3480203e:	e8 4d 8b 00 00       	callq  3480ab90 <jdiv_round_up>
    34802043:	89 83 88 00 00 00    	mov    %eax,0x88(%rbx)
    34802049:	8b 43 34             	mov    0x34(%rbx),%eax
    3480204c:	48 6b f8 0d          	imul   $0xd,%rax,%rdi
    34802050:	41 bc 0d 00 00 00    	mov    $0xd,%r12d
    34802056:	e9 48 00 00 00       	jmpq   348020a3 <.LBB0_31>

000000003480205b <.LBB0_27>:
    3480205b:	8b 43 30             	mov    0x30(%rbx),%eax
    3480205e:	48 6b f8 0e          	imul   $0xe,%rax,%rdi
    34802062:	e8 29 8b 00 00       	callq  3480ab90 <jdiv_round_up>
    34802067:	89 83 88 00 00 00    	mov    %eax,0x88(%rbx)
    3480206d:	8b 43 34             	mov    0x34(%rbx),%eax
    34802070:	48 6b f8 0e          	imul   $0xe,%rax,%rdi
    34802074:	41 bc 0e 00 00 00    	mov    $0xe,%r12d
    3480207a:	e9 24 00 00 00       	jmpq   348020a3 <.LBB0_31>

000000003480207f <.LBB0_29>:
    3480207f:	48 8d 04 bf          	lea    (%rdi,%rdi,4),%rax
    34802083:	48 8d 3c 40          	lea    (%rax,%rax,2),%rdi
    34802087:	e8 04 8b 00 00       	callq  3480ab90 <jdiv_round_up>
    3480208c:	89 83 88 00 00 00    	mov    %eax,0x88(%rbx)
    34802092:	8b 43 34             	mov    0x34(%rbx),%eax
    34802095:	48 8d 04 80          	lea    (%rax,%rax,4),%rax
    34802099:	48 8d 3c 40          	lea    (%rax,%rax,2),%rdi
    3480209d:	41 bc 0f 00 00 00    	mov    $0xf,%r12d

00000000348020a3 <.LBB0_31>:
    348020a3:	48 63 b3 2c 02 00 00 	movslq 0x22c(%rbx),%rsi
    348020aa:	e8 e1 8a 00 00       	callq  3480ab90 <jdiv_round_up>
    348020af:	89 83 8c 00 00 00    	mov    %eax,0x8c(%rbx)
    348020b5:	44 89 a3 a8 01 00 00 	mov    %r12d,0x1a8(%rbx)
    348020bc:	44 89 a3 ac 01 00 00 	mov    %r12d,0x1ac(%rbx)
    348020c3:	83 7b 38 00          	cmpl   $0x0,0x38(%rbx)
    348020c7:	0f 8e 36 00 00 00    	jle    34802103 <.LBB0_34>
    348020cd:	48 8b 83 30 01 00 00 	mov    0x130(%rbx),%rax
    348020d4:	8b 8b a8 01 00 00    	mov    0x1a8(%rbx),%ecx
    348020da:	8b 93 ac 01 00 00    	mov    0x1ac(%rbx),%edx
    348020e0:	8b 73 38             	mov    0x38(%rbx),%esi
    348020e3:	48 83 c0 28          	add    $0x28,%rax
    348020e7:	31 ff                	xor    %edi,%edi
    348020e9:	0f 1f 80 00 00 00 00 	nopl   0x0(%rax)

00000000348020f0 <.LBB0_33>:
    348020f0:	89 48 fc             	mov    %ecx,-0x4(%rax)
    348020f3:	89 10                	mov    %edx,(%rax)
    348020f5:	ff c7                	inc    %edi
    348020f7:	48 83 c0 60          	add    $0x60,%rax
    348020fb:	39 f7                	cmp    %esi,%edi
    348020fd:	0f 8c ed ff ff ff    	jl     348020f0 <.LBB0_33>

0000000034802103 <.LBB0_34>:
    34802103:	48 83 c4 08          	add    $0x8,%rsp
    34802107:	5b                   	pop    %rbx
    34802108:	41 5c                	pop    %r12
    3480210a:	c3                   	retq   
    3480210b:	0f 1f 44 00 00       	nopl   0x0(%rax,%rax,1)

0000000034802110 <jinit_input_controller>:
    34802110:	53                   	push   %rbx
    34802111:	48 89 fb             	mov    %rdi,%rbx
    34802114:	48 8b 43 08          	mov    0x8(%rbx),%rax
    34802118:	31 f6                	xor    %esi,%esi
    3480211a:	ba 30 00 00 00       	mov    $0x30,%edx
    3480211f:	ff 10                	callq  *(%rax)
    34802121:	48 89 83 60 02 00 00 	mov    %rax,0x260(%rbx)
    34802128:	48 c7 00 60 21 80 34 	movq   $0x34802160,(%rax)
    3480212f:	48 c7 40 08 c0 22 80 	movq   $0x348022c0,0x8(%rax)
    34802136:	34 
    34802137:	48 c7 40 10 00 23 80 	movq   $0x34802300,0x10(%rax)
    3480213e:	34 
    3480213f:	48 c7 40 18 40 23 80 	movq   $0x34802340,0x18(%rax)
    34802146:	34 
    34802147:	48 c7 40 20 00 00 00 	movq   $0x0,0x20(%rax)
    3480214e:	00 
    3480214f:	c7 40 28 01 00 00 00 	movl   $0x1,0x28(%rax)
    34802156:	5b                   	pop    %rbx
    34802157:	c3                   	retq   
    34802158:	0f 1f 84 00 00 00 00 	nopl   0x0(%rax,%rax,1)
    3480215f:	00 

0000000034802160 <consume_markers>:
    34802160:	41 54                	push   %r12
    34802162:	53                   	push   %rbx
    34802163:	50                   	push   %rax
    34802164:	48 89 fb             	mov    %rdi,%rbx
    34802167:	4c 8b a3 60 02 00 00 	mov    0x260(%rbx),%r12
    3480216e:	b8 02 00 00 00       	mov    $0x2,%eax
    34802173:	41 83 7c 24 24 00    	cmpl   $0x0,0x24(%r12)
    34802179:	0f 84 1a 00 00 00    	je     34802199 <.LBB2_1>

000000003480217f <.LBB2_19>:
    3480217f:	48 83 c4 08          	add    $0x8,%rsp
    34802183:	5b                   	pop    %rbx
    34802184:	41 5c                	pop    %r12
    34802186:	c3                   	retq   
    34802187:	66 0f 1f 84 00 00 00 	nopw   0x0(%rax,%rax,1)
    3480218e:	00 00 

0000000034802190 <.LBB2_10>:
    34802190:	41 c7 44 24 28 02 00 	movl   $0x2,0x28(%r12)
    34802197:	00 00 

0000000034802199 <.LBB2_1>:
    34802199:	48 8b 83 68 02 00 00 	mov    0x268(%rbx),%rax
    348021a0:	48 89 df             	mov    %rbx,%rdi
    348021a3:	ff 50 08             	callq  *0x8(%rax)
    348021a6:	83 f8 01             	cmp    $0x1,%eax
    348021a9:	0f 85 80 00 00 00    	jne    3480222f <.LBB2_2>
    348021af:	41 8b 44 24 28       	mov    0x28(%r12),%eax
    348021b4:	85 c0                	test   %eax,%eax
    348021b6:	0f 84 24 00 00 00    	je     348021e0 <.LBB2_12>
    348021bc:	83 f8 01             	cmp    $0x1,%eax
    348021bf:	0f 85 08 00 00 00    	jne    348021cd <.LBB2_9>
    348021c5:	48 89 df             	mov    %rbx,%rdi
    348021c8:	e8 93 01 00 00       	callq  34802360 <initial_setup>

00000000348021cd <.LBB2_9>:
    348021cd:	83 bb c0 01 00 00 00 	cmpl   $0x0,0x1c0(%rbx)
    348021d4:	0f 84 b6 ff ff ff    	je     34802190 <.LBB2_10>
    348021da:	e9 9b 00 00 00       	jmpq   3480227a <.LBB2_11>
    348021df:	90                   	nop

00000000348021e0 <.LBB2_12>:
    348021e0:	41 83 7c 24 20 00    	cmpl   $0x0,0x20(%r12)
    348021e6:	0f 84 12 00 00 00    	je     348021fe <.LBB2_13>
    348021ec:	83 bb c0 01 00 00 00 	cmpl   $0x0,0x1c0(%rbx)
    348021f3:	0f 84 a0 ff ff ff    	je     34802199 <.LBB2_1>
    348021f9:	e9 1f 00 00 00       	jmpq   3480221d <.LBB2_15>

00000000348021fe <.LBB2_13>:
    348021fe:	48 8b 03             	mov    (%rbx),%rax
    34802201:	c7 40 28 24 00 00 00 	movl   $0x24,0x28(%rax)
    34802208:	48 8b 03             	mov    (%rbx),%rax
    3480220b:	48 89 df             	mov    %rbx,%rdi
    3480220e:	ff 10                	callq  *(%rax)
    34802210:	83 bb c0 01 00 00 00 	cmpl   $0x0,0x1c0(%rbx)
    34802217:	0f 84 7c ff ff ff    	je     34802199 <.LBB2_1>

000000003480221d <.LBB2_15>:
    3480221d:	48 89 df             	mov    %rbx,%rdi
    34802220:	e8 db 00 00 00       	callq  34802300 <start_input_pass>
    34802225:	b8 01 00 00 00       	mov    $0x1,%eax
    3480222a:	e9 50 ff ff ff       	jmpq   3480217f <.LBB2_19>

000000003480222f <.LBB2_2>:
    3480222f:	83 f8 02             	cmp    $0x2,%eax
    34802232:	0f 85 47 ff ff ff    	jne    3480217f <.LBB2_19>
    34802238:	41 c7 44 24 24 01 00 	movl   $0x1,0x24(%r12)
    3480223f:	00 00 
    34802241:	41 83 7c 24 28 00    	cmpl   $0x0,0x28(%r12)
    34802247:	0f 84 40 00 00 00    	je     3480228d <.LBB2_17>
    3480224d:	48 8b 83 68 02 00 00 	mov    0x268(%rbx),%rax
    34802254:	83 78 1c 00          	cmpl   $0x0,0x1c(%rax)
    34802258:	0f 84 51 00 00 00    	je     348022af <.LBB2_5>
    3480225e:	48 8b 03             	mov    (%rbx),%rax
    34802261:	c7 40 28 3e 00 00 00 	movl   $0x3e,0x28(%rax)
    34802268:	48 8b 03             	mov    (%rbx),%rax
    3480226b:	48 89 df             	mov    %rbx,%rdi
    3480226e:	ff 10                	callq  *(%rax)
    34802270:	b8 02 00 00 00       	mov    $0x2,%eax
    34802275:	e9 05 ff ff ff       	jmpq   3480217f <.LBB2_19>

000000003480227a <.LBB2_11>:
    3480227a:	41 c7 44 24 28 00 00 	movl   $0x0,0x28(%r12)
    34802281:	00 00 
    34802283:	b8 01 00 00 00       	mov    $0x1,%eax
    34802288:	e9 f2 fe ff ff       	jmpq   3480217f <.LBB2_19>

000000003480228d <.LBB2_17>:
    3480228d:	8b 8b ac 00 00 00    	mov    0xac(%rbx),%ecx
    34802293:	39 8b b4 00 00 00    	cmp    %ecx,0xb4(%rbx)
    34802299:	b8 02 00 00 00       	mov    $0x2,%eax
    3480229e:	0f 8e db fe ff ff    	jle    3480217f <.LBB2_19>
    348022a4:	89 8b b4 00 00 00    	mov    %ecx,0xb4(%rbx)
    348022aa:	e9 d0 fe ff ff       	jmpq   3480217f <.LBB2_19>

00000000348022af <.LBB2_5>:
    348022af:	b8 02 00 00 00       	mov    $0x2,%eax
    348022b4:	e9 c6 fe ff ff       	jmpq   3480217f <.LBB2_19>
    348022b9:	0f 1f 80 00 00 00 00 	nopl   0x0(%rax)

00000000348022c0 <reset_input_controller>:
    348022c0:	53                   	push   %rbx
    348022c1:	48 89 fb             	mov    %rdi,%rbx
    348022c4:	48 8b 83 60 02 00 00 	mov    0x260(%rbx),%rax
    348022cb:	48 c7 00 60 21 80 34 	movq   $0x34802160,(%rax)
    348022d2:	48 c7 40 20 00 00 00 	movq   $0x0,0x20(%rax)
    348022d9:	00 
    348022da:	c7 40 28 01 00 00 00 	movl   $0x1,0x28(%rax)
    348022e1:	48 8b 03             	mov    (%rbx),%rax
    348022e4:	ff 50 20             	callq  *0x20(%rax)
    348022e7:	48 8b 83 68 02 00 00 	mov    0x268(%rbx),%rax
    348022ee:	48 89 df             	mov    %rbx,%rdi
    348022f1:	ff 10                	callq  *(%rax)
    348022f3:	48 c7 83 c0 00 00 00 	movq   $0x0,0xc0(%rbx)
    348022fa:	00 00 00 00 
    348022fe:	5b                   	pop    %rbx
    348022ff:	c3                   	retq   

0000000034802300 <start_input_pass>:
    34802300:	53                   	push   %rbx
    34802301:	48 89 fb             	mov    %rdi,%rbx
    34802304:	e8 b7 05 00 00       	callq  348028c0 <per_scan_setup>
    34802309:	48 89 df             	mov    %rbx,%rdi
    3480230c:	e8 7f 07 00 00       	callq  34802a90 <latch_quant_tables>
    34802311:	48 8b 83 70 02 00 00 	mov    0x270(%rbx),%rax
    34802318:	48 89 df             	mov    %rbx,%rdi
    3480231b:	ff 10                	callq  *(%rax)
    3480231d:	48 8b 83 50 02 00 00 	mov    0x250(%rbx),%rax
    34802324:	48 89 df             	mov    %rbx,%rdi
    34802327:	ff 10                	callq  *(%rax)
    34802329:	48 8b 83 50 02 00 00 	mov    0x250(%rbx),%rax
    34802330:	48 8b 8b 60 02 00 00 	mov    0x260(%rbx),%rcx
    34802337:	48 8b 40 08          	mov    0x8(%rax),%rax
    3480233b:	48 89 01             	mov    %rax,(%rcx)
    3480233e:	5b                   	pop    %rbx
    3480233f:	c3                   	retq   

0000000034802340 <finish_input_pass>:
    34802340:	53                   	push   %rbx
    34802341:	48 89 fb             	mov    %rdi,%rbx
    34802344:	48 8b 83 70 02 00 00 	mov    0x270(%rbx),%rax
    3480234b:	ff 50 10             	callq  *0x10(%rax)
    3480234e:	48 8b 83 60 02 00 00 	mov    0x260(%rbx),%rax
    34802355:	48 c7 00 60 21 80 34 	movq   $0x34802160,(%rax)
    3480235c:	5b                   	pop    %rbx
    3480235d:	c3                   	retq   
    3480235e:	66 90                	xchg   %ax,%ax

0000000034802360 <initial_setup>:
    34802360:	41 54                	push   %r12
    34802362:	53                   	push   %rbx
    34802363:	50                   	push   %rax
    34802364:	81 7f 34 dc ff 00 00 	cmpl   $0xffdc,0x34(%rdi)
    3480236b:	48 89 3c 24          	mov    %rdi,(%rsp)
    3480236f:	0f 87 0d 00 00 00    	ja     34802382 <.LBB6_2>
    34802375:	81 7f 30 dd ff 00 00 	cmpl   $0xffdd,0x30(%rdi)
    3480237c:	0f 82 21 00 00 00    	jb     348023a3 <.LBB6_3>

0000000034802382 <.LBB6_2>:
    34802382:	48 8b 07             	mov    (%rdi),%rax
    34802385:	c7 40 28 2a 00 00 00 	movl   $0x2a,0x28(%rax)
    3480238c:	48 8b 07             	mov    (%rdi),%rax
    3480238f:	c7 40 2c dc ff 00 00 	movl   $0xffdc,0x2c(%rax)
    34802396:	48 8b 07             	mov    (%rdi),%rax
    34802399:	48 8b 3c 24          	mov    (%rsp),%rdi
    3480239d:	ff 10                	callq  *(%rax)
    3480239f:	48 8b 3c 24          	mov    (%rsp),%rdi

00000000348023a3 <.LBB6_3>:
    348023a3:	8b 87 28 01 00 00    	mov    0x128(%rdi),%eax
    348023a9:	83 c0 f8             	add    $0xfffffff8,%eax
    348023ac:	83 f8 05             	cmp    $0x5,%eax
    348023af:	0f 82 23 00 00 00    	jb     348023d8 <.LBB6_5>
    348023b5:	48 8b 07             	mov    (%rdi),%rax
    348023b8:	c7 40 28 10 00 00 00 	movl   $0x10,0x28(%rax)
    348023bf:	8b 87 28 01 00 00    	mov    0x128(%rdi),%eax
    348023c5:	48 8b 0f             	mov    (%rdi),%rcx
    348023c8:	89 41 2c             	mov    %eax,0x2c(%rcx)
    348023cb:	48 8b 07             	mov    (%rdi),%rax
    348023ce:	48 8b 3c 24          	mov    (%rsp),%rdi
    348023d2:	ff 10                	callq  *(%rax)
    348023d4:	48 8b 3c 24          	mov    (%rsp),%rdi

00000000348023d8 <.LBB6_5>:
    348023d8:	8b 47 38             	mov    0x38(%rdi),%eax
    348023db:	83 f8 0b             	cmp    $0xb,%eax
    348023de:	0f 8c 2d 00 00 00    	jl     34802411 <.LBB6_7>
    348023e4:	48 8b 07             	mov    (%rdi),%rax
    348023e7:	c7 40 28 1b 00 00 00 	movl   $0x1b,0x28(%rax)
    348023ee:	8b 47 38             	mov    0x38(%rdi),%eax
    348023f1:	48 8b 0f             	mov    (%rdi),%rcx
    348023f4:	89 41 2c             	mov    %eax,0x2c(%rcx)
    348023f7:	48 8b 07             	mov    (%rdi),%rax
    348023fa:	c7 40 30 0a 00 00 00 	movl   $0xa,0x30(%rax)
    34802401:	48 8b 07             	mov    (%rdi),%rax
    34802404:	48 8b 3c 24          	mov    (%rsp),%rdi
    34802408:	ff 10                	callq  *(%rax)
    3480240a:	48 8b 3c 24          	mov    (%rsp),%rdi
    3480240e:	8b 47 38             	mov    0x38(%rdi),%eax

0000000034802411 <.LBB6_7>:
    34802411:	48 b9 01 00 00 00 01 	movabs $0x100000001,%rcx
    34802418:	00 00 00 
    3480241b:	48 89 8f a0 01 00 00 	mov    %rcx,0x1a0(%rdi)
    34802422:	85 c0                	test   %eax,%eax
    34802424:	0f 8e 80 00 00 00    	jle    348024aa <.LBB6_13>
    3480242a:	48 8b 9f 30 01 00 00 	mov    0x130(%rdi),%rbx
    34802431:	48 83 c3 0c          	add    $0xc,%rbx
    34802435:	45 31 e4             	xor    %r12d,%r12d
    34802438:	0f 1f 84 00 00 00 00 	nopl   0x0(%rax,%rax,1)
    3480243f:	00 

0000000034802440 <.LBB6_9>:
    34802440:	8b 43 fc             	mov    -0x4(%rbx),%eax
    34802443:	ff c8                	dec    %eax
    34802445:	83 f8 03             	cmp    $0x3,%eax
    34802448:	0f 87 0d 00 00 00    	ja     3480245b <.LBB6_11>
    3480244e:	8b 03                	mov    (%rbx),%eax
    34802450:	ff c8                	dec    %eax
    34802452:	83 f8 04             	cmp    $0x4,%eax
    34802455:	0f 82 17 00 00 00    	jb     34802472 <.LBB6_12>

000000003480245b <.LBB6_11>:
    3480245b:	48 8b 07             	mov    (%rdi),%rax
    3480245e:	c7 40 28 13 00 00 00 	movl   $0x13,0x28(%rax)
    34802465:	48 8b 07             	mov    (%rdi),%rax
    34802468:	48 8b 3c 24          	mov    (%rsp),%rdi
    3480246c:	ff 10                	callq  *(%rax)
    3480246e:	48 8b 3c 24          	mov    (%rsp),%rdi

0000000034802472 <.LBB6_12>:
    34802472:	8b 43 fc             	mov    -0x4(%rbx),%eax
    34802475:	8b 8f a0 01 00 00    	mov    0x1a0(%rdi),%ecx
    3480247b:	8b 97 a4 01 00 00    	mov    0x1a4(%rdi),%edx
    34802481:	39 c1                	cmp    %eax,%ecx
    34802483:	0f 4d c1             	cmovge %ecx,%eax
    34802486:	89 87 a0 01 00 00    	mov    %eax,0x1a0(%rdi)
    3480248c:	8b 03                	mov    (%rbx),%eax
    3480248e:	39 c2                	cmp    %eax,%edx
    34802490:	0f 4d c2             	cmovge %edx,%eax
    34802493:	89 87 a4 01 00 00    	mov    %eax,0x1a4(%rdi)
    34802499:	41 ff c4             	inc    %r12d
    3480249c:	48 83 c3 60          	add    $0x60,%rbx
    348024a0:	44 3b 67 38          	cmp    0x38(%rdi),%r12d
    348024a4:	0f 8c 96 ff ff ff    	jl     34802440 <.LBB6_9>

00000000348024aa <.LBB6_13>:
    348024aa:	83 bf 38 01 00 00 00 	cmpl   $0x0,0x138(%rdi)
    348024b1:	0f 84 81 01 00 00    	je     34802638 <.LBB6_14>

00000000348024b7 <.LBB6_16>:
    348024b7:	c7 87 2c 02 00 00 08 	movl   $0x8,0x22c(%rdi)
    348024be:	00 00 00 

00000000348024c1 <.LBB6_17>:
    348024c1:	48 c7 87 30 02 00 00 	movq   $0x34828930,0x230(%rdi)
    348024c8:	30 89 82 34 
    348024cc:	c7 87 38 02 00 00 3f 	movl   $0x3f,0x238(%rdi)
    348024d3:	00 00 00 

00000000348024d6 <.LBB6_34>:
    348024d6:	8b 87 2c 02 00 00    	mov    0x22c(%rdi),%eax
    348024dc:	89 87 a8 01 00 00    	mov    %eax,0x1a8(%rdi)
    348024e2:	89 87 ac 01 00 00    	mov    %eax,0x1ac(%rdi)
    348024e8:	83 7f 38 00          	cmpl   $0x0,0x38(%rdi)
    348024ec:	0f 8e e4 00 00 00    	jle    348025d6 <.LBB6_37>
    348024f2:	48 8b 9f 30 01 00 00 	mov    0x130(%rdi),%rbx
    348024f9:	48 83 c3 08          	add    $0x8,%rbx
    348024fd:	45 31 e4             	xor    %r12d,%r12d

0000000034802500 <.LBB6_36>:
    34802500:	8b 87 2c 02 00 00    	mov    0x22c(%rdi),%eax
    34802506:	89 43 1c             	mov    %eax,0x1c(%rbx)
    34802509:	8b 87 2c 02 00 00    	mov    0x22c(%rdi),%eax
    3480250f:	89 43 20             	mov    %eax,0x20(%rbx)
    34802512:	8b 47 30             	mov    0x30(%rdi),%eax
    34802515:	48 63 3b             	movslq (%rbx),%rdi
    34802518:	48 0f af f8          	imul   %rax,%rdi
    3480251c:	48 8b 04 24          	mov    (%rsp),%rax
    34802520:	48 63 80 2c 02 00 00 	movslq 0x22c(%rax),%rax
    34802527:	48 8b 0c 24          	mov    (%rsp),%rcx
    3480252b:	48 63 b1 a0 01 00 00 	movslq 0x1a0(%rcx),%rsi
    34802532:	48 0f af f0          	imul   %rax,%rsi
    34802536:	e8 55 86 00 00       	callq  3480ab90 <jdiv_round_up>
    3480253b:	89 43 14             	mov    %eax,0x14(%rbx)
    3480253e:	48 8b 04 24          	mov    (%rsp),%rax
    34802542:	8b 40 34             	mov    0x34(%rax),%eax
    34802545:	48 63 7b 04          	movslq 0x4(%rbx),%rdi
    34802549:	48 0f af f8          	imul   %rax,%rdi
    3480254d:	48 8b 04 24          	mov    (%rsp),%rax
    34802551:	48 63 80 2c 02 00 00 	movslq 0x22c(%rax),%rax
    34802558:	48 8b 0c 24          	mov    (%rsp),%rcx
    3480255c:	48 63 b1 a4 01 00 00 	movslq 0x1a4(%rcx),%rsi
    34802563:	48 0f af f0          	imul   %rax,%rsi
    34802567:	e8 24 86 00 00       	callq  3480ab90 <jdiv_round_up>
    3480256c:	89 43 18             	mov    %eax,0x18(%rbx)
    3480256f:	48 8b 04 24          	mov    (%rsp),%rax
    34802573:	8b 40 30             	mov    0x30(%rax),%eax
    34802576:	48 63 3b             	movslq (%rbx),%rdi
    34802579:	48 0f af f8          	imul   %rax,%rdi
    3480257d:	48 8b 04 24          	mov    (%rsp),%rax
    34802581:	48 63 b0 a0 01 00 00 	movslq 0x1a0(%rax),%rsi
    34802588:	e8 03 86 00 00       	callq  3480ab90 <jdiv_round_up>
    3480258d:	89 43 24             	mov    %eax,0x24(%rbx)
    34802590:	48 8b 04 24          	mov    (%rsp),%rax
    34802594:	8b 40 34             	mov    0x34(%rax),%eax
    34802597:	48 63 7b 04          	movslq 0x4(%rbx),%rdi
    3480259b:	48 0f af f8          	imul   %rax,%rdi
    3480259f:	48 8b 04 24          	mov    (%rsp),%rax
    348025a3:	48 63 b0 a4 01 00 00 	movslq 0x1a4(%rax),%rsi
    348025aa:	e8 e1 85 00 00       	callq  3480ab90 <jdiv_round_up>
    348025af:	48 8b 3c 24          	mov    (%rsp),%rdi
    348025b3:	89 43 28             	mov    %eax,0x28(%rbx)
    348025b6:	c7 43 2c 01 00 00 00 	movl   $0x1,0x2c(%rbx)
    348025bd:	48 c7 43 48 00 00 00 	movq   $0x0,0x48(%rbx)
    348025c4:	00 
    348025c5:	41 ff c4             	inc    %r12d
    348025c8:	48 83 c3 60          	add    $0x60,%rbx
    348025cc:	44 3b 67 38          	cmp    0x38(%rdi),%r12d
    348025d0:	0f 8c 2a ff ff ff    	jl     34802500 <.LBB6_36>

00000000348025d6 <.LBB6_37>:
    348025d6:	48 8b 04 24          	mov    (%rsp),%rax
    348025da:	8b 78 34             	mov    0x34(%rax),%edi
    348025dd:	48 8b 04 24          	mov    (%rsp),%rax
    348025e1:	48 63 80 2c 02 00 00 	movslq 0x22c(%rax),%rax
    348025e8:	48 8b 0c 24          	mov    (%rsp),%rcx
    348025ec:	48 63 b1 a4 01 00 00 	movslq 0x1a4(%rcx),%rsi
    348025f3:	48 0f af f0          	imul   %rax,%rsi
    348025f7:	e8 94 85 00 00       	callq  3480ab90 <jdiv_round_up>
    348025fc:	48 8b 14 24          	mov    (%rsp),%rdx
    34802600:	89 82 b0 01 00 00    	mov    %eax,0x1b0(%rdx)
    34802606:	8b 8a c0 01 00 00    	mov    0x1c0(%rdx),%ecx
    3480260c:	b8 01 00 00 00       	mov    $0x1,%eax
    34802611:	3b 4a 38             	cmp    0x38(%rdx),%ecx
    34802614:	0f 8c 0c 00 00 00    	jl     34802626 <.LBB6_39>
    3480261a:	31 c0                	xor    %eax,%eax
    3480261c:	83 ba 3c 01 00 00 00 	cmpl   $0x0,0x13c(%rdx)
    34802623:	0f 95 c0             	setne  %al

0000000034802626 <.LBB6_39>:
    34802626:	48 8b 8a 60 02 00 00 	mov    0x260(%rdx),%rcx
    3480262d:	89 41 20             	mov    %eax,0x20(%rcx)
    34802630:	48 83 c4 08          	add    $0x8,%rsp
    34802634:	5b                   	pop    %rbx
    34802635:	41 5c                	pop    %r12
    34802637:	c3                   	retq   

0000000034802638 <.LBB6_14>:
    34802638:	83 bf 3c 01 00 00 00 	cmpl   $0x0,0x13c(%rdi)
    3480263f:	0f 84 0d 00 00 00    	je     34802652 <.LBB6_18>
    34802645:	83 bf c0 01 00 00 00 	cmpl   $0x0,0x1c0(%rdi)
    3480264c:	0f 85 65 fe ff ff    	jne    348024b7 <.LBB6_16>

0000000034802652 <.LBB6_18>:
    34802652:	8b 87 20 02 00 00    	mov    0x220(%rdi),%eax
    34802658:	83 f8 4f             	cmp    $0x4f,%eax
    3480265b:	0f 8f 3d 00 00 00    	jg     3480269e <.LBB6_40>
    34802661:	83 f8 17             	cmp    $0x17,%eax
    34802664:	0f 8f 69 00 00 00    	jg     348026d3 <.LBB6_27>
    3480266a:	83 f8 07             	cmp    $0x7,%eax
    3480266d:	0f 8f c5 00 00 00    	jg     34802738 <.LBB6_24>
    34802673:	85 c0                	test   %eax,%eax
    34802675:	0f 84 48 01 00 00    	je     348027c3 <.LBB6_55>
    3480267b:	83 f8 03             	cmp    $0x3,%eax
    3480267e:	0f 85 ef 01 00 00    	jne    34802873 <.LBB6_33>
    34802684:	c7 87 2c 02 00 00 02 	movl   $0x2,0x22c(%rdi)
    3480268b:	00 00 00 
    3480268e:	48 c7 87 30 02 00 00 	movq   $0x34828df0,0x230(%rdi)
    34802695:	f0 8d 82 34 
    34802699:	e9 b5 01 00 00       	jmpq   34802853 <.LBB6_56>

000000003480269e <.LBB6_40>:
    3480269e:	3d a7 00 00 00       	cmp    $0xa7,%eax
    348026a3:	0f 8f 5f 00 00 00    	jg     34802708 <.LBB6_48>
    348026a9:	83 f8 77             	cmp    $0x77,%eax
    348026ac:	0f 8f b2 00 00 00    	jg     34802764 <.LBB6_45>
    348026b2:	83 f8 50             	cmp    $0x50,%eax
    348026b5:	0f 84 22 01 00 00    	je     348027dd <.LBB6_60>
    348026bb:	83 f8 63             	cmp    $0x63,%eax
    348026be:	0f 85 af 01 00 00    	jne    34802873 <.LBB6_33>
    348026c4:	c7 87 2c 02 00 00 0a 	movl   $0xa,0x22c(%rdi)
    348026cb:	00 00 00 
    348026ce:	e9 ee fd ff ff       	jmpq   348024c1 <.LBB6_17>

00000000348026d3 <.LBB6_27>:
    348026d3:	83 f8 2f             	cmp    $0x2f,%eax
    348026d6:	0f 8f ab 00 00 00    	jg     34802787 <.LBB6_31>
    348026dc:	83 f8 18             	cmp    $0x18,%eax
    348026df:	0f 84 07 01 00 00    	je     348027ec <.LBB6_58>
    348026e5:	83 f8 23             	cmp    $0x23,%eax
    348026e8:	0f 85 85 01 00 00    	jne    34802873 <.LBB6_33>
    348026ee:	c7 87 2c 02 00 00 06 	movl   $0x6,0x22c(%rdi)
    348026f5:	00 00 00 
    348026f8:	48 c7 87 30 02 00 00 	movq   $0x34828b80,0x230(%rdi)
    348026ff:	80 8b 82 34 
    34802703:	e9 4b 01 00 00       	jmpq   34802853 <.LBB6_56>

0000000034802708 <.LBB6_48>:
    34802708:	3d df 00 00 00       	cmp    $0xdf,%eax
    3480270d:	0f 8f 8b 00 00 00    	jg     3480279e <.LBB6_52>
    34802713:	3d a8 00 00 00       	cmp    $0xa8,%eax
    34802718:	0f 84 e8 00 00 00    	je     34802806 <.LBB6_62>
    3480271e:	3d c3 00 00 00       	cmp    $0xc3,%eax
    34802723:	0f 85 4a 01 00 00    	jne    34802873 <.LBB6_33>
    34802729:	c7 87 2c 02 00 00 0e 	movl   $0xe,0x22c(%rdi)
    34802730:	00 00 00 
    34802733:	e9 89 fd ff ff       	jmpq   348024c1 <.LBB6_17>

0000000034802738 <.LBB6_24>:
    34802738:	83 f8 08             	cmp    $0x8,%eax
    3480273b:	0f 84 d4 00 00 00    	je     34802815 <.LBB6_57>
    34802741:	83 f8 0f             	cmp    $0xf,%eax
    34802744:	0f 85 29 01 00 00    	jne    34802873 <.LBB6_33>
    3480274a:	c7 87 2c 02 00 00 04 	movl   $0x4,0x22c(%rdi)
    34802751:	00 00 00 
    34802754:	48 c7 87 30 02 00 00 	movq   $0x34828d00,0x230(%rdi)
    3480275b:	00 8d 82 34 
    3480275f:	e9 ef 00 00 00       	jmpq   34802853 <.LBB6_56>

0000000034802764 <.LBB6_45>:
    34802764:	83 f8 78             	cmp    $0x78,%eax
    34802767:	0f 84 c2 00 00 00    	je     3480282f <.LBB6_61>
    3480276d:	3d 8f 00 00 00       	cmp    $0x8f,%eax
    34802772:	0f 85 fb 00 00 00    	jne    34802873 <.LBB6_33>
    34802778:	c7 87 2c 02 00 00 0c 	movl   $0xc,0x22c(%rdi)
    3480277f:	00 00 00 
    34802782:	e9 3a fd ff ff       	jmpq   348024c1 <.LBB6_17>

0000000034802787 <.LBB6_31>:
    34802787:	83 f8 30             	cmp    $0x30,%eax
    3480278a:	0f 84 ae 00 00 00    	je     3480283e <.LBB6_59>
    34802790:	83 f8 3f             	cmp    $0x3f,%eax
    34802793:	0f 84 1e fd ff ff    	je     348024b7 <.LBB6_16>
    34802799:	e9 d5 00 00 00       	jmpq   34802873 <.LBB6_33>

000000003480279e <.LBB6_52>:
    3480279e:	3d e0 00 00 00       	cmp    $0xe0,%eax
    348027a3:	0f 84 bb 00 00 00    	je     34802864 <.LBB6_63>
    348027a9:	3d ff 00 00 00       	cmp    $0xff,%eax
    348027ae:	0f 85 bf 00 00 00    	jne    34802873 <.LBB6_33>
    348027b4:	c7 87 2c 02 00 00 10 	movl   $0x10,0x22c(%rdi)
    348027bb:	00 00 00 
    348027be:	e9 fe fc ff ff       	jmpq   348024c1 <.LBB6_17>

00000000348027c3 <.LBB6_55>:
    348027c3:	c7 87 2c 02 00 00 01 	movl   $0x1,0x22c(%rdi)
    348027ca:	00 00 00 
    348027cd:	48 c7 87 30 02 00 00 	movq   $0x34828930,0x230(%rdi)
    348027d4:	30 89 82 34 
    348027d8:	e9 76 00 00 00       	jmpq   34802853 <.LBB6_56>

00000000348027dd <.LBB6_60>:
    348027dd:	c7 87 2c 02 00 00 09 	movl   $0x9,0x22c(%rdi)
    348027e4:	00 00 00 
    348027e7:	e9 d5 fc ff ff       	jmpq   348024c1 <.LBB6_17>

00000000348027ec <.LBB6_58>:
    348027ec:	c7 87 2c 02 00 00 05 	movl   $0x5,0x22c(%rdi)
    348027f3:	00 00 00 
    348027f6:	48 c7 87 30 02 00 00 	movq   $0x34828c50,0x230(%rdi)
    348027fd:	50 8c 82 34 
    34802801:	e9 4d 00 00 00       	jmpq   34802853 <.LBB6_56>

0000000034802806 <.LBB6_62>:
    34802806:	c7 87 2c 02 00 00 0d 	movl   $0xd,0x22c(%rdi)
    3480280d:	00 00 00 
    34802810:	e9 ac fc ff ff       	jmpq   348024c1 <.LBB6_17>

0000000034802815 <.LBB6_57>:
    34802815:	c7 87 2c 02 00 00 03 	movl   $0x3,0x22c(%rdi)
    3480281c:	00 00 00 
    3480281f:	48 c7 87 30 02 00 00 	movq   $0x34828d80,0x230(%rdi)
    34802826:	80 8d 82 34 
    3480282a:	e9 24 00 00 00       	jmpq   34802853 <.LBB6_56>

000000003480282f <.LBB6_61>:
    3480282f:	c7 87 2c 02 00 00 0b 	movl   $0xb,0x22c(%rdi)
    34802836:	00 00 00 
    34802839:	e9 83 fc ff ff       	jmpq   348024c1 <.LBB6_17>

000000003480283e <.LBB6_59>:
    3480283e:	c7 87 2c 02 00 00 07 	movl   $0x7,0x22c(%rdi)
    34802845:	00 00 00 
    34802848:	48 c7 87 30 02 00 00 	movq   $0x34828a70,0x230(%rdi)
    3480284f:	70 8a 82 34 

0000000034802853 <.LBB6_56>:
    34802853:	8b 87 20 02 00 00    	mov    0x220(%rdi),%eax
    34802859:	89 87 38 02 00 00    	mov    %eax,0x238(%rdi)
    3480285f:	e9 72 fc ff ff       	jmpq   348024d6 <.LBB6_34>

0000000034802864 <.LBB6_63>:
    34802864:	c7 87 2c 02 00 00 0f 	movl   $0xf,0x22c(%rdi)
    3480286b:	00 00 00 
    3480286e:	e9 4e fc ff ff       	jmpq   348024c1 <.LBB6_17>

0000000034802873 <.LBB6_33>:
    34802873:	48 8b 07             	mov    (%rdi),%rax
    34802876:	c7 40 28 11 00 00 00 	movl   $0x11,0x28(%rax)
    3480287d:	8b 87 1c 02 00 00    	mov    0x21c(%rdi),%eax
    34802883:	48 8b 0f             	mov    (%rdi),%rcx
    34802886:	89 41 2c             	mov    %eax,0x2c(%rcx)
    34802889:	8b 87 20 02 00 00    	mov    0x220(%rdi),%eax
    3480288f:	48 8b 0f             	mov    (%rdi),%rcx
    34802892:	89 41 30             	mov    %eax,0x30(%rcx)
    34802895:	8b 87 24 02 00 00    	mov    0x224(%rdi),%eax
    3480289b:	48 8b 0f             	mov    (%rdi),%rcx
    3480289e:	89 41 34             	mov    %eax,0x34(%rcx)
    348028a1:	8b 87 28 02 00 00    	mov    0x228(%rdi),%eax
    348028a7:	48 8b 0f             	mov    (%rdi),%rcx
    348028aa:	89 41 38             	mov    %eax,0x38(%rcx)
    348028ad:	48 8b 07             	mov    (%rdi),%rax
    348028b0:	48 8b 3c 24          	mov    (%rsp),%rdi
    348028b4:	ff 10                	callq  *(%rax)
    348028b6:	48 8b 3c 24          	mov    (%rsp),%rdi
    348028ba:	e9 17 fc ff ff       	jmpq   348024d6 <.LBB6_34>
    348028bf:	90                   	nop

00000000348028c0 <per_scan_setup>:
    348028c0:	41 54                	push   %r12
    348028c2:	53                   	push   %rbx
    348028c3:	50                   	push   %rax
    348028c4:	48 89 fb             	mov    %rdi,%rbx
    348028c7:	8b 83 c0 01 00 00    	mov    0x1c0(%rbx),%eax
    348028cd:	83 f8 01             	cmp    $0x1,%eax
    348028d0:	0f 85 5d 00 00 00    	jne    34802933 <.LBB7_2>
    348028d6:	48 8b 8b c8 01 00 00 	mov    0x1c8(%rbx),%rcx
    348028dd:	8b 41 1c             	mov    0x1c(%rcx),%eax
    348028e0:	89 83 e8 01 00 00    	mov    %eax,0x1e8(%rbx)
    348028e6:	8b 41 20             	mov    0x20(%rcx),%eax
    348028e9:	89 83 ec 01 00 00    	mov    %eax,0x1ec(%rbx)
    348028ef:	48 b8 01 00 00 00 01 	movabs $0x100000001,%rax
    348028f6:	00 00 00 
    348028f9:	48 89 41 38          	mov    %rax,0x38(%rcx)
    348028fd:	c7 41 40 01 00 00 00 	movl   $0x1,0x40(%rcx)
    34802904:	8b 41 24             	mov    0x24(%rcx),%eax
    34802907:	89 41 44             	mov    %eax,0x44(%rcx)
    3480290a:	c7 41 48 01 00 00 00 	movl   $0x1,0x48(%rcx)
    34802911:	8b 71 0c             	mov    0xc(%rcx),%esi
    34802914:	8b 41 20             	mov    0x20(%rcx),%eax
    34802917:	31 d2                	xor    %edx,%edx
    34802919:	f7 f6                	div    %esi
    3480291b:	85 d2                	test   %edx,%edx
    3480291d:	0f 44 d6             	cmove  %esi,%edx
    34802920:	89 51 4c             	mov    %edx,0x4c(%rcx)
    34802923:	48 c7 83 f0 01 00 00 	movq   $0x1,0x1f0(%rbx)
    3480292a:	01 00 00 00 
    3480292e:	e9 54 01 00 00       	jmpq   34802a87 <.LBB7_12>

0000000034802933 <.LBB7_2>:
    34802933:	ff c8                	dec    %eax
    34802935:	83 f8 04             	cmp    $0x4,%eax
    34802938:	0f 82 28 00 00 00    	jb     34802966 <.LBB7_4>
    3480293e:	48 8b 03             	mov    (%rbx),%rax
    34802941:	c7 40 28 1b 00 00 00 	movl   $0x1b,0x28(%rax)
    34802948:	8b 83 c0 01 00 00    	mov    0x1c0(%rbx),%eax
    3480294e:	48 8b 0b             	mov    (%rbx),%rcx
    34802951:	89 41 2c             	mov    %eax,0x2c(%rcx)
    34802954:	48 8b 03             	mov    (%rbx),%rax
    34802957:	c7 40 30 04 00 00 00 	movl   $0x4,0x30(%rax)
    3480295e:	48 8b 03             	mov    (%rbx),%rax
    34802961:	48 89 df             	mov    %rbx,%rdi
    34802964:	ff 10                	callq  *(%rax)

0000000034802966 <.LBB7_4>:
    34802966:	8b 7b 30             	mov    0x30(%rbx),%edi
    34802969:	48 63 83 2c 02 00 00 	movslq 0x22c(%rbx),%rax
    34802970:	48 63 b3 a0 01 00 00 	movslq 0x1a0(%rbx),%rsi
    34802977:	48 0f af f0          	imul   %rax,%rsi
    3480297b:	e8 10 82 00 00       	callq  3480ab90 <jdiv_round_up>
    34802980:	89 83 e8 01 00 00    	mov    %eax,0x1e8(%rbx)
    34802986:	8b 7b 34             	mov    0x34(%rbx),%edi
    34802989:	48 63 83 2c 02 00 00 	movslq 0x22c(%rbx),%rax
    34802990:	48 63 b3 a4 01 00 00 	movslq 0x1a4(%rbx),%rsi
    34802997:	48 0f af f0          	imul   %rax,%rsi
    3480299b:	e8 f0 81 00 00       	callq  3480ab90 <jdiv_round_up>
    348029a0:	89 83 ec 01 00 00    	mov    %eax,0x1ec(%rbx)
    348029a6:	c7 83 f0 01 00 00 00 	movl   $0x0,0x1f0(%rbx)
    348029ad:	00 00 00 
    348029b0:	83 bb c0 01 00 00 00 	cmpl   $0x0,0x1c0(%rbx)
    348029b7:	0f 8e ca 00 00 00    	jle    34802a87 <.LBB7_12>
    348029bd:	31 f6                	xor    %esi,%esi
    348029bf:	90                   	nop

00000000348029c0 <.LBB7_6>:
    348029c0:	48 8b 8c f3 c8 01 00 	mov    0x1c8(%rbx,%rsi,8),%rcx
    348029c7:	00 
    348029c8:	8b 79 08             	mov    0x8(%rcx),%edi
    348029cb:	44 8b 41 0c          	mov    0xc(%rcx),%r8d
    348029cf:	89 79 38             	mov    %edi,0x38(%rcx)
    348029d2:	44 89 41 3c          	mov    %r8d,0x3c(%rcx)
    348029d6:	45 89 c4             	mov    %r8d,%r12d
    348029d9:	44 0f af e7          	imul   %edi,%r12d
    348029dd:	44 89 61 40          	mov    %r12d,0x40(%rcx)
    348029e1:	8b 41 24             	mov    0x24(%rcx),%eax
    348029e4:	0f af c7             	imul   %edi,%eax
    348029e7:	89 41 44             	mov    %eax,0x44(%rcx)
    348029ea:	8b 41 1c             	mov    0x1c(%rcx),%eax
    348029ed:	31 d2                	xor    %edx,%edx
    348029ef:	f7 f7                	div    %edi
    348029f1:	85 d2                	test   %edx,%edx
    348029f3:	0f 44 d7             	cmove  %edi,%edx
    348029f6:	89 51 48             	mov    %edx,0x48(%rcx)
    348029f9:	8b 41 20             	mov    0x20(%rcx),%eax
    348029fc:	31 d2                	xor    %edx,%edx
    348029fe:	41 f7 f0             	div    %r8d
    34802a01:	85 d2                	test   %edx,%edx
    34802a03:	41 0f 44 d0          	cmove  %r8d,%edx
    34802a07:	89 51 4c             	mov    %edx,0x4c(%rcx)
    34802a0a:	8b 83 f0 01 00 00    	mov    0x1f0(%rbx),%eax
    34802a10:	44 01 e0             	add    %r12d,%eax
    34802a13:	83 f8 0b             	cmp    $0xb,%eax
    34802a16:	0f 8c 1a 00 00 00    	jl     34802a36 <.LBB7_8>
    34802a1c:	48 8b 03             	mov    (%rbx),%rax
    34802a1f:	c7 40 28 0e 00 00 00 	movl   $0xe,0x28(%rax)
    34802a26:	48 8b 03             	mov    (%rbx),%rax
    34802a29:	48 89 df             	mov    %rbx,%rdi
    34802a2c:	48 89 34 24          	mov    %rsi,(%rsp)
    34802a30:	ff 10                	callq  *(%rax)
    34802a32:	48 8b 34 24          	mov    (%rsp),%rsi

0000000034802a36 <.LBB7_8>:
    34802a36:	45 85 e4             	test   %r12d,%r12d
    34802a39:	0f 8e 35 00 00 00    	jle    34802a74 <.LBB7_11>
    34802a3f:	41 ff c4             	inc    %r12d
    34802a42:	66 66 66 66 66 2e 0f 	data32 data32 data32 data32 nopw %cs:0x0(%rax,%rax,1)
    34802a49:	1f 84 00 00 00 00 00 

0000000034802a50 <.LBB7_10>:
    34802a50:	48 63 83 f0 01 00 00 	movslq 0x1f0(%rbx),%rax
    34802a57:	8d 48 01             	lea    0x1(%rax),%ecx
    34802a5a:	89 8b f0 01 00 00    	mov    %ecx,0x1f0(%rbx)
    34802a60:	89 b4 83 f4 01 00 00 	mov    %esi,0x1f4(%rbx,%rax,4)
    34802a67:	41 ff cc             	dec    %r12d
    34802a6a:	41 83 fc 01          	cmp    $0x1,%r12d
    34802a6e:	0f 8f dc ff ff ff    	jg     34802a50 <.LBB7_10>

0000000034802a74 <.LBB7_11>:
    34802a74:	48 ff c6             	inc    %rsi
    34802a77:	48 63 83 c0 01 00 00 	movslq 0x1c0(%rbx),%rax
    34802a7e:	48 39 c6             	cmp    %rax,%rsi
    34802a81:	0f 8c 39 ff ff ff    	jl     348029c0 <.LBB7_6>

0000000034802a87 <.LBB7_12>:
    34802a87:	48 83 c4 08          	add    $0x8,%rsp
    34802a8b:	5b                   	pop    %rbx
    34802a8c:	41 5c                	pop    %r12
    34802a8e:	c3                   	retq   
    34802a8f:	90                   	nop

0000000034802a90 <latch_quant_tables>:
    34802a90:	41 54                	push   %r12
    34802a92:	53                   	push   %rbx
    34802a93:	48 83 ec 18          	sub    $0x18,%rsp
    34802a97:	48 89 fb             	mov    %rdi,%rbx
    34802a9a:	83 bb c0 01 00 00 00 	cmpl   $0x0,0x1c0(%rbx)
    34802aa1:	0f 8e ba 00 00 00    	jle    34802b61 <.LBB8_8>
    34802aa7:	45 31 e4             	xor    %r12d,%r12d
    34802aaa:	66 0f 1f 44 00 00    	nopw   0x0(%rax,%rax,1)

0000000034802ab0 <.LBB8_2>:
    34802ab0:	4a 8b 84 e3 c8 01 00 	mov    0x1c8(%rbx,%r12,8),%rax
    34802ab7:	00 
    34802ab8:	48 83 78 50 00       	cmpq   $0x0,0x50(%rax)
    34802abd:	0f 85 8b 00 00 00    	jne    34802b4e <.LBB8_7>
    34802ac3:	48 89 44 24 10       	mov    %rax,0x10(%rsp)
    34802ac8:	48 63 48 10          	movslq 0x10(%rax),%rcx
    34802acc:	48 89 c8             	mov    %rcx,%rax
    34802acf:	48 89 04 24          	mov    %rax,(%rsp)
    34802ad3:	48 83 f9 03          	cmp    $0x3,%rcx
    34802ad7:	0f 87 13 00 00 00    	ja     34802af0 <.LBB8_5>
    34802add:	48 8b 04 24          	mov    (%rsp),%rax
    34802ae1:	48 83 bc c3 c8 00 00 	cmpq   $0x0,0xc8(%rbx,%rax,8)
    34802ae8:	00 00 
    34802aea:	0f 85 1c 00 00 00    	jne    34802b0c <.LBB8_6>

0000000034802af0 <.LBB8_5>:
    34802af0:	48 8b 03             	mov    (%rbx),%rax
    34802af3:	c7 40 28 36 00 00 00 	movl   $0x36,0x28(%rax)
    34802afa:	48 8b 03             	mov    (%rbx),%rax
    34802afd:	48 8b 0c 24          	mov    (%rsp),%rcx
    34802b01:	89 48 2c             	mov    %ecx,0x2c(%rax)
    34802b04:	48 8b 03             	mov    (%rbx),%rax
    34802b07:	48 89 df             	mov    %rbx,%rdi
    34802b0a:	ff 10                	callq  *(%rax)

0000000034802b0c <.LBB8_6>:
    34802b0c:	48 8b 43 08          	mov    0x8(%rbx),%rax
    34802b10:	be 01 00 00 00       	mov    $0x1,%esi
    34802b15:	ba 84 00 00 00       	mov    $0x84,%edx
    34802b1a:	48 89 df             	mov    %rbx,%rdi
    34802b1d:	ff 10                	callq  *(%rax)
    34802b1f:	48 89 c1             	mov    %rax,%rcx
    34802b22:	48 89 4c 24 08       	mov    %rcx,0x8(%rsp)
    34802b27:	48 8b 04 24          	mov    (%rsp),%rax
    34802b2b:	48 8b b4 c3 c8 00 00 	mov    0xc8(%rbx,%rax,8),%rsi
    34802b32:	00 
    34802b33:	ba 84 00 00 00       	mov    $0x84,%edx
    34802b38:	48 89 cf             	mov    %rcx,%rdi
    34802b3b:	e8 20 c0 01 00       	callq  3481eb60 <memcpy>
    34802b40:	48 8b 44 24 10       	mov    0x10(%rsp),%rax
    34802b45:	48 8b 4c 24 08       	mov    0x8(%rsp),%rcx
    34802b4a:	48 89 48 50          	mov    %rcx,0x50(%rax)

0000000034802b4e <.LBB8_7>:
    34802b4e:	49 ff c4             	inc    %r12
    34802b51:	48 63 83 c0 01 00 00 	movslq 0x1c0(%rbx),%rax
    34802b58:	49 39 c4             	cmp    %rax,%r12
    34802b5b:	0f 8c 4f ff ff ff    	jl     34802ab0 <.LBB8_2>

0000000034802b61 <.LBB8_8>:
    34802b61:	48 83 c4 18          	add    $0x18,%rsp
    34802b65:	5b                   	pop    %rbx
    34802b66:	41 5c                	pop    %r12
    34802b68:	c3                   	retq   
    34802b69:	0f 1f 80 00 00 00 00 	nopl   0x0(%rax)

0000000034802b70 <jpeg_resync_to_restart>:
    34802b70:	41 54                	push   %r12
    34802b72:	53                   	push   %rbx
    34802b73:	48 83 ec 28          	sub    $0x28,%rsp
    34802b77:	41 89 f4             	mov    %esi,%r12d
    34802b7a:	48 89 fb             	mov    %rdi,%rbx
    34802b7d:	8b 8b 3c 02 00 00    	mov    0x23c(%rbx),%ecx
    34802b83:	89 4c 24 0c          	mov    %ecx,0xc(%rsp)
    34802b87:	48 8b 03             	mov    (%rbx),%rax
    34802b8a:	c7 40 28 7c 00 00 00 	movl   $0x7c,0x28(%rax)
    34802b91:	48 8b 03             	mov    (%rbx),%rax
    34802b94:	89 48 2c             	mov    %ecx,0x2c(%rax)
    34802b97:	48 8b 03             	mov    (%rbx),%rax
    34802b9a:	44 89 60 30          	mov    %r12d,0x30(%rax)
    34802b9e:	48 8b 03             	mov    (%rbx),%rax
    34802ba1:	be ff ff ff ff       	mov    $0xffffffff,%esi
    34802ba6:	ff 50 08             	callq  *0x8(%rax)
    34802ba9:	8b 7c 24 0c          	mov    0xc(%rsp),%edi
    34802bad:	41 8d 54 24 01       	lea    0x1(%r12),%edx
    34802bb2:	83 e2 07             	and    $0x7,%edx
    34802bb5:	81 ca d0 00 00 00    	or     $0xd0,%edx
    34802bbb:	45 8d 5c 24 02       	lea    0x2(%r12),%r11d
    34802bc0:	41 83 e3 07          	and    $0x7,%r11d
    34802bc4:	41 81 cb d0 00 00 00 	or     $0xd0,%r11d
    34802bcb:	41 8d 74 24 07       	lea    0x7(%r12),%esi
    34802bd0:	83 e6 07             	and    $0x7,%esi
    34802bd3:	81 ce d0 00 00 00    	or     $0xd0,%esi
    34802bd9:	41 83 c4 06          	add    $0x6,%r12d
    34802bdd:	41 83 e4 07          	and    $0x7,%r12d
    34802be1:	41 81 cc d0 00 00 00 	or     $0xd0,%r12d
    34802be8:	4c 89 64 24 20       	mov    %r12,0x20(%rsp)
    34802bed:	89 54 24 18          	mov    %edx,0x18(%rsp)
    34802bf1:	44 89 5c 24 14       	mov    %r11d,0x14(%rsp)
    34802bf6:	89 74 24 10          	mov    %esi,0x10(%rsp)
    34802bfa:	e9 19 00 00 00       	jmpq   34802c18 <.LBB0_1>
    34802bff:	90                   	nop

0000000034802c00 <.LBB0_10>:
    34802c00:	8b bb 3c 02 00 00    	mov    0x23c(%rbx),%edi
    34802c06:	4c 8b 64 24 20       	mov    0x20(%rsp),%r12
    34802c0b:	8b 54 24 18          	mov    0x18(%rsp),%edx
    34802c0f:	44 8b 5c 24 14       	mov    0x14(%rsp),%r11d
    34802c14:	8b 74 24 10          	mov    0x10(%rsp),%esi

0000000034802c18 <.LBB0_1>:
    34802c18:	81 ff c0 00 00 00    	cmp    $0xc0,%edi
    34802c1e:	41 0f 9c c0          	setl   %r8b
    34802c22:	89 f9                	mov    %edi,%ecx
    34802c24:	83 e1 f8             	and    $0xfffffff8,%ecx
    34802c27:	81 f9 d0 00 00 00    	cmp    $0xd0,%ecx
    34802c2d:	0f 95 c0             	setne  %al
    34802c30:	39 d7                	cmp    %edx,%edi
    34802c32:	41 0f 94 c2          	sete   %r10b
    34802c36:	39 f7                	cmp    %esi,%edi
    34802c38:	41 0f 94 c1          	sete   %r9b
    34802c3c:	44 39 e7             	cmp    %r12d,%edi
    34802c3f:	0f 94 c2             	sete   %dl
    34802c42:	44 08 c0             	or     %r8b,%al
    34802c45:	89 c1                	mov    %eax,%ecx
    34802c47:	44 08 d1             	or     %r10b,%cl
    34802c4a:	44 20 c1             	and    %r8b,%cl
    34802c4d:	0f b6 c9             	movzbl %cl,%ecx
    34802c50:	be 03 00 00 00       	mov    $0x3,%esi
    34802c55:	29 ce                	sub    %ecx,%esi
    34802c57:	44 08 ca             	or     %r9b,%dl
    34802c5a:	0f b6 ca             	movzbl %dl,%ecx
    34802c5d:	ff c1                	inc    %ecx
    34802c5f:	44 39 df             	cmp    %r11d,%edi
    34802c62:	0f 44 ce             	cmove  %esi,%ecx
    34802c65:	44 08 d0             	or     %r10b,%al
    34802c68:	0f 45 ce             	cmovne %esi,%ecx
    34802c6b:	89 4c 24 1c          	mov    %ecx,0x1c(%rsp)
    34802c6f:	89 7c 24 0c          	mov    %edi,0xc(%rsp)
    34802c73:	66 66 66 66 2e 0f 1f 	data32 data32 data32 nopw %cs:0x0(%rax,%rax,1)
    34802c7a:	84 00 00 00 00 00 

0000000034802c80 <.LBB0_2>:
    34802c80:	48 8b 03             	mov    (%rbx),%rax
    34802c83:	c7 40 28 63 00 00 00 	movl   $0x63,0x28(%rax)
    34802c8a:	48 8b 03             	mov    (%rbx),%rax
    34802c8d:	89 78 2c             	mov    %edi,0x2c(%rax)
    34802c90:	48 8b 03             	mov    (%rbx),%rax
    34802c93:	48 89 df             	mov    %rbx,%rdi
    34802c96:	8b 5c 24 1c          	mov    0x1c(%rsp),%ebx
    34802c9a:	89 58 30             	mov    %ebx,0x30(%rax)
    34802c9d:	48 8b 07             	mov    (%rdi),%rax
    34802ca0:	be 04 00 00 00       	mov    $0x4,%esi
    34802ca5:	49 89 fc             	mov    %rdi,%r12
    34802ca8:	ff 50 08             	callq  *0x8(%rax)
    34802cab:	89 d8                	mov    %ebx,%eax
    34802cad:	24 03                	and    $0x3,%al
    34802caf:	3c 03                	cmp    $0x3,%al
    34802cb1:	0f 84 4d 00 00 00    	je     34802d04 <.LBB0_6>
    34802cb7:	3c 02                	cmp    $0x2,%al
    34802cb9:	0f 84 21 00 00 00    	je     34802ce0 <.LBB0_8>
    34802cbf:	3c 01                	cmp    $0x1,%al
    34802cc1:	8b 7c 24 0c          	mov    0xc(%rsp),%edi
    34802cc5:	4c 89 e3             	mov    %r12,%rbx
    34802cc8:	0f 85 b2 ff ff ff    	jne    34802c80 <.LBB0_2>
    34802cce:	e9 27 00 00 00       	jmpq   34802cfa <.LBB0_5>
    34802cd3:	66 66 66 66 2e 0f 1f 	data32 data32 data32 nopw %cs:0x0(%rax,%rax,1)
    34802cda:	84 00 00 00 00 00 

0000000034802ce0 <.LBB0_8>:
    34802ce0:	4c 89 e3             	mov    %r12,%rbx
    34802ce3:	48 89 df             	mov    %rbx,%rdi
    34802ce6:	e8 35 00 00 00       	callq  34802d20 <next_marker>
    34802ceb:	85 c0                	test   %eax,%eax
    34802ced:	0f 85 0d ff ff ff    	jne    34802c00 <.LBB0_10>
    34802cf3:	31 c0                	xor    %eax,%eax
    34802cf5:	e9 0f 00 00 00       	jmpq   34802d09 <.LBB0_7>

0000000034802cfa <.LBB0_5>:
    34802cfa:	c7 83 3c 02 00 00 00 	movl   $0x0,0x23c(%rbx)
    34802d01:	00 00 00 

0000000034802d04 <.LBB0_6>:
    34802d04:	b8 01 00 00 00       	mov    $0x1,%eax

0000000034802d09 <.LBB0_7>:
    34802d09:	48 83 c4 28          	add    $0x28,%rsp
    34802d0d:	5b                   	pop    %rbx
    34802d0e:	41 5c                	pop    %r12
    34802d10:	c3                   	retq   
    34802d11:	66 66 66 66 66 66 2e 	data32 data32 data32 data32 data32 nopw %cs:0x0(%rax,%rax,1)
    34802d18:	0f 1f 84 00 00 00 00 
    34802d1f:	00 

0000000034802d20 <next_marker>:
    34802d20:	41 54                	push   %r12
    34802d22:	53                   	push   %rbx
    34802d23:	48 83 ec 18          	sub    $0x18,%rsp
    34802d27:	48 8b 57 28          	mov    0x28(%rdi),%rdx
    34802d2b:	4c 8b 22             	mov    (%rdx),%r12
    34802d2e:	48 8b 5a 08          	mov    0x8(%rdx),%rbx
    34802d32:	48 89 3c 24          	mov    %rdi,(%rsp)
    34802d36:	48 85 db             	test   %rbx,%rbx
    34802d39:	0f 85 22 00 00 00    	jne    34802d61 <.LBB1_5>
    34802d3f:	e9 cc 00 00 00       	jmpq   34802e10 <.LBB1_3>
    34802d44:	66 66 66 2e 0f 1f 84 	data32 data32 nopw %cs:0x0(%rax,%rax,1)
    34802d4b:	00 00 00 00 00 

0000000034802d50 <.LBB1_4>:
    34802d50:	4c 8b 23             	mov    (%rbx),%r12
    34802d53:	48 89 d8             	mov    %rbx,%rax
    34802d56:	48 8b 58 08          	mov    0x8(%rax),%rbx
    34802d5a:	48 89 c2             	mov    %rax,%rdx
    34802d5d:	48 8b 3c 24          	mov    (%rsp),%rdi

0000000034802d61 <.LBB1_5>:
    34802d61:	48 ff cb             	dec    %rbx
    34802d64:	41 80 3c 24 ff       	cmpb   $0xff,(%r12)
    34802d69:	4d 8d 64 24 01       	lea    0x1(%r12),%r12
    34802d6e:	0f 84 2c 00 00 00    	je     34802da0 <.LBB1_9>
    34802d74:	48 8b 87 68 02 00 00 	mov    0x268(%rdi),%rax
    34802d7b:	ff 40 24             	incl   0x24(%rax)
    34802d7e:	4c 89 22             	mov    %r12,(%rdx)
    34802d81:	48 89 5a 08          	mov    %rbx,0x8(%rdx)
    34802d85:	48 85 db             	test   %rbx,%rbx
    34802d88:	0f 85 d3 ff ff ff    	jne    34802d61 <.LBB1_5>
    34802d8e:	e9 7d 00 00 00       	jmpq   34802e10 <.LBB1_3>
    34802d93:	66 66 66 66 2e 0f 1f 	data32 data32 data32 nopw %cs:0x0(%rax,%rax,1)
    34802d9a:	84 00 00 00 00 00 

0000000034802da0 <.LBB1_9>:
    34802da0:	48 85 db             	test   %rbx,%rbx
    34802da3:	0f 85 1f 00 00 00    	jne    34802dc8 <.LBB1_12>
    34802da9:	48 89 d3             	mov    %rdx,%rbx
    34802dac:	ff 53 18             	callq  *0x18(%rbx)
    34802daf:	85 c0                	test   %eax,%eax
    34802db1:	0f 84 67 00 00 00    	je     34802e1e <.LBB1_8>
    34802db7:	4c 8b 23             	mov    (%rbx),%r12
    34802dba:	48 89 d8             	mov    %rbx,%rax
    34802dbd:	48 8b 58 08          	mov    0x8(%rax),%rbx
    34802dc1:	48 89 c2             	mov    %rax,%rdx
    34802dc4:	48 8b 3c 24          	mov    (%rsp),%rdi

0000000034802dc8 <.LBB1_12>:
    34802dc8:	48 ff cb             	dec    %rbx
    34802dcb:	41 0f b6 34 24       	movzbl (%r12),%esi
    34802dd0:	49 ff c4             	inc    %r12
    34802dd3:	81 fe ff 00 00 00    	cmp    $0xff,%esi
    34802dd9:	0f 84 c1 ff ff ff    	je     34802da0 <.LBB1_9>
    34802ddf:	40 84 f6             	test   %sil,%sil
    34802de2:	48 8b 8f 68 02 00 00 	mov    0x268(%rdi),%rcx
    34802de9:	8b 41 24             	mov    0x24(%rcx),%eax
    34802dec:	0f 85 36 00 00 00    	jne    34802e28 <.LBB1_13>
    34802df2:	83 c0 02             	add    $0x2,%eax
    34802df5:	89 41 24             	mov    %eax,0x24(%rcx)
    34802df8:	4c 89 22             	mov    %r12,(%rdx)
    34802dfb:	48 89 5a 08          	mov    %rbx,0x8(%rdx)
    34802dff:	48 85 db             	test   %rbx,%rbx
    34802e02:	0f 85 59 ff ff ff    	jne    34802d61 <.LBB1_5>
    34802e08:	0f 1f 84 00 00 00 00 	nopl   0x0(%rax,%rax,1)
    34802e0f:	00 

0000000034802e10 <.LBB1_3>:
    34802e10:	48 89 d3             	mov    %rdx,%rbx
    34802e13:	ff 53 18             	callq  *0x18(%rbx)
    34802e16:	85 c0                	test   %eax,%eax
    34802e18:	0f 85 32 ff ff ff    	jne    34802d50 <.LBB1_4>

0000000034802e1e <.LBB1_8>:
    34802e1e:	31 c0                	xor    %eax,%eax

0000000034802e20 <.LBB1_16>:
    34802e20:	48 83 c4 18          	add    $0x18,%rsp
    34802e24:	5b                   	pop    %rbx
    34802e25:	41 5c                	pop    %r12
    34802e27:	c3                   	retq   

0000000034802e28 <.LBB1_13>:
    34802e28:	85 c0                	test   %eax,%eax
    34802e2a:	0f 84 53 00 00 00    	je     34802e83 <.LBB1_15>
    34802e30:	48 8b 07             	mov    (%rdi),%rax
    34802e33:	c7 40 28 77 00 00 00 	movl   $0x77,0x28(%rax)
    34802e3a:	48 8b 87 68 02 00 00 	mov    0x268(%rdi),%rax
    34802e41:	8b 40 24             	mov    0x24(%rax),%eax
    34802e44:	48 8b 0f             	mov    (%rdi),%rcx
    34802e47:	89 41 2c             	mov    %eax,0x2c(%rcx)
    34802e4a:	48 8b 07             	mov    (%rdi),%rax
    34802e4d:	89 70 30             	mov    %esi,0x30(%rax)
    34802e50:	48 8b 07             	mov    (%rdi),%rax
    34802e53:	89 74 24 0c          	mov    %esi,0xc(%rsp)
    34802e57:	be ff ff ff ff       	mov    $0xffffffff,%esi
    34802e5c:	48 8b 3c 24          	mov    (%rsp),%rdi
    34802e60:	48 89 54 24 10       	mov    %rdx,0x10(%rsp)
    34802e65:	ff 50 08             	callq  *0x8(%rax)
    34802e68:	8b 74 24 0c          	mov    0xc(%rsp),%esi
    34802e6c:	48 8b 3c 24          	mov    (%rsp),%rdi
    34802e70:	48 8b 54 24 10       	mov    0x10(%rsp),%rdx
    34802e75:	48 8b 87 68 02 00 00 	mov    0x268(%rdi),%rax
    34802e7c:	c7 40 24 00 00 00 00 	movl   $0x0,0x24(%rax)

0000000034802e83 <.LBB1_15>:
    34802e83:	89 b7 3c 02 00 00    	mov    %esi,0x23c(%rdi)
    34802e89:	4c 89 22             	mov    %r12,(%rdx)
    34802e8c:	48 89 5a 08          	mov    %rbx,0x8(%rdx)
    34802e90:	b8 01 00 00 00       	mov    $0x1,%eax
    34802e95:	e9 86 ff ff ff       	jmpq   34802e20 <.LBB1_16>
    34802e9a:	66 0f 1f 44 00 00    	nopw   0x0(%rax,%rax,1)

0000000034802ea0 <jinit_marker_reader>:
    34802ea0:	53                   	push   %rbx
    34802ea1:	48 89 fb             	mov    %rdi,%rbx
    34802ea4:	48 8b 43 08          	mov    0x8(%rbx),%rax
    34802ea8:	31 f6                	xor    %esi,%esi
    34802eaa:	ba 08 01 00 00       	mov    $0x108,%edx
    34802eaf:	ff 10                	callq  *(%rax)
    34802eb1:	48 89 83 68 02 00 00 	mov    %rax,0x268(%rbx)
    34802eb8:	48 c7 00 30 2f 80 34 	movq   $0x34802f30,(%rax)
    34802ebf:	48 c7 40 08 80 2f 80 	movq   $0x34802f80,0x8(%rax)
    34802ec6:	34 
    34802ec7:	48 c7 40 10 50 33 80 	movq   $0x34803350,0x10(%rax)
    34802ece:	34 
    34802ecf:	48 c7 40 28 00 34 80 	movq   $0x34803400,0x28(%rax)
    34802ed6:	34 
    34802ed7:	c7 80 b0 00 00 00 00 	movl   $0x0,0xb0(%rax)
    34802ede:	00 00 00 
    34802ee1:	48 c7 c1 e0 ff ff ff 	mov    $0xffffffffffffffe0,%rcx
    34802ee8:	0f 1f 84 00 00 00 00 	nopl   0x0(%rax,%rax,1)
    34802eef:	00 

0000000034802ef0 <.LBB2_1>:
    34802ef0:	48 c7 84 88 b0 00 00 	movq   $0x34803400,0xb0(%rax,%rcx,4)
    34802ef7:	00 00 34 80 34 
    34802efc:	c7 84 48 f4 00 00 00 	movl   $0x0,0xf4(%rax,%rcx,2)
    34802f03:	00 00 00 00 
    34802f07:	48 83 c1 02          	add    $0x2,%rcx
    34802f0b:	0f 85 df ff ff ff    	jne    34802ef0 <.LBB2_1>
    34802f11:	48 c7 40 30 10 35 80 	movq   $0x34803510,0x30(%rax)
    34802f18:	34 
    34802f19:	48 c7 80 a0 00 00 00 	movq   $0x34803510,0xa0(%rax)
    34802f20:	10 35 80 34 
    34802f24:	48 89 df             	mov    %rbx,%rdi
    34802f27:	5b                   	pop    %rbx
    34802f28:	e9 03 00 00 00       	jmpq   34802f30 <reset_marker_reader>
    34802f2d:	0f 1f 00             	nopl   (%rax)

0000000034802f30 <reset_marker_reader>:
    34802f30:	48 8b 87 68 02 00 00 	mov    0x268(%rdi),%rax
    34802f37:	48 c7 87 30 01 00 00 	movq   $0x0,0x130(%rdi)
    34802f3e:	00 00 00 00 
    34802f42:	c7 87 ac 00 00 00 00 	movl   $0x0,0xac(%rdi)
    34802f49:	00 00 00 
    34802f4c:	c7 87 3c 02 00 00 00 	movl   $0x0,0x23c(%rdi)
    34802f53:	00 00 00 
    34802f56:	48 c7 40 18 00 00 00 	movq   $0x0,0x18(%rax)
    34802f5d:	00 
    34802f5e:	c7 40 24 00 00 00 00 	movl   $0x0,0x24(%rax)
    34802f65:	48 c7 80 f8 00 00 00 	movq   $0x0,0xf8(%rax)
    34802f6c:	00 00 00 00 
    34802f70:	c3                   	retq   
    34802f71:	66 66 66 66 66 66 2e 	data32 data32 data32 data32 data32 nopw %cs:0x0(%rax,%rax,1)
    34802f78:	0f 1f 84 00 00 00 00 
    34802f7f:	00 

0000000034802f80 <read_markers>:
    34802f80:	41 54                	push   %r12
    34802f82:	53                   	push   %rbx
    34802f83:	50                   	push   %rax
    34802f84:	48 89 fb             	mov    %rdi,%rbx
    34802f87:	8b 83 3c 02 00 00    	mov    0x23c(%rbx),%eax
    34802f8d:	85 c0                	test   %eax,%eax
    34802f8f:	0f 85 af 00 00 00    	jne    34803044 <.LBB4_2>
    34802f95:	e9 66 02 00 00       	jmpq   34803200 <.LBB4_6>

0000000034802f9a <.LBB4_40>:
    34802f9a:	3d da 00 00 00       	cmp    $0xda,%eax
    34802f9f:	0f 84 6f 03 00 00    	je     34803314 <.LBB4_56>
    34802fa5:	e9 3a 02 00 00       	jmpq   348031e4 <.LBB4_54>

0000000034802faa <.LBB4_41>:
    34802faa:	3d f8 00 00 00       	cmp    $0xf8,%eax
    34802faf:	0f 84 5c 00 00 00    	je     34803011 <.LBB4_53>
    34802fb5:	3d fe 00 00 00       	cmp    $0xfe,%eax
    34802fba:	0f 85 24 02 00 00    	jne    348031e4 <.LBB4_54>
    34802fc0:	48 8b 83 68 02 00 00 	mov    0x268(%rbx),%rax
    34802fc7:	48 89 df             	mov    %rbx,%rdi
    34802fca:	ff 50 28             	callq  *0x28(%rax)
    34802fcd:	85 c0                	test   %eax,%eax
    34802fcf:	0f 85 5b 00 00 00    	jne    34803030 <.LBB4_1>
    34802fd5:	e9 5f 03 00 00       	jmpq   34803339 <.LBB4_61>

0000000034802fda <.LBB4_47>:
    34802fda:	48 89 df             	mov    %rbx,%rdi
    34802fdd:	e8 ee 1e 00 00       	callq  34804ed0 <get_dqt>
    34802fe2:	85 c0                	test   %eax,%eax
    34802fe4:	0f 85 46 00 00 00    	jne    34803030 <.LBB4_1>
    34802fea:	e9 4a 03 00 00       	jmpq   34803339 <.LBB4_61>

0000000034802fef <.LBB4_48>:
    34802fef:	48 89 df             	mov    %rbx,%rdi
    34802ff2:	e8 09 04 00 00       	callq  34803400 <skip_variable>
    34802ff7:	85 c0                	test   %eax,%eax
    34802ff9:	0f 85 31 00 00 00    	jne    34803030 <.LBB4_1>
    34802fff:	e9 35 03 00 00       	jmpq   34803339 <.LBB4_61>

0000000034803004 <.LBB4_52>:
    34803004:	48 89 df             	mov    %rbx,%rdi
    34803007:	e8 c4 0c 00 00       	callq  34803cd0 <get_soi>
    3480300c:	e9 1f 00 00 00       	jmpq   34803030 <.LBB4_1>

0000000034803011 <.LBB4_53>:
    34803011:	48 89 df             	mov    %rbx,%rdi
    34803014:	e8 37 25 00 00       	callq  34805550 <get_lse>
    34803019:	85 c0                	test   %eax,%eax
    3480301b:	0f 84 18 03 00 00    	je     34803339 <.LBB4_61>
    34803021:	66 66 66 66 66 66 2e 	data32 data32 data32 data32 data32 nopw %cs:0x0(%rax,%rax,1)
    34803028:	0f 1f 84 00 00 00 00 
    3480302f:	00 

0000000034803030 <.LBB4_1>:
    34803030:	c7 83 3c 02 00 00 00 	movl   $0x0,0x23c(%rbx)
    34803037:	00 00 00 
    3480303a:	31 c0                	xor    %eax,%eax
    3480303c:	85 c0                	test   %eax,%eax
    3480303e:	0f 84 bc 01 00 00    	je     34803200 <.LBB4_6>

0000000034803044 <.LBB4_2>:
    34803044:	3d d7 00 00 00       	cmp    $0xd7,%eax
    34803049:	0f 8f 02 02 00 00    	jg     34803251 <.LBB4_16>

000000003480304f <.LBB4_3>:
    3480304f:	3d ca 00 00 00       	cmp    $0xca,%eax
    34803054:	0f 8e 36 00 00 00    	jle    34803090 <.LBB4_8>
    3480305a:	3d cf 00 00 00       	cmp    $0xcf,%eax
    3480305f:	0f 8e ab 00 00 00    	jle    34803110 <.LBB4_28>

0000000034803065 <.LBB4_5>:
    34803065:	48 8b 03             	mov    (%rbx),%rax
    34803068:	c7 40 28 5e 00 00 00 	movl   $0x5e,0x28(%rax)
    3480306f:	8b 83 3c 02 00 00    	mov    0x23c(%rbx),%eax
    34803075:	48 8b 0b             	mov    (%rbx),%rcx
    34803078:	89 41 2c             	mov    %eax,0x2c(%rcx)
    3480307b:	48 8b 03             	mov    (%rbx),%rax
    3480307e:	be 01 00 00 00       	mov    $0x1,%esi
    34803083:	48 89 df             	mov    %rbx,%rdi
    34803086:	ff 50 08             	callq  *0x8(%rax)
    34803089:	e9 a2 ff ff ff       	jmpq   34803030 <.LBB4_1>
    3480308e:	66 90                	xchg   %ax,%ax

0000000034803090 <.LBB4_8>:
    34803090:	3d c4 00 00 00       	cmp    $0xc4,%eax
    34803095:	0f 8f 35 00 00 00    	jg     348030d0 <.LBB4_19>
    3480309b:	3d c1 00 00 00       	cmp    $0xc1,%eax
    348030a0:	0f 8f a4 00 00 00    	jg     3480314a <.LBB4_32>
    348030a6:	83 f8 01             	cmp    $0x1,%eax
    348030a9:	0f 84 b6 ff ff ff    	je     34803065 <.LBB4_5>
    348030af:	3d c0 00 00 00       	cmp    $0xc0,%eax
    348030b4:	0f 84 e9 00 00 00    	je     348031a3 <.LBB4_44>
    348030ba:	3d c1 00 00 00       	cmp    $0xc1,%eax
    348030bf:	0f 85 1f 01 00 00    	jne    348031e4 <.LBB4_54>
    348030c5:	45 31 e4             	xor    %r12d,%r12d
    348030c8:	31 f6                	xor    %esi,%esi
    348030ca:	e9 dc 00 00 00       	jmpq   348031ab <.LBB4_45>
    348030cf:	90                   	nop

00000000348030d0 <.LBB4_19>:
    348030d0:	8d 88 3b ff ff ff    	lea    -0xc5(%rax),%ecx
    348030d6:	83 f9 04             	cmp    $0x4,%ecx
    348030d9:	0f 82 a1 00 00 00    	jb     34803180 <.LBB4_36>
    348030df:	3d c9 00 00 00       	cmp    $0xc9,%eax
    348030e4:	0f 84 c8 00 00 00    	je     348031b2 <.LBB4_46>
    348030ea:	3d ca 00 00 00       	cmp    $0xca,%eax
    348030ef:	0f 85 ef 00 00 00    	jne    348031e4 <.LBB4_54>
    348030f5:	45 31 e4             	xor    %r12d,%r12d
    348030f8:	31 f6                	xor    %esi,%esi
    348030fa:	ba 01 00 00 00       	mov    $0x1,%edx
    348030ff:	b9 01 00 00 00       	mov    $0x1,%ecx
    34803104:	e9 c6 00 00 00       	jmpq   348031cf <.LBB4_51>
    34803109:	0f 1f 80 00 00 00 00 	nopl   0x0(%rax)

0000000034803110 <.LBB4_28>:
    34803110:	8d 88 33 ff ff ff    	lea    -0xcd(%rax),%ecx
    34803116:	83 f9 03             	cmp    $0x3,%ecx
    34803119:	0f 82 61 00 00 00    	jb     34803180 <.LBB4_36>
    3480311f:	3d cb 00 00 00       	cmp    $0xcb,%eax
    34803124:	0f 84 56 00 00 00    	je     34803180 <.LBB4_36>
    3480312a:	3d cc 00 00 00       	cmp    $0xcc,%eax
    3480312f:	0f 85 af 00 00 00    	jne    348031e4 <.LBB4_54>
    34803135:	48 89 df             	mov    %rbx,%rdi
    34803138:	e8 93 16 00 00       	callq  348047d0 <get_dac>
    3480313d:	85 c0                	test   %eax,%eax
    3480313f:	0f 85 eb fe ff ff    	jne    34803030 <.LBB4_1>
    34803145:	e9 ef 01 00 00       	jmpq   34803339 <.LBB4_61>

000000003480314a <.LBB4_32>:
    3480314a:	3d c2 00 00 00       	cmp    $0xc2,%eax
    3480314f:	0f 84 6e 00 00 00    	je     348031c3 <.LBB4_49>
    34803155:	3d c3 00 00 00       	cmp    $0xc3,%eax
    3480315a:	0f 84 20 00 00 00    	je     34803180 <.LBB4_36>
    34803160:	3d c4 00 00 00       	cmp    $0xc4,%eax
    34803165:	0f 85 79 00 00 00    	jne    348031e4 <.LBB4_54>
    3480316b:	48 89 df             	mov    %rbx,%rdi
    3480316e:	e8 ed 18 00 00       	callq  34804a60 <get_dht>
    34803173:	85 c0                	test   %eax,%eax
    34803175:	0f 85 b5 fe ff ff    	jne    34803030 <.LBB4_1>
    3480317b:	e9 b9 01 00 00       	jmpq   34803339 <.LBB4_61>

0000000034803180 <.LBB4_36>:
    34803180:	48 8b 03             	mov    (%rbx),%rax
    34803183:	c7 40 28 3f 00 00 00 	movl   $0x3f,0x28(%rax)

000000003480318a <.LBB4_37>:
    3480318a:	8b 83 3c 02 00 00    	mov    0x23c(%rbx),%eax
    34803190:	48 8b 0b             	mov    (%rbx),%rcx
    34803193:	89 41 2c             	mov    %eax,0x2c(%rcx)
    34803196:	48 8b 03             	mov    (%rbx),%rax
    34803199:	48 89 df             	mov    %rbx,%rdi
    3480319c:	ff 10                	callq  *(%rax)
    3480319e:	e9 8d fe ff ff       	jmpq   34803030 <.LBB4_1>

00000000348031a3 <.LBB4_44>:
    348031a3:	45 31 e4             	xor    %r12d,%r12d
    348031a6:	be 01 00 00 00       	mov    $0x1,%esi

00000000348031ab <.LBB4_45>:
    348031ab:	31 d2                	xor    %edx,%edx
    348031ad:	e9 1b 00 00 00       	jmpq   348031cd <.LBB4_50>

00000000348031b2 <.LBB4_46>:
    348031b2:	45 31 e4             	xor    %r12d,%r12d
    348031b5:	31 f6                	xor    %esi,%esi
    348031b7:	31 d2                	xor    %edx,%edx
    348031b9:	b9 01 00 00 00       	mov    $0x1,%ecx
    348031be:	e9 0c 00 00 00       	jmpq   348031cf <.LBB4_51>

00000000348031c3 <.LBB4_49>:
    348031c3:	45 31 e4             	xor    %r12d,%r12d
    348031c6:	31 f6                	xor    %esi,%esi
    348031c8:	ba 01 00 00 00       	mov    $0x1,%edx

00000000348031cd <.LBB4_50>:
    348031cd:	31 c9                	xor    %ecx,%ecx

00000000348031cf <.LBB4_51>:
    348031cf:	48 89 df             	mov    %rbx,%rdi
    348031d2:	e8 b9 0b 00 00       	callq  34803d90 <get_sof>
    348031d7:	85 c0                	test   %eax,%eax
    348031d9:	0f 85 51 fe ff ff    	jne    34803030 <.LBB4_1>
    348031df:	e9 58 01 00 00       	jmpq   3480333c <.LBB4_62>

00000000348031e4 <.LBB4_54>:
    348031e4:	48 8b 03             	mov    (%rbx),%rax
    348031e7:	c7 40 28 46 00 00 00 	movl   $0x46,0x28(%rax)
    348031ee:	e9 97 ff ff ff       	jmpq   3480318a <.LBB4_37>
    348031f3:	66 66 66 66 2e 0f 1f 	data32 data32 data32 nopw %cs:0x0(%rax,%rax,1)
    348031fa:	84 00 00 00 00 00 

0000000034803200 <.LBB4_6>:
    34803200:	48 8b 83 68 02 00 00 	mov    0x268(%rbx),%rax
    34803207:	83 78 18 00          	cmpl   $0x0,0x18(%rax)
    3480320b:	0f 84 1f 00 00 00    	je     34803230 <.LBB4_14>
    34803211:	48 89 df             	mov    %rbx,%rdi
    34803214:	e8 07 fb ff ff       	callq  34802d20 <next_marker>
    34803219:	85 c0                	test   %eax,%eax
    3480321b:	0f 85 1f 00 00 00    	jne    34803240 <.LBB4_15>
    34803221:	e9 13 01 00 00       	jmpq   34803339 <.LBB4_61>
    34803226:	66 2e 0f 1f 84 00 00 	nopw   %cs:0x0(%rax,%rax,1)
    3480322d:	00 00 00 

0000000034803230 <.LBB4_14>:
    34803230:	48 89 df             	mov    %rbx,%rdi
    34803233:	e8 a8 09 00 00       	callq  34803be0 <first_marker>
    34803238:	85 c0                	test   %eax,%eax
    3480323a:	0f 84 f9 00 00 00    	je     34803339 <.LBB4_61>

0000000034803240 <.LBB4_15>:
    34803240:	8b 83 3c 02 00 00    	mov    0x23c(%rbx),%eax
    34803246:	3d d7 00 00 00       	cmp    $0xd7,%eax
    3480324b:	0f 8e fe fd ff ff    	jle    3480304f <.LBB4_3>

0000000034803251 <.LBB4_16>:
    34803251:	3d df 00 00 00       	cmp    $0xdf,%eax
    34803256:	0f 8e 34 00 00 00    	jle    34803290 <.LBB4_23>
    3480325c:	8d 88 20 ff ff ff    	lea    -0xe0(%rax),%ecx
    34803262:	83 f9 10             	cmp    $0x10,%ecx
    34803265:	0f 83 3f fd ff ff    	jae    34802faa <.LBB4_41>
    3480326b:	48 8b 83 68 02 00 00 	mov    0x268(%rbx),%rax
    34803272:	48 63 8b 3c 02 00 00 	movslq 0x23c(%rbx),%rcx
    34803279:	48 89 df             	mov    %rbx,%rdi
    3480327c:	ff 94 c8 30 f9 ff ff 	callq  *-0x6d0(%rax,%rcx,8)
    34803283:	85 c0                	test   %eax,%eax
    34803285:	0f 85 a5 fd ff ff    	jne    34803030 <.LBB4_1>
    3480328b:	e9 a9 00 00 00       	jmpq   34803339 <.LBB4_61>

0000000034803290 <.LBB4_23>:
    34803290:	3d da 00 00 00       	cmp    $0xda,%eax
    34803295:	0f 8e 36 00 00 00    	jle    348032d1 <.LBB4_38>
    3480329b:	3d db 00 00 00       	cmp    $0xdb,%eax
    348032a0:	0f 84 34 fd ff ff    	je     34802fda <.LBB4_47>
    348032a6:	3d dc 00 00 00       	cmp    $0xdc,%eax
    348032ab:	0f 84 3e fd ff ff    	je     34802fef <.LBB4_48>
    348032b1:	3d dd 00 00 00       	cmp    $0xdd,%eax
    348032b6:	0f 85 28 ff ff ff    	jne    348031e4 <.LBB4_54>
    348032bc:	48 89 df             	mov    %rbx,%rdi
    348032bf:	e8 0c 21 00 00       	callq  348053d0 <get_dri>
    348032c4:	85 c0                	test   %eax,%eax
    348032c6:	0f 85 64 fd ff ff    	jne    34803030 <.LBB4_1>
    348032cc:	e9 68 00 00 00       	jmpq   34803339 <.LBB4_61>

00000000348032d1 <.LBB4_38>:
    348032d1:	3d d8 00 00 00       	cmp    $0xd8,%eax
    348032d6:	0f 84 28 fd ff ff    	je     34803004 <.LBB4_52>
    348032dc:	3d d9 00 00 00       	cmp    $0xd9,%eax
    348032e1:	0f 85 b3 fc ff ff    	jne    34802f9a <.LBB4_40>
    348032e7:	48 8b 03             	mov    (%rbx),%rax
    348032ea:	c7 40 28 57 00 00 00 	movl   $0x57,0x28(%rax)
    348032f1:	48 8b 03             	mov    (%rbx),%rax
    348032f4:	be 01 00 00 00       	mov    $0x1,%esi
    348032f9:	48 89 df             	mov    %rbx,%rdi
    348032fc:	ff 50 08             	callq  *0x8(%rax)
    348032ff:	c7 83 3c 02 00 00 00 	movl   $0x0,0x23c(%rbx)
    34803306:	00 00 00 
    34803309:	41 bc 02 00 00 00    	mov    $0x2,%r12d
    3480330f:	e9 28 00 00 00       	jmpq   3480333c <.LBB4_62>

0000000034803314 <.LBB4_56>:
    34803314:	48 89 df             	mov    %rbx,%rdi
    34803317:	e8 a4 0f 00 00       	callq  348042c0 <get_sos>
    3480331c:	85 c0                	test   %eax,%eax
    3480331e:	0f 84 15 00 00 00    	je     34803339 <.LBB4_61>
    34803324:	c7 83 3c 02 00 00 00 	movl   $0x0,0x23c(%rbx)
    3480332b:	00 00 00 
    3480332e:	41 bc 01 00 00 00    	mov    $0x1,%r12d
    34803334:	e9 03 00 00 00       	jmpq   3480333c <.LBB4_62>

0000000034803339 <.LBB4_61>:
    34803339:	45 31 e4             	xor    %r12d,%r12d

000000003480333c <.LBB4_62>:
    3480333c:	44 89 e0             	mov    %r12d,%eax
    3480333f:	48 83 c4 08          	add    $0x8,%rsp
    34803343:	5b                   	pop    %rbx
    34803344:	41 5c                	pop    %r12
    34803346:	c3                   	retq   
    34803347:	66 0f 1f 84 00 00 00 	nopw   0x0(%rax,%rax,1)
    3480334e:	00 00 

0000000034803350 <read_restart_marker>:
    34803350:	53                   	push   %rbx
    34803351:	48 89 fb             	mov    %rdi,%rbx
    34803354:	83 bb 3c 02 00 00 00 	cmpl   $0x0,0x23c(%rbx)
    3480335b:	0f 85 10 00 00 00    	jne    34803371 <.LBB5_2>
    34803361:	48 89 df             	mov    %rbx,%rdi
    34803364:	e8 b7 f9 ff ff       	callq  34802d20 <next_marker>
    34803369:	85 c0                	test   %eax,%eax
    3480336b:	0f 84 7e 00 00 00    	je     348033ef <.LBB5_6>

0000000034803371 <.LBB5_2>:
    34803371:	48 8b 83 68 02 00 00 	mov    0x268(%rbx),%rax
    34803378:	8b 70 20             	mov    0x20(%rax),%esi
    3480337b:	8d 86 d0 00 00 00    	lea    0xd0(%rsi),%eax
    34803381:	39 83 3c 02 00 00    	cmp    %eax,0x23c(%rbx)
    34803387:	0f 85 37 00 00 00    	jne    348033c4 <.LBB5_5>
    3480338d:	48 8b 03             	mov    (%rbx),%rax
    34803390:	c7 40 28 64 00 00 00 	movl   $0x64,0x28(%rax)
    34803397:	48 8b 83 68 02 00 00 	mov    0x268(%rbx),%rax
    3480339e:	8b 40 20             	mov    0x20(%rax),%eax
    348033a1:	48 8b 0b             	mov    (%rbx),%rcx
    348033a4:	89 41 2c             	mov    %eax,0x2c(%rcx)
    348033a7:	48 8b 03             	mov    (%rbx),%rax
    348033aa:	be 03 00 00 00       	mov    $0x3,%esi
    348033af:	48 89 df             	mov    %rbx,%rdi
    348033b2:	ff 50 08             	callq  *0x8(%rax)
    348033b5:	c7 83 3c 02 00 00 00 	movl   $0x0,0x23c(%rbx)
    348033bc:	00 00 00 
    348033bf:	e9 12 00 00 00       	jmpq   348033d6 <.LBB5_4>

00000000348033c4 <.LBB5_5>:
    348033c4:	48 8b 43 28          	mov    0x28(%rbx),%rax
    348033c8:	48 89 df             	mov    %rbx,%rdi
    348033cb:	ff 50 28             	callq  *0x28(%rax)
    348033ce:	85 c0                	test   %eax,%eax
    348033d0:	0f 84 19 00 00 00    	je     348033ef <.LBB5_6>

00000000348033d6 <.LBB5_4>:
    348033d6:	48 8b 83 68 02 00 00 	mov    0x268(%rbx),%rax
    348033dd:	8b 48 20             	mov    0x20(%rax),%ecx
    348033e0:	ff c1                	inc    %ecx
    348033e2:	83 e1 07             	and    $0x7,%ecx
    348033e5:	89 48 20             	mov    %ecx,0x20(%rax)
    348033e8:	b8 01 00 00 00       	mov    $0x1,%eax
    348033ed:	5b                   	pop    %rbx
    348033ee:	c3                   	retq   

00000000348033ef <.LBB5_6>:
    348033ef:	31 c0                	xor    %eax,%eax
    348033f1:	5b                   	pop    %rbx
    348033f2:	c3                   	retq   
    348033f3:	66 66 66 66 2e 0f 1f 	data32 data32 data32 nopw %cs:0x0(%rax,%rax,1)
    348033fa:	84 00 00 00 00 00 

0000000034803400 <skip_variable>:
    34803400:	41 54                	push   %r12
    34803402:	53                   	push   %rbx
    34803403:	48 83 ec 28          	sub    $0x28,%rsp
    34803407:	48 8b 47 28          	mov    0x28(%rdi),%rax
    3480340b:	4c 8b 60 08          	mov    0x8(%rax),%r12
    3480340f:	4d 85 e4             	test   %r12,%r12
    34803412:	48 89 7c 24 10       	mov    %rdi,0x10(%rsp)
    34803417:	0f 85 1a 00 00 00    	jne    34803437 <.LBB6_3>
    3480341d:	48 89 c3             	mov    %rax,%rbx
    34803420:	ff 53 18             	callq  *0x18(%rbx)
    34803423:	85 c0                	test   %eax,%eax
    34803425:	0f 84 cd 00 00 00    	je     348034f8 <.LBB6_12>
    3480342b:	4c 8b 63 08          	mov    0x8(%rbx),%r12
    3480342f:	48 8b 7c 24 10       	mov    0x10(%rsp),%rdi
    34803434:	48 89 d8             	mov    %rbx,%rax

0000000034803437 <.LBB6_3>:
    34803437:	48 8b 18             	mov    (%rax),%rbx
    3480343a:	0f b6 0b             	movzbl (%rbx),%ecx
    3480343d:	49 ff cc             	dec    %r12
    34803440:	0f 84 0d 00 00 00    	je     34803453 <.LBB6_5>
    34803446:	48 89 44 24 18       	mov    %rax,0x18(%rsp)
    3480344b:	48 ff c3             	inc    %rbx
    3480344e:	e9 2d 00 00 00       	jmpq   34803480 <.LBB6_7>

0000000034803453 <.LBB6_5>:
    34803453:	48 89 4c 24 08       	mov    %rcx,0x8(%rsp)
    34803458:	49 89 c4             	mov    %rax,%r12
    3480345b:	41 ff 54 24 18       	callq  *0x18(%r12)
    34803460:	85 c0                	test   %eax,%eax
    34803462:	0f 84 90 00 00 00    	je     348034f8 <.LBB6_12>
    34803468:	49 8b 1c 24          	mov    (%r12),%rbx
    3480346c:	4c 89 64 24 18       	mov    %r12,0x18(%rsp)
    34803471:	4d 8b 64 24 08       	mov    0x8(%r12),%r12
    34803476:	48 8b 7c 24 10       	mov    0x10(%rsp),%rdi
    3480347b:	48 8b 4c 24 08       	mov    0x8(%rsp),%rcx

0000000034803480 <.LBB6_7>:
    34803480:	48 c1 e1 08          	shl    $0x8,%rcx
    34803484:	49 ff cc             	dec    %r12
    34803487:	0f b6 03             	movzbl (%rbx),%eax
    3480348a:	48 ff c3             	inc    %rbx
    3480348d:	48 09 c8             	or     %rcx,%rax
    34803490:	48 89 44 24 08       	mov    %rax,0x8(%rsp)
    34803495:	48 8d 50 fe          	lea    -0x2(%rax),%rdx
    34803499:	48 8b 07             	mov    (%rdi),%rax
    3480349c:	c7 40 28 5d 00 00 00 	movl   $0x5d,0x28(%rax)
    348034a3:	8b 87 3c 02 00 00    	mov    0x23c(%rdi),%eax
    348034a9:	48 8b 0f             	mov    (%rdi),%rcx
    348034ac:	89 41 2c             	mov    %eax,0x2c(%rcx)
    348034af:	48 8b 07             	mov    (%rdi),%rax
    348034b2:	48 89 54 24 20       	mov    %rdx,0x20(%rsp)
    348034b7:	89 50 30             	mov    %edx,0x30(%rax)
    348034ba:	48 8b 07             	mov    (%rdi),%rax
    348034bd:	be 01 00 00 00       	mov    $0x1,%esi
    348034c2:	ff 50 08             	callq  *0x8(%rax)
    348034c5:	48 8b 44 24 18       	mov    0x18(%rsp),%rax
    348034ca:	48 89 18             	mov    %rbx,(%rax)
    348034cd:	4c 89 60 08          	mov    %r12,0x8(%rax)
    348034d1:	48 83 7c 24 08 03    	cmpq   $0x3,0x8(%rsp)
    348034d7:	0f 82 11 00 00 00    	jb     348034ee <.LBB6_9>
    348034dd:	48 8b 7c 24 10       	mov    0x10(%rsp),%rdi
    348034e2:	48 8b 47 28          	mov    0x28(%rdi),%rax
    348034e6:	48 8b 74 24 20       	mov    0x20(%rsp),%rsi
    348034eb:	ff 50 20             	callq  *0x20(%rax)

00000000348034ee <.LBB6_9>:
    348034ee:	b8 01 00 00 00       	mov    $0x1,%eax
    348034f3:	e9 02 00 00 00       	jmpq   348034fa <.LBB6_10>

00000000348034f8 <.LBB6_12>:
    348034f8:	31 c0                	xor    %eax,%eax

00000000348034fa <.LBB6_10>:
    348034fa:	48 83 c4 28          	add    $0x28,%rsp
    348034fe:	5b                   	pop    %rbx
    348034ff:	41 5c                	pop    %r12
    34803501:	c3                   	retq   
    34803502:	66 66 66 66 66 2e 0f 	data32 data32 data32 data32 nopw %cs:0x0(%rax,%rax,1)
    34803509:	1f 84 00 00 00 00 00 

0000000034803510 <get_interesting_appn>:
    34803510:	41 54                	push   %r12
    34803512:	53                   	push   %rbx
    34803513:	48 83 ec 38          	sub    $0x38,%rsp
    34803517:	48 8b 77 28          	mov    0x28(%rdi),%rsi
    3480351b:	4c 8b 46 08          	mov    0x8(%rsi),%r8
    3480351f:	4d 85 c0             	test   %r8,%r8
    34803522:	48 89 7c 24 18       	mov    %rdi,0x18(%rsp)
    34803527:	0f 85 1a 00 00 00    	jne    34803547 <.LBB7_3>
    3480352d:	48 89 f3             	mov    %rsi,%rbx
    34803530:	ff 53 18             	callq  *0x18(%rbx)
    34803533:	85 c0                	test   %eax,%eax
    34803535:	0f 84 27 01 00 00    	je     34803662 <.LBB7_23>
    3480353b:	4c 8b 43 08          	mov    0x8(%rbx),%r8
    3480353f:	48 8b 7c 24 18       	mov    0x18(%rsp),%rdi
    34803544:	48 89 de             	mov    %rbx,%rsi

0000000034803547 <.LBB7_3>:
    34803547:	4c 8b 0e             	mov    (%rsi),%r9
    3480354a:	41 0f b6 19          	movzbl (%r9),%ebx
    3480354e:	49 ff c8             	dec    %r8
    34803551:	0f 84 08 00 00 00    	je     3480355f <.LBB7_5>
    34803557:	49 ff c1             	inc    %r9
    3480355a:	e9 21 00 00 00       	jmpq   34803580 <.LBB7_7>

000000003480355f <.LBB7_5>:
    3480355f:	49 89 f4             	mov    %rsi,%r12
    34803562:	41 ff 54 24 18       	callq  *0x18(%r12)
    34803567:	85 c0                	test   %eax,%eax
    34803569:	0f 84 f3 00 00 00    	je     34803662 <.LBB7_23>
    3480356f:	4d 8b 0c 24          	mov    (%r12),%r9
    34803573:	4d 8b 44 24 08       	mov    0x8(%r12),%r8
    34803578:	48 8b 7c 24 18       	mov    0x18(%rsp),%rdi
    3480357d:	4c 89 e6             	mov    %r12,%rsi

0000000034803580 <.LBB7_7>:
    34803580:	48 c1 e3 08          	shl    $0x8,%rbx
    34803584:	41 0f b6 01          	movzbl (%r9),%eax
    34803588:	48 09 d8             	or     %rbx,%rax
    3480358b:	48 8d 50 fe          	lea    -0x2(%rax),%rdx
    3480358f:	31 c9                	xor    %ecx,%ecx
    34803591:	48 83 f8 02          	cmp    $0x2,%rax
    34803595:	48 89 54 24 08       	mov    %rdx,0x8(%rsp)
    3480359a:	0f 46 d1             	cmovbe %ecx,%edx
    3480359d:	48 83 f8 0f          	cmp    $0xf,%rax
    348035a1:	b8 0e 00 00 00       	mov    $0xe,%eax
    348035a6:	0f 46 c2             	cmovbe %edx,%eax
    348035a9:	49 ff c1             	inc    %r9
    348035ac:	49 ff c8             	dec    %r8
    348035af:	85 c0                	test   %eax,%eax
    348035b1:	89 44 24 24          	mov    %eax,0x24(%rsp)
    348035b5:	0f 84 5e 00 00 00    	je     34803619 <.LBB7_13>
    348035bb:	89 c1                	mov    %eax,%ecx
    348035bd:	31 db                	xor    %ebx,%ebx
    348035bf:	48 89 4c 24 10       	mov    %rcx,0x10(%rsp)
    348035c4:	66 66 66 2e 0f 1f 84 	data32 data32 nopw %cs:0x0(%rax,%rax,1)
    348035cb:	00 00 00 00 00 

00000000348035d0 <.LBB7_9>:
    348035d0:	4d 85 c0             	test   %r8,%r8
    348035d3:	0f 85 26 00 00 00    	jne    348035ff <.LBB7_12>
    348035d9:	49 89 f4             	mov    %rsi,%r12
    348035dc:	41 ff 54 24 18       	callq  *0x18(%r12)
    348035e1:	85 c0                	test   %eax,%eax
    348035e3:	0f 84 79 00 00 00    	je     34803662 <.LBB7_23>
    348035e9:	4d 8b 0c 24          	mov    (%r12),%r9
    348035ed:	4d 8b 44 24 08       	mov    0x8(%r12),%r8
    348035f2:	48 8b 7c 24 18       	mov    0x18(%rsp),%rdi
    348035f7:	4c 89 e6             	mov    %r12,%rsi
    348035fa:	48 8b 4c 24 10       	mov    0x10(%rsp),%rcx

00000000348035ff <.LBB7_12>:
    348035ff:	41 0f b6 01          	movzbl (%r9),%eax
    34803603:	88 44 1c 2a          	mov    %al,0x2a(%rsp,%rbx,1)
    34803607:	48 ff c3             	inc    %rbx
    3480360a:	49 ff c1             	inc    %r9
    3480360d:	49 ff c8             	dec    %r8
    34803610:	48 39 cb             	cmp    %rcx,%rbx
    34803613:	0f 82 b7 ff ff ff    	jb     348035d0 <.LBB7_9>

0000000034803619 <.LBB7_13>:
    34803619:	8b 54 24 24          	mov    0x24(%rsp),%edx
    3480361d:	89 d0                	mov    %edx,%eax
    3480361f:	4c 8b 64 24 08       	mov    0x8(%rsp),%r12
    34803624:	49 29 c4             	sub    %rax,%r12
    34803627:	8b 87 3c 02 00 00    	mov    0x23c(%rdi),%eax
    3480362d:	3d ee 00 00 00       	cmp    $0xee,%eax
    34803632:	4c 89 4c 24 10       	mov    %r9,0x10(%rsp)
    34803637:	0f 84 2c 00 00 00    	je     34803669 <.LBB7_16>
    3480363d:	4c 89 44 24 08       	mov    %r8,0x8(%rsp)
    34803642:	48 89 f3             	mov    %rsi,%rbx
    34803645:	3d e0 00 00 00       	cmp    $0xe0,%eax
    3480364a:	0f 85 40 00 00 00    	jne    34803690 <.LBB7_17>
    34803650:	48 8d 74 24 2a       	lea    0x2a(%rsp),%rsi
    34803655:	4c 89 e1             	mov    %r12,%rcx
    34803658:	e8 b3 26 00 00       	callq  34805d10 <examine_app0>
    3480365d:	e9 49 00 00 00       	jmpq   348036ab <.LBB7_18>

0000000034803662 <.LBB7_23>:
    34803662:	31 db                	xor    %ebx,%ebx
    34803664:	e9 70 00 00 00       	jmpq   348036d9 <.LBB7_24>

0000000034803669 <.LBB7_16>:
    34803669:	48 89 74 24 08       	mov    %rsi,0x8(%rsp)
    3480366e:	48 8d 74 24 2a       	lea    0x2a(%rsp),%rsi
    34803673:	4c 89 e1             	mov    %r12,%rcx
    34803676:	4c 89 c3             	mov    %r8,%rbx
    34803679:	e8 f2 28 00 00       	callq  34805f70 <examine_app14>
    3480367e:	48 8b 44 24 10       	mov    0x10(%rsp),%rax
    34803683:	48 89 d9             	mov    %rbx,%rcx
    34803686:	48 8b 5c 24 08       	mov    0x8(%rsp),%rbx
    3480368b:	e9 25 00 00 00       	jmpq   348036b5 <.LBB7_19>

0000000034803690 <.LBB7_17>:
    34803690:	48 8b 07             	mov    (%rdi),%rax
    34803693:	c7 40 28 46 00 00 00 	movl   $0x46,0x28(%rax)
    3480369a:	8b 87 3c 02 00 00    	mov    0x23c(%rdi),%eax
    348036a0:	48 8b 0f             	mov    (%rdi),%rcx
    348036a3:	89 41 2c             	mov    %eax,0x2c(%rcx)
    348036a6:	48 8b 07             	mov    (%rdi),%rax
    348036a9:	ff 10                	callq  *(%rax)

00000000348036ab <.LBB7_18>:
    348036ab:	48 8b 4c 24 08       	mov    0x8(%rsp),%rcx
    348036b0:	48 8b 44 24 10       	mov    0x10(%rsp),%rax

00000000348036b5 <.LBB7_19>:
    348036b5:	48 89 03             	mov    %rax,(%rbx)
    348036b8:	48 89 4b 08          	mov    %rcx,0x8(%rbx)
    348036bc:	bb 01 00 00 00       	mov    $0x1,%ebx
    348036c1:	4d 85 e4             	test   %r12,%r12
    348036c4:	0f 8e 0f 00 00 00    	jle    348036d9 <.LBB7_24>
    348036ca:	48 8b 7c 24 18       	mov    0x18(%rsp),%rdi
    348036cf:	48 8b 47 28          	mov    0x28(%rdi),%rax
    348036d3:	4c 89 e6             	mov    %r12,%rsi
    348036d6:	ff 50 20             	callq  *0x20(%rax)

00000000348036d9 <.LBB7_24>:
    348036d9:	89 d8                	mov    %ebx,%eax
    348036db:	48 83 c4 38          	add    $0x38,%rsp
    348036df:	5b                   	pop    %rbx
    348036e0:	41 5c                	pop    %r12
    348036e2:	c3                   	retq   
    348036e3:	66 66 66 66 2e 0f 1f 	data32 data32 data32 nopw %cs:0x0(%rax,%rax,1)
    348036ea:	84 00 00 00 00 00 

00000000348036f0 <jpeg_save_markers>:
    348036f0:	4c 8b 87 68 02 00 00 	mov    0x268(%rdi),%r8
    348036f7:	48 8b 4f 08          	mov    0x8(%rdi),%rcx
    348036fb:	48 8b 49 60          	mov    0x60(%rcx),%rcx
    348036ff:	48 83 c1 e0          	add    $0xffffffffffffffe0,%rcx
    34803703:	89 d0                	mov    %edx,%eax
    34803705:	48 39 c1             	cmp    %rax,%rcx
    34803708:	0f 4d ca             	cmovge %edx,%ecx
    3480370b:	85 c9                	test   %ecx,%ecx
    3480370d:	0f 84 24 00 00 00    	je     34803737 <.LBB8_5>
    34803713:	81 fe e0 00 00 00    	cmp    $0xe0,%esi
    34803719:	0f 85 50 00 00 00    	jne    3480376f <.LBB8_4>
    3480371f:	83 f9 0e             	cmp    $0xe,%ecx
    34803722:	0f 83 47 00 00 00    	jae    3480376f <.LBB8_4>
    34803728:	b9 d0 37 80 34       	mov    $0x348037d0,%ecx
    3480372d:	ba 0e 00 00 00       	mov    $0xe,%edx
    34803732:	e9 6d 00 00 00       	jmpq   348037a4 <.LBB8_9>

0000000034803737 <.LBB8_5>:
    34803737:	81 fe ee 00 00 00    	cmp    $0xee,%esi
    3480373d:	b8 10 35 80 34       	mov    $0x34803510,%eax
    34803742:	b9 00 34 80 34       	mov    $0x34803400,%ecx
    34803747:	48 0f 44 c8          	cmove  %rax,%rcx
    3480374b:	81 fe e0 00 00 00    	cmp    $0xe0,%esi
    34803751:	48 0f 44 c8          	cmove  %rax,%rcx
    34803755:	31 d2                	xor    %edx,%edx
    34803757:	81 fe fe 00 00 00    	cmp    $0xfe,%esi
    3480375d:	0f 85 31 00 00 00    	jne    34803794 <.LBB8_8>

0000000034803763 <.LBB8_7>:
    34803763:	49 89 48 28          	mov    %rcx,0x28(%r8)
    34803767:	41 89 90 b0 00 00 00 	mov    %edx,0xb0(%r8)
    3480376e:	c3                   	retq   

000000003480376f <.LBB8_4>:
    3480376f:	83 f9 0c             	cmp    $0xc,%ecx
    34803772:	ba 0c 00 00 00       	mov    $0xc,%edx
    34803777:	0f 43 d1             	cmovae %ecx,%edx
    3480377a:	81 fe ee 00 00 00    	cmp    $0xee,%esi
    34803780:	0f 45 d1             	cmovne %ecx,%edx
    34803783:	b9 d0 37 80 34       	mov    $0x348037d0,%ecx
    34803788:	81 fe fe 00 00 00    	cmp    $0xfe,%esi
    3480378e:	0f 84 cf ff ff ff    	je     34803763 <.LBB8_7>

0000000034803794 <.LBB8_8>:
    34803794:	89 f0                	mov    %esi,%eax
    34803796:	83 e0 f0             	and    $0xfffffff0,%eax
    34803799:	3d e0 00 00 00       	cmp    $0xe0,%eax
    3480379e:	0f 85 14 00 00 00    	jne    348037b8 <.LBB8_11>

00000000348037a4 <.LBB8_9>:
    348037a4:	48 63 c6             	movslq %esi,%rax
    348037a7:	49 89 8c c0 30 f9 ff 	mov    %rcx,-0x6d0(%r8,%rax,8)
    348037ae:	ff 
    348037af:	41 89 94 80 34 fd ff 	mov    %edx,-0x2cc(%r8,%rax,4)
    348037b6:	ff 
    348037b7:	c3                   	retq   

00000000348037b8 <.LBB8_11>:
    348037b8:	48 8b 07             	mov    (%rdi),%rax
    348037bb:	c7 40 28 46 00 00 00 	movl   $0x46,0x28(%rax)
    348037c2:	48 8b 07             	mov    (%rdi),%rax
    348037c5:	89 70 2c             	mov    %esi,0x2c(%rax)
    348037c8:	48 8b 07             	mov    (%rdi),%rax
    348037cb:	ff 20                	jmpq   *(%rax)
    348037cd:	0f 1f 00             	nopl   (%rax)

00000000348037d0 <save_marker>:
    348037d0:	41 54                	push   %r12
    348037d2:	53                   	push   %rbx
    348037d3:	48 83 ec 38          	sub    $0x38,%rsp
    348037d7:	4c 8b 9f 68 02 00 00 	mov    0x268(%rdi),%r11
    348037de:	4d 8b 83 f8 00 00 00 	mov    0xf8(%r11),%r8
    348037e5:	48 8b 5f 28          	mov    0x28(%rdi),%rbx
    348037e9:	4c 8b 0b             	mov    (%rbx),%r9
    348037ec:	48 8b 4b 08          	mov    0x8(%rbx),%rcx
    348037f0:	4d 85 c0             	test   %r8,%r8
    348037f3:	48 89 3c 24          	mov    %rdi,(%rsp)
    348037f7:	4c 89 5c 24 30       	mov    %r11,0x30(%rsp)
    348037fc:	48 89 5c 24 28       	mov    %rbx,0x28(%rsp)
    34803801:	0f 84 3d 01 00 00    	je     34803944 <.LBB9_17>
    34803807:	41 8b b3 00 01 00 00 	mov    0x100(%r11),%esi
    3480380e:	41 8b 50 10          	mov    0x10(%r8),%edx
    34803812:	48 89 f0             	mov    %rsi,%rax
    34803815:	49 03 40 18          	add    0x18(%r8),%rax
    34803819:	48 89 44 24 10       	mov    %rax,0x10(%rsp)
    3480381e:	31 c0                	xor    %eax,%eax
    34803820:	48 89 44 24 18       	mov    %rax,0x18(%rsp)

0000000034803825 <.LBB9_2>:
    34803825:	4c 89 44 24 20       	mov    %r8,0x20(%rsp)
    3480382a:	39 d6                	cmp    %edx,%esi
    3480382c:	0f 83 cf 00 00 00    	jae    34803901 <.LBB9_14>
    34803832:	49 89 d4             	mov    %rdx,%r12
    34803835:	66 66 2e 0f 1f 84 00 	data32 nopw %cs:0x0(%rax,%rax,1)
    3480383c:	00 00 00 00 

0000000034803840 <.LBB9_4>:
    34803840:	4c 89 0b             	mov    %r9,(%rbx)
    34803843:	48 89 4b 08          	mov    %rcx,0x8(%rbx)
    34803847:	41 89 b3 00 01 00 00 	mov    %esi,0x100(%r11)
    3480384e:	48 85 c9             	test   %rcx,%rcx
    34803851:	0f 85 28 00 00 00    	jne    3480387f <.LBB9_7>
    34803857:	48 89 74 24 08       	mov    %rsi,0x8(%rsp)
    3480385c:	48 8b 3c 24          	mov    (%rsp),%rdi
    34803860:	ff 53 18             	callq  *0x18(%rbx)
    34803863:	85 c0                	test   %eax,%eax
    34803865:	0f 84 28 02 00 00    	je     34803a93 <.LBB9_41>
    3480386b:	4c 8b 0b             	mov    (%rbx),%r9
    3480386e:	48 8b 4b 08          	mov    0x8(%rbx),%rcx
    34803872:	4c 8b 5c 24 30       	mov    0x30(%rsp),%r11
    34803877:	4c 89 e2             	mov    %r12,%rdx
    3480387a:	48 8b 74 24 08       	mov    0x8(%rsp),%rsi

000000003480387f <.LBB9_7>:
    3480387f:	39 d6                	cmp    %edx,%esi
    34803881:	0f 83 72 00 00 00    	jae    348038f9 <.LBB9_13>
    34803887:	48 85 c9             	test   %rcx,%rcx
    3480388a:	0f 84 69 00 00 00    	je     348038f9 <.LBB9_13>
    34803890:	4d 89 d8             	mov    %r11,%r8
    34803893:	49 89 ca             	mov    %rcx,%r10
    34803896:	48 8d 41 ff          	lea    -0x1(%rcx),%rax
    3480389a:	48 89 f7             	mov    %rsi,%rdi
    3480389d:	89 f1                	mov    %esi,%ecx
    3480389f:	31 f6                	xor    %esi,%esi
    348038a1:	66 66 66 66 66 66 2e 	data32 data32 data32 data32 data32 nopw %cs:0x0(%rax,%rax,1)
    348038a8:	0f 1f 84 00 00 00 00 
    348038af:	00 

00000000348038b0 <.LBB9_10>:
    348038b0:	41 0f b6 14 31       	movzbl (%r9,%rsi,1),%edx
    348038b5:	48 8b 5c 24 10       	mov    0x10(%rsp),%rbx
    348038ba:	88 14 33             	mov    %dl,(%rbx,%rsi,1)
    348038bd:	8d 5c 31 01          	lea    0x1(%rcx,%rsi,1),%ebx
    348038c1:	4c 8d 5e 01          	lea    0x1(%rsi),%r11
    348038c5:	44 39 e3             	cmp    %r12d,%ebx
    348038c8:	4c 89 e2             	mov    %r12,%rdx
    348038cb:	0f 83 0c 00 00 00    	jae    348038dd <.LBB9_12>
    348038d1:	48 39 f0             	cmp    %rsi,%rax
    348038d4:	4c 89 de             	mov    %r11,%rsi
    348038d7:	0f 85 d3 ff ff ff    	jne    348038b0 <.LBB9_10>

00000000348038dd <.LBB9_12>:
    348038dd:	4c 89 d1             	mov    %r10,%rcx
    348038e0:	4c 29 d9             	sub    %r11,%rcx
    348038e3:	4d 01 d9             	add    %r11,%r9
    348038e6:	4c 01 5c 24 10       	add    %r11,0x10(%rsp)
    348038eb:	44 01 df             	add    %r11d,%edi
    348038ee:	48 89 fe             	mov    %rdi,%rsi
    348038f1:	4d 89 c3             	mov    %r8,%r11
    348038f4:	48 8b 5c 24 28       	mov    0x28(%rsp),%rbx

00000000348038f9 <.LBB9_13>:
    348038f9:	39 d6                	cmp    %edx,%esi
    348038fb:	0f 82 3f ff ff ff    	jb     34803840 <.LBB9_4>

0000000034803901 <.LBB9_14>:
    34803901:	4c 8b 54 24 20       	mov    0x20(%rsp),%r10
    34803906:	4d 85 d2             	test   %r10,%r10
    34803909:	0f 84 6e 00 00 00    	je     3480397d <.LBB9_22>
    3480390f:	49 89 c8             	mov    %rcx,%r8
    34803912:	48 8b 3c 24          	mov    (%rsp),%rdi
    34803916:	48 8b 8f 98 01 00 00 	mov    0x198(%rdi),%rcx
    3480391d:	48 85 c9             	test   %rcx,%rcx
    34803920:	0f 84 60 00 00 00    	je     34803986 <.LBB9_23>
    34803926:	66 2e 0f 1f 84 00 00 	nopw   %cs:0x0(%rax,%rax,1)
    3480392d:	00 00 00 

0000000034803930 <.LBB9_16>:
    34803930:	48 89 c8             	mov    %rcx,%rax
    34803933:	48 8b 08             	mov    (%rax),%rcx
    34803936:	48 85 c9             	test   %rcx,%rcx
    34803939:	0f 85 f1 ff ff ff    	jne    34803930 <.LBB9_16>
    3480393f:	e9 49 00 00 00       	jmpq   3480398d <.LBB9_24>

0000000034803944 <.LBB9_17>:
    34803944:	48 85 c9             	test   %rcx,%rcx
    34803947:	0f 85 1b 00 00 00    	jne    34803968 <.LBB9_20>
    3480394d:	ff 53 18             	callq  *0x18(%rbx)
    34803950:	85 c0                	test   %eax,%eax
    34803952:	0f 84 3b 01 00 00    	je     34803a93 <.LBB9_41>
    34803958:	4c 8b 0b             	mov    (%rbx),%r9
    3480395b:	48 8b 4b 08          	mov    0x8(%rbx),%rcx
    3480395f:	48 8b 3c 24          	mov    (%rsp),%rdi
    34803963:	4c 8b 5c 24 30       	mov    0x30(%rsp),%r11

0000000034803968 <.LBB9_20>:
    34803968:	45 0f b6 21          	movzbl (%r9),%r12d
    3480396c:	48 ff c9             	dec    %rcx
    3480396f:	0f 84 34 00 00 00    	je     348039a9 <.LBB9_25>
    34803975:	49 ff c1             	inc    %r9
    34803978:	e9 47 00 00 00       	jmpq   348039c4 <.LBB9_27>

000000003480397d <.LBB9_22>:
    3480397d:	48 8b 3c 24          	mov    (%rsp),%rdi
    34803981:	e9 20 01 00 00       	jmpq   34803aa6 <.LBB9_31>

0000000034803986 <.LBB9_23>:
    34803986:	48 8d 87 98 01 00 00 	lea    0x198(%rdi),%rax

000000003480398d <.LBB9_24>:
    3480398d:	4c 89 10             	mov    %r10,(%rax)
    34803990:	49 8b 42 18          	mov    0x18(%r10),%rax
    34803994:	48 89 44 24 10       	mov    %rax,0x10(%rsp)
    34803999:	41 8b 42 0c          	mov    0xc(%r10),%eax
    3480399d:	29 d0                	sub    %edx,%eax
    3480399f:	48 89 44 24 18       	mov    %rax,0x18(%rsp)
    348039a4:	e9 fa 00 00 00       	jmpq   34803aa3 <.LBB9_30>

00000000348039a9 <.LBB9_25>:
    348039a9:	ff 53 18             	callq  *0x18(%rbx)
    348039ac:	85 c0                	test   %eax,%eax
    348039ae:	0f 84 df 00 00 00    	je     34803a93 <.LBB9_41>
    348039b4:	4c 8b 0b             	mov    (%rbx),%r9
    348039b7:	48 8b 4b 08          	mov    0x8(%rbx),%rcx
    348039bb:	48 8b 3c 24          	mov    (%rsp),%rdi
    348039bf:	4c 8b 5c 24 30       	mov    0x30(%rsp),%r11

00000000348039c4 <.LBB9_27>:
    348039c4:	49 c1 e4 08          	shl    $0x8,%r12
    348039c8:	48 ff c9             	dec    %rcx
    348039cb:	41 0f b6 01          	movzbl (%r9),%eax
    348039cf:	49 ff c1             	inc    %r9
    348039d2:	4c 09 e0             	or     %r12,%rax
    348039d5:	48 83 f8 02          	cmp    $0x2,%rax
    348039d9:	49 89 c8             	mov    %rcx,%r8
    348039dc:	48 8d 48 fe          	lea    -0x2(%rax),%rcx
    348039e0:	48 89 4c 24 18       	mov    %rcx,0x18(%rsp)
    348039e5:	0f 82 af 00 00 00    	jb     34803a9a <.LBB9_29>
    348039eb:	48 63 87 3c 02 00 00 	movslq 0x23c(%rdi),%rax
    348039f2:	49 8d 93 b0 00 00 00 	lea    0xb0(%r11),%rdx
    348039f9:	48 3d fe 00 00 00    	cmp    $0xfe,%rax
    348039ff:	49 8d 84 83 34 fd ff 	lea    -0x2cc(%r11,%rax,4),%rax
    34803a06:	ff 
    34803a07:	48 0f 44 c2          	cmove  %rdx,%rax
    34803a0b:	44 8b 20             	mov    (%rax),%r12d
    34803a0e:	41 39 cc             	cmp    %ecx,%r12d
    34803a11:	44 0f 47 e1          	cmova  %ecx,%r12d
    34803a15:	48 8b 47 08          	mov    0x8(%rdi),%rax
    34803a19:	49 8d 54 24 20       	lea    0x20(%r12),%rdx
    34803a1e:	be 01 00 00 00       	mov    $0x1,%esi
    34803a23:	4c 89 4c 24 20       	mov    %r9,0x20(%rsp)
    34803a28:	4c 89 44 24 08       	mov    %r8,0x8(%rsp)
    34803a2d:	ff 50 08             	callq  *0x8(%rax)
    34803a30:	4c 8b 5c 24 30       	mov    0x30(%rsp),%r11
    34803a35:	48 8b 4c 24 08       	mov    0x8(%rsp),%rcx
    34803a3a:	4c 8b 4c 24 20       	mov    0x20(%rsp),%r9
    34803a3f:	48 8b 5c 24 28       	mov    0x28(%rsp),%rbx
    34803a44:	48 8b 3c 24          	mov    (%rsp),%rdi
    34803a48:	48 c7 00 00 00 00 00 	movq   $0x0,(%rax)
    34803a4f:	8a 97 3c 02 00 00    	mov    0x23c(%rdi),%dl
    34803a55:	88 50 08             	mov    %dl,0x8(%rax)
    34803a58:	48 8b 54 24 18       	mov    0x18(%rsp),%rdx
    34803a5d:	89 50 0c             	mov    %edx,0xc(%rax)
    34803a60:	4c 89 e2             	mov    %r12,%rdx
    34803a63:	49 89 c0             	mov    %rax,%r8
    34803a66:	41 89 50 10          	mov    %edx,0x10(%r8)
    34803a6a:	4d 8d 50 20          	lea    0x20(%r8),%r10
    34803a6e:	4c 89 d0             	mov    %r10,%rax
    34803a71:	48 89 44 24 10       	mov    %rax,0x10(%rsp)
    34803a76:	4d 89 50 18          	mov    %r10,0x18(%r8)
    34803a7a:	4d 89 83 f8 00 00 00 	mov    %r8,0xf8(%r11)
    34803a81:	41 c7 83 00 01 00 00 	movl   $0x0,0x100(%r11)
    34803a88:	00 00 00 00 
    34803a8c:	31 f6                	xor    %esi,%esi
    34803a8e:	e9 92 fd ff ff       	jmpq   34803825 <.LBB9_2>

0000000034803a93 <.LBB9_41>:
    34803a93:	31 db                	xor    %ebx,%ebx
    34803a95:	e9 e9 00 00 00       	jmpq   34803b83 <.LBB9_39>

0000000034803a9a <.LBB9_29>:
    34803a9a:	31 d2                	xor    %edx,%edx
    34803a9c:	31 c0                	xor    %eax,%eax
    34803a9e:	48 89 44 24 10       	mov    %rax,0x10(%rsp)

0000000034803aa3 <.LBB9_30>:
    34803aa3:	4c 89 c1             	mov    %r8,%rcx

0000000034803aa6 <.LBB9_31>:
    34803aa6:	49 c7 83 f8 00 00 00 	movq   $0x0,0xf8(%r11)
    34803aad:	00 00 00 00 
    34803ab1:	8b 87 3c 02 00 00    	mov    0x23c(%rdi),%eax
    34803ab7:	3d ee 00 00 00       	cmp    $0xee,%eax
    34803abc:	0f 84 2d 00 00 00    	je     34803aef <.LBB9_34>
    34803ac2:	3d e0 00 00 00       	cmp    $0xe0,%eax
    34803ac7:	0f 85 4c 00 00 00    	jne    34803b19 <.LBB9_36>
    34803acd:	48 8b 74 24 10       	mov    0x10(%rsp),%rsi
    34803ad2:	4c 8b 64 24 18       	mov    0x18(%rsp),%r12
    34803ad7:	48 89 c8             	mov    %rcx,%rax
    34803ada:	4c 89 e1             	mov    %r12,%rcx
    34803add:	4c 89 cb             	mov    %r9,%rbx
    34803ae0:	48 89 44 24 08       	mov    %rax,0x8(%rsp)
    34803ae5:	e8 26 22 00 00       	callq  34805d10 <examine_app0>
    34803aea:	e9 1d 00 00 00       	jmpq   34803b0c <.LBB9_35>

0000000034803aef <.LBB9_34>:
    34803aef:	48 8b 74 24 10       	mov    0x10(%rsp),%rsi
    34803af4:	4c 8b 64 24 18       	mov    0x18(%rsp),%r12
    34803af9:	48 89 c8             	mov    %rcx,%rax
    34803afc:	4c 89 e1             	mov    %r12,%rcx
    34803aff:	4c 89 cb             	mov    %r9,%rbx
    34803b02:	48 89 44 24 08       	mov    %rax,0x8(%rsp)
    34803b07:	e8 64 24 00 00       	callq  34805f70 <examine_app14>

0000000034803b0c <.LBB9_35>:
    34803b0c:	48 8b 54 24 08       	mov    0x8(%rsp),%rdx
    34803b11:	48 89 d9             	mov    %rbx,%rcx
    34803b14:	e9 42 00 00 00       	jmpq   34803b5b <.LBB9_37>

0000000034803b19 <.LBB9_36>:
    34803b19:	48 8b 07             	mov    (%rdi),%rax
    34803b1c:	c7 40 28 5d 00 00 00 	movl   $0x5d,0x28(%rax)
    34803b23:	8b 87 3c 02 00 00    	mov    0x23c(%rdi),%eax
    34803b29:	49 89 c8             	mov    %rcx,%r8
    34803b2c:	48 8b 0f             	mov    (%rdi),%rcx
    34803b2f:	89 41 2c             	mov    %eax,0x2c(%rcx)
    34803b32:	4c 8b 64 24 18       	mov    0x18(%rsp),%r12
    34803b37:	44 01 e2             	add    %r12d,%edx
    34803b3a:	48 8b 07             	mov    (%rdi),%rax
    34803b3d:	89 50 30             	mov    %edx,0x30(%rax)
    34803b40:	48 8b 07             	mov    (%rdi),%rax
    34803b43:	be 01 00 00 00       	mov    $0x1,%esi
    34803b48:	4c 89 4c 24 20       	mov    %r9,0x20(%rsp)
    34803b4d:	4c 89 c3             	mov    %r8,%rbx
    34803b50:	ff 50 08             	callq  *0x8(%rax)
    34803b53:	48 89 da             	mov    %rbx,%rdx
    34803b56:	48 8b 4c 24 20       	mov    0x20(%rsp),%rcx

0000000034803b5b <.LBB9_37>:
    34803b5b:	48 8b 44 24 28       	mov    0x28(%rsp),%rax
    34803b60:	48 89 08             	mov    %rcx,(%rax)
    34803b63:	48 89 50 08          	mov    %rdx,0x8(%rax)
    34803b67:	bb 01 00 00 00       	mov    $0x1,%ebx
    34803b6c:	4d 85 e4             	test   %r12,%r12
    34803b6f:	0f 8e 0e 00 00 00    	jle    34803b83 <.LBB9_39>
    34803b75:	48 8b 3c 24          	mov    (%rsp),%rdi
    34803b79:	48 8b 47 28          	mov    0x28(%rdi),%rax
    34803b7d:	4c 89 e6             	mov    %r12,%rsi
    34803b80:	ff 50 20             	callq  *0x20(%rax)

0000000034803b83 <.LBB9_39>:
    34803b83:	89 d8                	mov    %ebx,%eax
    34803b85:	48 83 c4 38          	add    $0x38,%rsp
    34803b89:	5b                   	pop    %rbx
    34803b8a:	41 5c                	pop    %r12
    34803b8c:	c3                   	retq   
    34803b8d:	0f 1f 00             	nopl   (%rax)

0000000034803b90 <jpeg_set_marker_processor>:
    34803b90:	48 8b 87 68 02 00 00 	mov    0x268(%rdi),%rax
    34803b97:	81 fe fe 00 00 00    	cmp    $0xfe,%esi
    34803b9d:	0f 85 05 00 00 00    	jne    34803ba8 <.LBB10_2>
    34803ba3:	48 89 50 28          	mov    %rdx,0x28(%rax)
    34803ba7:	c3                   	retq   

0000000034803ba8 <.LBB10_2>:
    34803ba8:	89 f1                	mov    %esi,%ecx
    34803baa:	83 e1 f0             	and    $0xfffffff0,%ecx
    34803bad:	81 f9 e0 00 00 00    	cmp    $0xe0,%ecx
    34803bb3:	0f 85 0c 00 00 00    	jne    34803bc5 <.LBB10_5>
    34803bb9:	48 63 ce             	movslq %esi,%rcx
    34803bbc:	48 89 94 c8 30 f9 ff 	mov    %rdx,-0x6d0(%rax,%rcx,8)
    34803bc3:	ff 
    34803bc4:	c3                   	retq   

0000000034803bc5 <.LBB10_5>:
    34803bc5:	48 8b 07             	mov    (%rdi),%rax
    34803bc8:	c7 40 28 46 00 00 00 	movl   $0x46,0x28(%rax)
    34803bcf:	48 8b 07             	mov    (%rdi),%rax
    34803bd2:	89 70 2c             	mov    %esi,0x2c(%rax)
    34803bd5:	48 8b 07             	mov    (%rdi),%rax
    34803bd8:	ff 20                	jmpq   *(%rax)
    34803bda:	66 0f 1f 44 00 00    	nopw   0x0(%rax,%rax,1)

0000000034803be0 <first_marker>:
    34803be0:	41 54                	push   %r12
    34803be2:	53                   	push   %rbx
    34803be3:	48 83 ec 18          	sub    $0x18,%rsp
    34803be7:	48 8b 4f 28          	mov    0x28(%rdi),%rcx
    34803beb:	4c 8b 61 08          	mov    0x8(%rcx),%r12
    34803bef:	4d 85 e4             	test   %r12,%r12
    34803bf2:	48 89 3c 24          	mov    %rdi,(%rsp)
    34803bf6:	0f 85 19 00 00 00    	jne    34803c15 <.LBB11_3>
    34803bfc:	48 89 cb             	mov    %rcx,%rbx
    34803bff:	ff 53 18             	callq  *0x18(%rbx)
    34803c02:	85 c0                	test   %eax,%eax
    34803c04:	0f 84 b1 00 00 00    	je     34803cbb <.LBB11_13>
    34803c0a:	4c 8b 63 08          	mov    0x8(%rbx),%r12
    34803c0e:	48 89 d9             	mov    %rbx,%rcx
    34803c11:	48 8b 3c 24          	mov    (%rsp),%rdi

0000000034803c15 <.LBB11_3>:
    34803c15:	48 8b 19             	mov    (%rcx),%rbx
    34803c18:	49 ff cc             	dec    %r12
    34803c1b:	0f b6 13             	movzbl (%rbx),%edx
    34803c1e:	0f 84 08 00 00 00    	je     34803c2c <.LBB11_5>
    34803c24:	48 ff c3             	inc    %rbx
    34803c27:	e9 27 00 00 00       	jmpq   34803c53 <.LBB11_7>

0000000034803c2c <.LBB11_5>:
    34803c2c:	89 54 24 08          	mov    %edx,0x8(%rsp)
    34803c30:	48 89 cb             	mov    %rcx,%rbx
    34803c33:	ff 53 18             	callq  *0x18(%rbx)
    34803c36:	85 c0                	test   %eax,%eax
    34803c38:	0f 84 7d 00 00 00    	je     34803cbb <.LBB11_13>
    34803c3e:	48 89 d8             	mov    %rbx,%rax
    34803c41:	48 8b 18             	mov    (%rax),%rbx
    34803c44:	4c 8b 60 08          	mov    0x8(%rax),%r12
    34803c48:	48 89 c1             	mov    %rax,%rcx
    34803c4b:	48 8b 3c 24          	mov    (%rsp),%rdi
    34803c4f:	8b 54 24 08          	mov    0x8(%rsp),%edx

0000000034803c53 <.LBB11_7>:
    34803c53:	49 ff cc             	dec    %r12
    34803c56:	8a 03                	mov    (%rbx),%al
    34803c58:	48 ff c3             	inc    %rbx
    34803c5b:	0f b6 f0             	movzbl %al,%esi
    34803c5e:	80 fa ff             	cmp    $0xff,%dl
    34803c61:	0f 85 08 00 00 00    	jne    34803c6f <.LBB11_9>
    34803c67:	3c d8                	cmp    $0xd8,%al
    34803c69:	0f 84 35 00 00 00    	je     34803ca4 <.LBB11_10>

0000000034803c6f <.LBB11_9>:
    34803c6f:	48 8b 07             	mov    (%rdi),%rax
    34803c72:	c7 40 28 37 00 00 00 	movl   $0x37,0x28(%rax)
    34803c79:	48 8b 07             	mov    (%rdi),%rax
    34803c7c:	89 50 2c             	mov    %edx,0x2c(%rax)
    34803c7f:	48 8b 07             	mov    (%rdi),%rax
    34803c82:	89 70 30             	mov    %esi,0x30(%rax)
    34803c85:	48 8b 07             	mov    (%rdi),%rax
    34803c88:	48 8b 3c 24          	mov    (%rsp),%rdi
    34803c8c:	48 89 4c 24 08       	mov    %rcx,0x8(%rsp)
    34803c91:	89 74 24 14          	mov    %esi,0x14(%rsp)
    34803c95:	ff 10                	callq  *(%rax)
    34803c97:	8b 74 24 14          	mov    0x14(%rsp),%esi
    34803c9b:	48 8b 3c 24          	mov    (%rsp),%rdi
    34803c9f:	48 8b 4c 24 08       	mov    0x8(%rsp),%rcx

0000000034803ca4 <.LBB11_10>:
    34803ca4:	89 b7 3c 02 00 00    	mov    %esi,0x23c(%rdi)
    34803caa:	48 89 19             	mov    %rbx,(%rcx)
    34803cad:	4c 89 61 08          	mov    %r12,0x8(%rcx)
    34803cb1:	b8 01 00 00 00       	mov    $0x1,%eax
    34803cb6:	e9 02 00 00 00       	jmpq   34803cbd <.LBB11_11>

0000000034803cbb <.LBB11_13>:
    34803cbb:	31 c0                	xor    %eax,%eax

0000000034803cbd <.LBB11_11>:
    34803cbd:	48 83 c4 18          	add    $0x18,%rsp
    34803cc1:	5b                   	pop    %rbx
    34803cc2:	41 5c                	pop    %r12
    34803cc4:	c3                   	retq   
    34803cc5:	66 66 2e 0f 1f 84 00 	data32 nopw %cs:0x0(%rax,%rax,1)
    34803ccc:	00 00 00 00 

0000000034803cd0 <get_soi>:
    34803cd0:	53                   	push   %rbx
    34803cd1:	48 89 fb             	mov    %rdi,%rbx
    34803cd4:	48 8b 03             	mov    (%rbx),%rax
    34803cd7:	c7 40 28 68 00 00 00 	movl   $0x68,0x28(%rax)
    34803cde:	48 8b 03             	mov    (%rbx),%rax
    34803ce1:	be 01 00 00 00       	mov    $0x1,%esi
    34803ce6:	ff 50 08             	callq  *0x8(%rax)
    34803ce9:	48 8b 83 68 02 00 00 	mov    0x268(%rbx),%rax
    34803cf0:	83 78 18 00          	cmpl   $0x0,0x18(%rax)
    34803cf4:	0f 84 12 00 00 00    	je     34803d0c <.LBB12_2>
    34803cfa:	48 8b 03             	mov    (%rbx),%rax
    34803cfd:	c7 40 28 40 00 00 00 	movl   $0x40,0x28(%rax)
    34803d04:	48 8b 03             	mov    (%rbx),%rax
    34803d07:	48 89 df             	mov    %rbx,%rdi
    34803d0a:	ff 10                	callq  *(%rax)

0000000034803d0c <.LBB12_2>:
    34803d0c:	48 c7 c0 f0 ff ff ff 	mov    $0xfffffffffffffff0,%rax
    34803d13:	66 66 66 66 2e 0f 1f 	data32 data32 data32 nopw %cs:0x0(%rax,%rax,1)
    34803d1a:	84 00 00 00 00 00 

0000000034803d20 <.LBB12_3>:
    34803d20:	c6 84 03 54 01 00 00 	movb   $0x0,0x154(%rbx,%rax,1)
    34803d27:	00 
    34803d28:	c6 84 03 64 01 00 00 	movb   $0x1,0x164(%rbx,%rax,1)
    34803d2f:	01 
    34803d30:	c6 84 03 74 01 00 00 	movb   $0x5,0x174(%rbx,%rax,1)
    34803d37:	05 
    34803d38:	48 ff c0             	inc    %rax
    34803d3b:	0f 85 df ff ff ff    	jne    34803d20 <.LBB12_3>
    34803d41:	48 c7 83 74 01 00 00 	movq   $0x0,0x174(%rbx)
    34803d48:	00 00 00 00 
    34803d4c:	c7 43 3c 00 00 00 00 	movl   $0x0,0x3c(%rbx)
    34803d53:	48 c7 83 8c 01 00 00 	movq   $0x0,0x18c(%rbx)
    34803d5a:	00 00 00 00 
    34803d5e:	66 c7 83 7c 01 00 00 	movw   $0x101,0x17c(%rbx)
    34803d65:	01 01 
    34803d67:	c6 83 7e 01 00 00 00 	movb   $0x0,0x17e(%rbx)
    34803d6e:	48 c7 83 80 01 00 00 	movq   $0x10001,0x180(%rbx)
    34803d75:	01 00 01 00 
    34803d79:	c6 83 88 01 00 00 00 	movb   $0x0,0x188(%rbx)
    34803d80:	48 8b 83 68 02 00 00 	mov    0x268(%rbx),%rax
    34803d87:	c7 40 18 01 00 00 00 	movl   $0x1,0x18(%rax)
    34803d8e:	5b                   	pop    %rbx
    34803d8f:	c3                   	retq   

0000000034803d90 <get_sof>:
    34803d90:	41 54                	push   %r12
    34803d92:	53                   	push   %rbx
    34803d93:	48 83 ec 28          	sub    $0x28,%rsp
    34803d97:	48 8b 47 28          	mov    0x28(%rdi),%rax
    34803d9b:	4c 8b 00             	mov    (%rax),%r8
    34803d9e:	48 89 44 24 10       	mov    %rax,0x10(%rsp)
    34803da3:	48 8b 58 08          	mov    0x8(%rax),%rbx
    34803da7:	89 b7 38 01 00 00    	mov    %esi,0x138(%rdi)
    34803dad:	89 97 3c 01 00 00    	mov    %edx,0x13c(%rdi)
    34803db3:	89 8f 40 01 00 00    	mov    %ecx,0x140(%rdi)
    34803db9:	48 85 db             	test   %rbx,%rbx
    34803dbc:	48 89 7c 24 08       	mov    %rdi,0x8(%rsp)
    34803dc1:	0f 85 1c 00 00 00    	jne    34803de3 <.LBB13_3>
    34803dc7:	48 8b 5c 24 10       	mov    0x10(%rsp),%rbx
    34803dcc:	ff 53 18             	callq  *0x18(%rbx)
    34803dcf:	85 c0                	test   %eax,%eax
    34803dd1:	0f 84 b4 04 00 00    	je     3480428b <.LBB13_76>
    34803dd7:	4c 8b 03             	mov    (%rbx),%r8
    34803dda:	48 8b 5b 08          	mov    0x8(%rbx),%rbx
    34803dde:	48 8b 7c 24 08       	mov    0x8(%rsp),%rdi

0000000034803de3 <.LBB13_3>:
    34803de3:	45 0f b6 20          	movzbl (%r8),%r12d
    34803de7:	48 ff cb             	dec    %rbx
    34803dea:	0f 84 08 00 00 00    	je     34803df8 <.LBB13_5>
    34803df0:	49 ff c0             	inc    %r8
    34803df3:	e9 1c 00 00 00       	jmpq   34803e14 <.LBB13_7>

0000000034803df8 <.LBB13_5>:
    34803df8:	48 8b 5c 24 10       	mov    0x10(%rsp),%rbx
    34803dfd:	ff 53 18             	callq  *0x18(%rbx)
    34803e00:	85 c0                	test   %eax,%eax
    34803e02:	0f 84 83 04 00 00    	je     3480428b <.LBB13_76>
    34803e08:	4c 8b 03             	mov    (%rbx),%r8
    34803e0b:	48 8b 5b 08          	mov    0x8(%rbx),%rbx
    34803e0f:	48 8b 7c 24 08       	mov    0x8(%rsp),%rdi

0000000034803e14 <.LBB13_7>:
    34803e14:	41 0f b6 00          	movzbl (%r8),%eax
    34803e18:	48 89 44 24 18       	mov    %rax,0x18(%rsp)
    34803e1d:	48 ff cb             	dec    %rbx
    34803e20:	0f 84 08 00 00 00    	je     34803e2e <.LBB13_9>
    34803e26:	49 ff c0             	inc    %r8
    34803e29:	e9 1c 00 00 00       	jmpq   34803e4a <.LBB13_11>

0000000034803e2e <.LBB13_9>:
    34803e2e:	48 8b 5c 24 10       	mov    0x10(%rsp),%rbx
    34803e33:	ff 53 18             	callq  *0x18(%rbx)
    34803e36:	85 c0                	test   %eax,%eax
    34803e38:	0f 84 4d 04 00 00    	je     3480428b <.LBB13_76>
    34803e3e:	4c 8b 03             	mov    (%rbx),%r8
    34803e41:	48 8b 5b 08          	mov    0x8(%rbx),%rbx
    34803e45:	48 8b 7c 24 08       	mov    0x8(%rsp),%rdi

0000000034803e4a <.LBB13_11>:
    34803e4a:	48 ff cb             	dec    %rbx
    34803e4d:	41 0f b6 00          	movzbl (%r8),%eax
    34803e51:	89 87 28 01 00 00    	mov    %eax,0x128(%rdi)
    34803e57:	0f 84 08 00 00 00    	je     34803e65 <.LBB13_13>
    34803e5d:	49 ff c0             	inc    %r8
    34803e60:	e9 1c 00 00 00       	jmpq   34803e81 <.LBB13_15>

0000000034803e65 <.LBB13_13>:
    34803e65:	48 8b 5c 24 10       	mov    0x10(%rsp),%rbx
    34803e6a:	ff 53 18             	callq  *0x18(%rbx)
    34803e6d:	85 c0                	test   %eax,%eax
    34803e6f:	0f 84 16 04 00 00    	je     3480428b <.LBB13_76>
    34803e75:	4c 8b 03             	mov    (%rbx),%r8
    34803e78:	48 8b 5b 08          	mov    0x8(%rbx),%rbx
    34803e7c:	48 8b 7c 24 08       	mov    0x8(%rsp),%rdi

0000000034803e81 <.LBB13_15>:
    34803e81:	41 0f b6 00          	movzbl (%r8),%eax
    34803e85:	c1 e0 08             	shl    $0x8,%eax
    34803e88:	48 ff cb             	dec    %rbx
    34803e8b:	89 47 34             	mov    %eax,0x34(%rdi)
    34803e8e:	0f 84 08 00 00 00    	je     34803e9c <.LBB13_17>
    34803e94:	49 ff c0             	inc    %r8
    34803e97:	e9 1c 00 00 00       	jmpq   34803eb8 <.LBB13_19>

0000000034803e9c <.LBB13_17>:
    34803e9c:	48 8b 5c 24 10       	mov    0x10(%rsp),%rbx
    34803ea1:	ff 53 18             	callq  *0x18(%rbx)
    34803ea4:	85 c0                	test   %eax,%eax
    34803ea6:	0f 84 df 03 00 00    	je     3480428b <.LBB13_76>
    34803eac:	4c 8b 03             	mov    (%rbx),%r8
    34803eaf:	48 8b 5b 08          	mov    0x8(%rbx),%rbx
    34803eb3:	48 8b 7c 24 08       	mov    0x8(%rsp),%rdi

0000000034803eb8 <.LBB13_19>:
    34803eb8:	41 0f b6 00          	movzbl (%r8),%eax
    34803ebc:	01 47 34             	add    %eax,0x34(%rdi)
    34803ebf:	48 ff cb             	dec    %rbx
    34803ec2:	0f 84 08 00 00 00    	je     34803ed0 <.LBB13_21>
    34803ec8:	49 ff c0             	inc    %r8
    34803ecb:	e9 1c 00 00 00       	jmpq   34803eec <.LBB13_23>

0000000034803ed0 <.LBB13_21>:
    34803ed0:	48 8b 5c 24 10       	mov    0x10(%rsp),%rbx
    34803ed5:	ff 53 18             	callq  *0x18(%rbx)
    34803ed8:	85 c0                	test   %eax,%eax
    34803eda:	0f 84 ab 03 00 00    	je     3480428b <.LBB13_76>
    34803ee0:	4c 8b 03             	mov    (%rbx),%r8
    34803ee3:	48 8b 5b 08          	mov    0x8(%rbx),%rbx
    34803ee7:	48 8b 7c 24 08       	mov    0x8(%rsp),%rdi

0000000034803eec <.LBB13_23>:
    34803eec:	41 0f b6 00          	movzbl (%r8),%eax
    34803ef0:	c1 e0 08             	shl    $0x8,%eax
    34803ef3:	48 ff cb             	dec    %rbx
    34803ef6:	89 47 30             	mov    %eax,0x30(%rdi)
    34803ef9:	0f 84 08 00 00 00    	je     34803f07 <.LBB13_25>
    34803eff:	49 ff c0             	inc    %r8
    34803f02:	e9 1c 00 00 00       	jmpq   34803f23 <.LBB13_27>

0000000034803f07 <.LBB13_25>:
    34803f07:	48 8b 5c 24 10       	mov    0x10(%rsp),%rbx
    34803f0c:	ff 53 18             	callq  *0x18(%rbx)
    34803f0f:	85 c0                	test   %eax,%eax
    34803f11:	0f 84 74 03 00 00    	je     3480428b <.LBB13_76>
    34803f17:	4c 8b 03             	mov    (%rbx),%r8
    34803f1a:	48 8b 5b 08          	mov    0x8(%rbx),%rbx
    34803f1e:	48 8b 7c 24 08       	mov    0x8(%rsp),%rdi

0000000034803f23 <.LBB13_27>:
    34803f23:	41 0f b6 00          	movzbl (%r8),%eax
    34803f27:	01 47 30             	add    %eax,0x30(%rdi)
    34803f2a:	48 ff cb             	dec    %rbx
    34803f2d:	0f 84 0d 00 00 00    	je     34803f40 <.LBB13_30>
    34803f33:	48 89 5c 24 20       	mov    %rbx,0x20(%rsp)
    34803f38:	49 ff c0             	inc    %r8
    34803f3b:	e9 21 00 00 00       	jmpq   34803f61 <.LBB13_32>

0000000034803f40 <.LBB13_30>:
    34803f40:	48 8b 5c 24 10       	mov    0x10(%rsp),%rbx
    34803f45:	ff 53 18             	callq  *0x18(%rbx)
    34803f48:	85 c0                	test   %eax,%eax
    34803f4a:	0f 84 3b 03 00 00    	je     3480428b <.LBB13_76>
    34803f50:	4c 8b 03             	mov    (%rbx),%r8
    34803f53:	48 8b 43 08          	mov    0x8(%rbx),%rax
    34803f57:	48 89 44 24 20       	mov    %rax,0x20(%rsp)
    34803f5c:	48 8b 7c 24 08       	mov    0x8(%rsp),%rdi

0000000034803f61 <.LBB13_32>:
    34803f61:	49 c1 e4 08          	shl    $0x8,%r12
    34803f65:	4c 09 64 24 18       	or     %r12,0x18(%rsp)
    34803f6a:	4d 89 c4             	mov    %r8,%r12
    34803f6d:	41 0f b6 00          	movzbl (%r8),%eax
    34803f71:	89 47 38             	mov    %eax,0x38(%rdi)
    34803f74:	48 8b 07             	mov    (%rdi),%rax
    34803f77:	8b 8f 3c 02 00 00    	mov    0x23c(%rdi),%ecx
    34803f7d:	89 48 2c             	mov    %ecx,0x2c(%rax)
    34803f80:	8b 4f 30             	mov    0x30(%rdi),%ecx
    34803f83:	89 48 30             	mov    %ecx,0x30(%rax)
    34803f86:	8b 4f 34             	mov    0x34(%rdi),%ecx
    34803f89:	89 48 34             	mov    %ecx,0x34(%rax)
    34803f8c:	8b 4f 38             	mov    0x38(%rdi),%ecx
    34803f8f:	89 48 38             	mov    %ecx,0x38(%rax)
    34803f92:	48 8b 07             	mov    (%rdi),%rax
    34803f95:	c7 40 28 66 00 00 00 	movl   $0x66,0x28(%rax)
    34803f9c:	48 8b 07             	mov    (%rdi),%rax
    34803f9f:	be 01 00 00 00       	mov    $0x1,%esi
    34803fa4:	48 8b 7c 24 08       	mov    0x8(%rsp),%rdi
    34803fa9:	ff 50 08             	callq  *0x8(%rax)
    34803fac:	4c 8b 4c 24 08       	mov    0x8(%rsp),%r9
    34803fb1:	49 8b 81 68 02 00 00 	mov    0x268(%r9),%rax
    34803fb8:	83 78 1c 00          	cmpl   $0x0,0x1c(%rax)
    34803fbc:	0f 84 19 00 00 00    	je     34803fdb <.LBB13_34>
    34803fc2:	49 8b 01             	mov    (%r9),%rax
    34803fc5:	c7 40 28 3d 00 00 00 	movl   $0x3d,0x28(%rax)
    34803fcc:	49 8b 01             	mov    (%r9),%rax
    34803fcf:	48 8b 7c 24 08       	mov    0x8(%rsp),%rdi
    34803fd4:	ff 10                	callq  *(%rax)
    34803fd6:	4c 8b 4c 24 08       	mov    0x8(%rsp),%r9

0000000034803fdb <.LBB13_34>:
    34803fdb:	48 8b 5c 24 18       	mov    0x18(%rsp),%rbx
    34803fe0:	48 83 c3 f8          	add    $0xfffffffffffffff8,%rbx
    34803fe4:	41 83 79 34 00       	cmpl   $0x0,0x34(%r9)
    34803fe9:	0f 84 16 00 00 00    	je     34804005 <.LBB13_37>
    34803fef:	41 83 79 30 00       	cmpl   $0x0,0x30(%r9)
    34803ff4:	0f 84 0b 00 00 00    	je     34804005 <.LBB13_37>
    34803ffa:	41 83 79 38 00       	cmpl   $0x0,0x38(%r9)
    34803fff:	0f 8f 19 00 00 00    	jg     3480401e <.LBB13_38>

0000000034804005 <.LBB13_37>:
    34804005:	49 8b 01             	mov    (%r9),%rax
    34804008:	c7 40 28 21 00 00 00 	movl   $0x21,0x28(%rax)
    3480400f:	49 8b 01             	mov    (%r9),%rax
    34804012:	48 8b 7c 24 08       	mov    0x8(%rsp),%rdi
    34804017:	ff 10                	callq  *(%rax)
    34804019:	4c 8b 4c 24 08       	mov    0x8(%rsp),%r9

000000003480401e <.LBB13_38>:
    3480401e:	49 63 41 38          	movslq 0x38(%r9),%rax
    34804022:	48 8d 04 40          	lea    (%rax,%rax,2),%rax
    34804026:	48 39 c3             	cmp    %rax,%rbx
    34804029:	0f 84 19 00 00 00    	je     34804048 <.LBB13_40>
    3480402f:	49 8b 01             	mov    (%r9),%rax
    34804032:	c7 40 28 0c 00 00 00 	movl   $0xc,0x28(%rax)
    34804039:	49 8b 01             	mov    (%r9),%rax
    3480403c:	48 8b 7c 24 08       	mov    0x8(%rsp),%rdi
    34804041:	ff 10                	callq  *(%rax)
    34804043:	4c 8b 4c 24 08       	mov    0x8(%rsp),%r9

0000000034804048 <.LBB13_40>:
    34804048:	49 83 b9 30 01 00 00 	cmpq   $0x0,0x130(%r9)
    3480404f:	00 
    34804050:	0f 85 28 00 00 00    	jne    3480407e <.LBB13_42>
    34804056:	49 8b 41 08          	mov    0x8(%r9),%rax
    3480405a:	49 63 49 38          	movslq 0x38(%r9),%rcx
    3480405e:	48 c1 e1 05          	shl    $0x5,%rcx
    34804062:	48 8d 14 49          	lea    (%rcx,%rcx,2),%rdx
    34804066:	be 01 00 00 00       	mov    $0x1,%esi
    3480406b:	48 8b 7c 24 08       	mov    0x8(%rsp),%rdi
    34804070:	ff 10                	callq  *(%rax)
    34804072:	4c 8b 4c 24 08       	mov    0x8(%rsp),%r9
    34804077:	49 89 81 30 01 00 00 	mov    %rax,0x130(%r9)

000000003480407e <.LBB13_42>:
    3480407e:	4d 89 e0             	mov    %r12,%r8
    34804081:	49 ff c0             	inc    %r8
    34804084:	48 8b 7c 24 20       	mov    0x20(%rsp),%rdi
    34804089:	48 ff cf             	dec    %rdi
    3480408c:	41 83 79 38 00       	cmpl   $0x0,0x38(%r9)
    34804091:	0f 8e fb 01 00 00    	jle    34804292 <.LBB13_66>
    34804097:	b8 fe ff ff ff       	mov    $0xfffffffe,%eax
    3480409c:	45 31 e4             	xor    %r12d,%r12d
    3480409f:	48 8b 5c 24 10       	mov    0x10(%rsp),%rbx
    348040a4:	66 66 66 2e 0f 1f 84 	data32 data32 nopw %cs:0x0(%rax,%rax,1)
    348040ab:	00 00 00 00 00 

00000000348040b0 <.LBB13_44>:
    348040b0:	48 85 ff             	test   %rdi,%rdi
    348040b3:	0f 85 24 00 00 00    	jne    348040dd <.LBB13_47>
    348040b9:	48 89 44 24 18       	mov    %rax,0x18(%rsp)
    348040be:	4c 89 cf             	mov    %r9,%rdi
    348040c1:	ff 53 18             	callq  *0x18(%rbx)
    348040c4:	85 c0                	test   %eax,%eax
    348040c6:	0f 84 bf 01 00 00    	je     3480428b <.LBB13_76>
    348040cc:	4c 8b 03             	mov    (%rbx),%r8
    348040cf:	48 8b 7b 08          	mov    0x8(%rbx),%rdi
    348040d3:	4c 8b 4c 24 08       	mov    0x8(%rsp),%r9
    348040d8:	48 8b 44 24 18       	mov    0x18(%rsp),%rax

00000000348040dd <.LBB13_47>:
    348040dd:	89 c0                	mov    %eax,%eax
    348040df:	48 89 44 24 18       	mov    %rax,0x18(%rsp)
    348040e4:	48 ff cf             	dec    %rdi
    348040e7:	41 0f b6 00          	movzbl (%r8),%eax
    348040eb:	49 8b 99 30 01 00 00 	mov    0x130(%r9),%rbx
    348040f2:	45 85 e4             	test   %r12d,%r12d
    348040f5:	0f 8e 80 00 00 00    	jle    3480417b <.LBB13_56>
    348040fb:	31 c9                	xor    %ecx,%ecx
    348040fd:	0f 1f 00             	nopl   (%rax)

0000000034804100 <.LBB13_49>:
    34804100:	39 03                	cmp    %eax,(%rbx)
    34804102:	0f 84 18 00 00 00    	je     34804120 <.LBB13_51>
    34804108:	ff c1                	inc    %ecx
    3480410a:	48 83 c3 60          	add    $0x60,%rbx
    3480410e:	44 39 e1             	cmp    %r12d,%ecx
    34804111:	0f 8c e9 ff ff ff    	jl     34804100 <.LBB13_49>
    34804117:	e9 5f 00 00 00       	jmpq   3480417b <.LBB13_56>
    3480411c:	0f 1f 40 00          	nopl   0x0(%rax)

0000000034804120 <.LBB13_51>:
    34804120:	49 8b 89 30 01 00 00 	mov    0x130(%r9),%rcx
    34804127:	8b 01                	mov    (%rcx),%eax
    34804129:	48 8d 59 60          	lea    0x60(%rcx),%rbx
    3480412d:	41 83 fc 02          	cmp    $0x2,%r12d
    34804131:	0f 8c 42 00 00 00    	jl     34804179 <.LBB13_55>
    34804137:	48 81 c1 c0 00 00 00 	add    $0xc0,%rcx
    3480413e:	ba 01 00 00 00       	mov    $0x1,%edx
    34804143:	66 66 66 66 2e 0f 1f 	data32 data32 data32 nopw %cs:0x0(%rax,%rax,1)
    3480414a:	84 00 00 00 00 00 

0000000034804150 <.LBB13_53>:
    34804150:	8b 33                	mov    (%rbx),%esi
    34804152:	39 c6                	cmp    %eax,%esi
    34804154:	0f 4d c6             	cmovge %esi,%eax
    34804157:	ff c2                	inc    %edx
    34804159:	48 83 c3 60          	add    $0x60,%rbx
    3480415d:	41 39 d4             	cmp    %edx,%r12d
    34804160:	0f 85 ea ff ff ff    	jne    34804150 <.LBB13_53>
    34804166:	48 8b 54 24 18       	mov    0x18(%rsp),%rdx
    3480416b:	48 8d 14 52          	lea    (%rdx,%rdx,2),%rdx
    3480416f:	48 c1 e2 05          	shl    $0x5,%rdx
    34804173:	48 01 d1             	add    %rdx,%rcx
    34804176:	48 89 cb             	mov    %rcx,%rbx

0000000034804179 <.LBB13_55>:
    34804179:	ff c0                	inc    %eax

000000003480417b <.LBB13_56>:
    3480417b:	89 03                	mov    %eax,(%rbx)
    3480417d:	44 89 63 04          	mov    %r12d,0x4(%rbx)
    34804181:	48 85 ff             	test   %rdi,%rdi
    34804184:	0f 84 16 00 00 00    	je     348041a0 <.LBB13_58>
    3480418a:	49 ff c0             	inc    %r8
    3480418d:	e9 32 00 00 00       	jmpq   348041c4 <.LBB13_60>
    34804192:	66 66 66 66 66 2e 0f 	data32 data32 data32 data32 nopw %cs:0x0(%rax,%rax,1)
    34804199:	1f 84 00 00 00 00 00 

00000000348041a0 <.LBB13_58>:
    348041a0:	4c 89 cf             	mov    %r9,%rdi
    348041a3:	48 8b 44 24 10       	mov    0x10(%rsp),%rax
    348041a8:	ff 50 18             	callq  *0x18(%rax)
    348041ab:	85 c0                	test   %eax,%eax
    348041ad:	0f 84 d8 00 00 00    	je     3480428b <.LBB13_76>
    348041b3:	48 8b 44 24 10       	mov    0x10(%rsp),%rax
    348041b8:	4c 8b 00             	mov    (%rax),%r8
    348041bb:	48 8b 78 08          	mov    0x8(%rax),%rdi
    348041bf:	4c 8b 4c 24 08       	mov    0x8(%rsp),%r9

00000000348041c4 <.LBB13_60>:
    348041c4:	41 0f b6 00          	movzbl (%r8),%eax
    348041c8:	89 c1                	mov    %eax,%ecx
    348041ca:	c1 e9 04             	shr    $0x4,%ecx
    348041cd:	83 e0 0f             	and    $0xf,%eax
    348041d0:	48 ff cf             	dec    %rdi
    348041d3:	89 4b 08             	mov    %ecx,0x8(%rbx)
    348041d6:	89 43 0c             	mov    %eax,0xc(%rbx)
    348041d9:	0f 84 11 00 00 00    	je     348041f0 <.LBB13_62>
    348041df:	49 ff c0             	inc    %r8
    348041e2:	48 89 7c 24 20       	mov    %rdi,0x20(%rsp)
    348041e7:	e9 2d 00 00 00       	jmpq   34804219 <.LBB13_64>
    348041ec:	0f 1f 40 00          	nopl   0x0(%rax)

00000000348041f0 <.LBB13_62>:
    348041f0:	4c 89 cf             	mov    %r9,%rdi
    348041f3:	48 8b 44 24 10       	mov    0x10(%rsp),%rax
    348041f8:	ff 50 18             	callq  *0x18(%rax)
    348041fb:	85 c0                	test   %eax,%eax
    348041fd:	0f 84 88 00 00 00    	je     3480428b <.LBB13_76>
    34804203:	48 8b 44 24 10       	mov    0x10(%rsp),%rax
    34804208:	4c 8b 00             	mov    (%rax),%r8
    3480420b:	48 8b 40 08          	mov    0x8(%rax),%rax
    3480420f:	48 89 44 24 20       	mov    %rax,0x20(%rsp)
    34804214:	4c 8b 4c 24 08       	mov    0x8(%rsp),%r9

0000000034804219 <.LBB13_64>:
    34804219:	41 0f b6 00          	movzbl (%r8),%eax
    3480421d:	89 43 10             	mov    %eax,0x10(%rbx)
    34804220:	49 8b 01             	mov    (%r9),%rax
    34804223:	8b 0b                	mov    (%rbx),%ecx
    34804225:	89 48 2c             	mov    %ecx,0x2c(%rax)
    34804228:	8b 4b 08             	mov    0x8(%rbx),%ecx
    3480422b:	89 48 30             	mov    %ecx,0x30(%rax)
    3480422e:	8b 4b 0c             	mov    0xc(%rbx),%ecx
    34804231:	89 48 34             	mov    %ecx,0x34(%rax)
    34804234:	8b 4b 10             	mov    0x10(%rbx),%ecx
    34804237:	89 48 38             	mov    %ecx,0x38(%rax)
    3480423a:	49 8b 01             	mov    (%r9),%rax
    3480423d:	c7 40 28 67 00 00 00 	movl   $0x67,0x28(%rax)
    34804244:	49 8b 01             	mov    (%r9),%rax
    34804247:	be 01 00 00 00       	mov    $0x1,%esi
    3480424c:	48 8b 7c 24 08       	mov    0x8(%rsp),%rdi
    34804251:	4c 89 c3             	mov    %r8,%rbx
    34804254:	ff 50 08             	callq  *0x8(%rax)
    34804257:	49 89 d8             	mov    %rbx,%r8
    3480425a:	4c 8b 4c 24 08       	mov    0x8(%rsp),%r9
    3480425f:	41 ff c4             	inc    %r12d
    34804262:	49 ff c0             	inc    %r8
    34804265:	48 8b 4c 24 20       	mov    0x20(%rsp),%rcx
    3480426a:	48 ff c9             	dec    %rcx
    3480426d:	48 8b 44 24 18       	mov    0x18(%rsp),%rax
    34804272:	ff c0                	inc    %eax
    34804274:	45 3b 61 38          	cmp    0x38(%r9),%r12d
    34804278:	48 8b 5c 24 10       	mov    0x10(%rsp),%rbx
    3480427d:	48 89 cf             	mov    %rcx,%rdi
    34804280:	0f 8c 2a fe ff ff    	jl     348040b0 <.LBB13_44>
    34804286:	e9 0c 00 00 00       	jmpq   34804297 <.LBB13_67>

000000003480428b <.LBB13_76>:
    3480428b:	31 c0                	xor    %eax,%eax
    3480428d:	e9 1f 00 00 00       	jmpq   348042b1 <.LBB13_77>

0000000034804292 <.LBB13_66>:
    34804292:	48 8b 5c 24 10       	mov    0x10(%rsp),%rbx

0000000034804297 <.LBB13_67>:
    34804297:	49 8b 81 68 02 00 00 	mov    0x268(%r9),%rax
    3480429e:	c7 40 1c 01 00 00 00 	movl   $0x1,0x1c(%rax)
    348042a5:	4c 89 03             	mov    %r8,(%rbx)
    348042a8:	48 89 7b 08          	mov    %rdi,0x8(%rbx)
    348042ac:	b8 01 00 00 00       	mov    $0x1,%eax

00000000348042b1 <.LBB13_77>:
    348042b1:	48 83 c4 28          	add    $0x28,%rsp
    348042b5:	5b                   	pop    %rbx
    348042b6:	41 5c                	pop    %r12
    348042b8:	c3                   	retq   
    348042b9:	0f 1f 80 00 00 00 00 	nopl   0x0(%rax)

00000000348042c0 <get_sos>:
    348042c0:	41 54                	push   %r12
    348042c2:	53                   	push   %rbx
    348042c3:	48 83 ec 38          	sub    $0x38,%rsp
    348042c7:	4c 8b 67 28          	mov    0x28(%rdi),%r12
    348042cb:	49 8b 0c 24          	mov    (%r12),%rcx
    348042cf:	49 8b 5c 24 08       	mov    0x8(%r12),%rbx
    348042d4:	48 8b 87 68 02 00 00 	mov    0x268(%rdi),%rax
    348042db:	83 78 1c 00          	cmpl   $0x0,0x1c(%rax)
    348042df:	48 89 7c 24 08       	mov    %rdi,0x8(%rsp)
    348042e4:	0f 84 0e 00 00 00    	je     348042f8 <.LBB14_2>
    348042ea:	48 85 db             	test   %rbx,%rbx
    348042ed:	0f 85 6c 00 00 00    	jne    3480435f <.LBB14_5>
    348042f3:	e9 4c 00 00 00       	jmpq   34804344 <.LBB14_3>

00000000348042f8 <.LBB14_2>:
    348042f8:	48 8b 07             	mov    (%rdi),%rax
    348042fb:	c7 40 28 3c 00 00 00 	movl   $0x3c,0x28(%rax)
    34804302:	48 8b 44 24 08       	mov    0x8(%rsp),%rax
    34804307:	48 8b 38             	mov    (%rax),%rdi
    3480430a:	48 83 c7 2c          	add    $0x2c,%rdi
    3480430e:	be 5c 72 82 34       	mov    $0x3482725c,%esi
    34804313:	ba 50 00 00 00       	mov    $0x50,%edx
    34804318:	48 89 4c 24 20       	mov    %rcx,0x20(%rsp)
    3480431d:	e8 3e ad 01 00       	callq  3481f060 <strncpy>
    34804322:	48 8b 44 24 08       	mov    0x8(%rsp),%rax
    34804327:	48 8b 00             	mov    (%rax),%rax
    3480432a:	48 8b 7c 24 08       	mov    0x8(%rsp),%rdi
    3480432f:	ff 10                	callq  *(%rax)
    34804331:	48 8b 4c 24 20       	mov    0x20(%rsp),%rcx
    34804336:	48 8b 7c 24 08       	mov    0x8(%rsp),%rdi
    3480433b:	48 85 db             	test   %rbx,%rbx
    3480433e:	0f 85 1b 00 00 00    	jne    3480435f <.LBB14_5>

0000000034804344 <.LBB14_3>:
    34804344:	41 ff 54 24 18       	callq  *0x18(%r12)
    34804349:	85 c0                	test   %eax,%eax
    3480434b:	0f 84 6b 04 00 00    	je     348047bc <.LBB14_64>
    34804351:	49 8b 0c 24          	mov    (%r12),%rcx
    34804355:	49 8b 5c 24 08       	mov    0x8(%r12),%rbx
    3480435a:	48 8b 7c 24 08       	mov    0x8(%rsp),%rdi

000000003480435f <.LBB14_5>:
    3480435f:	0f b6 01             	movzbl (%rcx),%eax
    34804362:	48 89 44 24 30       	mov    %rax,0x30(%rsp)
    34804367:	48 ff cb             	dec    %rbx
    3480436a:	4c 89 64 24 18       	mov    %r12,0x18(%rsp)
    3480436f:	0f 84 08 00 00 00    	je     3480437d <.LBB14_7>
    34804375:	48 ff c1             	inc    %rcx
    34804378:	e9 1b 00 00 00       	jmpq   34804398 <.LBB14_9>

000000003480437d <.LBB14_7>:
    3480437d:	41 ff 54 24 18       	callq  *0x18(%r12)
    34804382:	85 c0                	test   %eax,%eax
    34804384:	0f 84 32 04 00 00    	je     348047bc <.LBB14_64>
    3480438a:	49 8b 0c 24          	mov    (%r12),%rcx
    3480438e:	49 8b 5c 24 08       	mov    0x8(%r12),%rbx
    34804393:	48 8b 7c 24 08       	mov    0x8(%rsp),%rdi

0000000034804398 <.LBB14_9>:
    34804398:	44 0f b6 21          	movzbl (%rcx),%r12d
    3480439c:	48 ff cb             	dec    %rbx
    3480439f:	0f 84 0d 00 00 00    	je     348043b2 <.LBB14_11>
    348043a5:	48 89 5c 24 10       	mov    %rbx,0x10(%rsp)
    348043aa:	48 ff c1             	inc    %rcx
    348043ad:	e9 21 00 00 00       	jmpq   348043d3 <.LBB14_13>

00000000348043b2 <.LBB14_11>:
    348043b2:	48 8b 5c 24 18       	mov    0x18(%rsp),%rbx
    348043b7:	ff 53 18             	callq  *0x18(%rbx)
    348043ba:	85 c0                	test   %eax,%eax
    348043bc:	0f 84 fa 03 00 00    	je     348047bc <.LBB14_64>
    348043c2:	48 8b 0b             	mov    (%rbx),%rcx
    348043c5:	48 8b 43 08          	mov    0x8(%rbx),%rax
    348043c9:	48 89 44 24 10       	mov    %rax,0x10(%rsp)
    348043ce:	48 8b 7c 24 08       	mov    0x8(%rsp),%rdi

00000000348043d3 <.LBB14_13>:
    348043d3:	48 89 4c 24 20       	mov    %rcx,0x20(%rsp)
    348043d8:	0f b6 19             	movzbl (%rcx),%ebx
    348043db:	48 8b 07             	mov    (%rdi),%rax
    348043de:	c7 40 28 69 00 00 00 	movl   $0x69,0x28(%rax)
    348043e5:	48 8b 07             	mov    (%rdi),%rax
    348043e8:	89 58 2c             	mov    %ebx,0x2c(%rax)
    348043eb:	48 8b 07             	mov    (%rdi),%rax
    348043ee:	be 01 00 00 00       	mov    $0x1,%esi
    348043f3:	ff 50 08             	callq  *0x8(%rax)
    348043f6:	83 fb 04             	cmp    $0x4,%ebx
    348043f9:	48 89 5c 24 28       	mov    %rbx,0x28(%rsp)
    348043fe:	0f 87 87 00 00 00    	ja     3480448b <.LBB14_22>
    34804404:	48 8b 44 24 30       	mov    0x30(%rsp),%rax
    34804409:	48 c1 e0 08          	shl    $0x8,%rax
    3480440d:	49 09 c4             	or     %rax,%r12
    34804410:	48 8d 44 1b 06       	lea    0x6(%rbx,%rbx,1),%rax
    34804415:	49 39 c4             	cmp    %rax,%r12
    34804418:	0f 85 6d 00 00 00    	jne    3480448b <.LBB14_22>
    3480441e:	84 db                	test   %bl,%bl
    34804420:	0f 84 28 00 00 00    	je     3480444e <.LBB14_19>
    34804426:	48 8b 44 24 08       	mov    0x8(%rsp),%rax
    3480442b:	89 98 c0 01 00 00    	mov    %ebx,0x1c0(%rax)
    34804431:	4c 8b 44 24 20       	mov    0x20(%rsp),%r8
    34804436:	49 ff c0             	inc    %r8
    34804439:	4c 8b 4c 24 10       	mov    0x10(%rsp),%r9
    3480443e:	49 ff c9             	dec    %r9
    34804441:	0f 94 c0             	sete   %al
    34804444:	48 8b 5c 24 18       	mov    0x18(%rsp),%rbx
    34804449:	e9 7f 00 00 00       	jmpq   348044cd <.LBB14_23>

000000003480444e <.LBB14_19>:
    3480444e:	48 8b 44 24 08       	mov    0x8(%rsp),%rax
    34804453:	83 b8 3c 01 00 00 00 	cmpl   $0x0,0x13c(%rax)
    3480445a:	0f 84 2b 00 00 00    	je     3480448b <.LBB14_22>
    34804460:	48 8b 54 24 08       	mov    0x8(%rsp),%rdx
    34804465:	89 9a c0 01 00 00    	mov    %ebx,0x1c0(%rdx)
    3480446b:	4c 8b 4c 24 10       	mov    0x10(%rsp),%r9
    34804470:	49 ff c9             	dec    %r9
    34804473:	48 8b 5c 24 18       	mov    0x18(%rsp),%rbx
    34804478:	4c 8b 44 24 20       	mov    0x20(%rsp),%r8
    3480447d:	0f 84 14 02 00 00    	je     34804697 <.LBB14_46>
    34804483:	49 ff c0             	inc    %r8
    34804486:	e9 26 02 00 00       	jmpq   348046b1 <.LBB14_48>

000000003480448b <.LBB14_22>:
    3480448b:	49 89 dc             	mov    %rbx,%r12
    3480448e:	48 8b 5c 24 08       	mov    0x8(%rsp),%rbx
    34804493:	48 8b 03             	mov    (%rbx),%rax
    34804496:	c7 40 28 0c 00 00 00 	movl   $0xc,0x28(%rax)
    3480449d:	48 8b 03             	mov    (%rbx),%rax
    348044a0:	48 89 df             	mov    %rbx,%rdi
    348044a3:	ff 10                	callq  *(%rax)
    348044a5:	44 89 a3 c0 01 00 00 	mov    %r12d,0x1c0(%rbx)
    348044ac:	4c 8b 44 24 20       	mov    0x20(%rsp),%r8
    348044b1:	49 ff c0             	inc    %r8
    348044b4:	4c 8b 4c 24 10       	mov    0x10(%rsp),%r9
    348044b9:	49 ff c9             	dec    %r9
    348044bc:	0f 94 c0             	sete   %al
    348044bf:	45 84 e4             	test   %r12b,%r12b
    348044c2:	48 8b 5c 24 18       	mov    0x18(%rsp),%rbx
    348044c7:	0f 84 bd 01 00 00    	je     3480468a <.LBB14_45>

00000000348044cd <.LBB14_23>:
    348044cd:	45 31 e4             	xor    %r12d,%r12d

00000000348044d0 <.LBB14_24>:
    348044d0:	a8 01                	test   $0x1,%al
    348044d2:	0f 84 17 00 00 00    	je     348044ef <.LBB14_27>
    348044d8:	48 8b 7c 24 08       	mov    0x8(%rsp),%rdi
    348044dd:	ff 53 18             	callq  *0x18(%rbx)
    348044e0:	85 c0                	test   %eax,%eax
    348044e2:	0f 84 d4 02 00 00    	je     348047bc <.LBB14_64>
    348044e8:	4c 8b 03             	mov    (%rbx),%r8
    348044eb:	4c 8b 4b 08          	mov    0x8(%rbx),%r9

00000000348044ef <.LBB14_27>:
    348044ef:	41 0f b6 00          	movzbl (%r8),%eax
    348044f3:	4d 85 e4             	test   %r12,%r12
    348044f6:	48 8b 7c 24 08       	mov    0x8(%rsp),%rdi
    348044fb:	0f 8e 7c 00 00 00    	jle    3480457d <.LBB14_35>
    34804501:	31 c9                	xor    %ecx,%ecx
    34804503:	66 66 66 66 2e 0f 1f 	data32 data32 data32 nopw %cs:0x0(%rax,%rax,1)
    3480450a:	84 00 00 00 00 00 

0000000034804510 <.LBB14_29>:
    34804510:	48 8b 94 cf c8 01 00 	mov    0x1c8(%rdi,%rcx,8),%rdx
    34804517:	00 
    34804518:	39 02                	cmp    %eax,(%rdx)
    3480451a:	0f 84 20 00 00 00    	je     34804540 <.LBB14_31>
    34804520:	48 ff c1             	inc    %rcx
    34804523:	4c 39 e1             	cmp    %r12,%rcx
    34804526:	0f 8c e4 ff ff ff    	jl     34804510 <.LBB14_29>
    3480452c:	e9 4c 00 00 00       	jmpq   3480457d <.LBB14_35>
    34804531:	66 66 66 66 66 66 2e 	data32 data32 data32 data32 data32 nopw %cs:0x0(%rax,%rax,1)
    34804538:	0f 1f 84 00 00 00 00 
    3480453f:	00 

0000000034804540 <.LBB14_31>:
    34804540:	48 8b 87 c8 01 00 00 	mov    0x1c8(%rdi),%rax
    34804547:	8b 00                	mov    (%rax),%eax
    34804549:	49 83 fc 02          	cmp    $0x2,%r12
    3480454d:	0f 8c 28 00 00 00    	jl     3480457b <.LBB14_34>
    34804553:	49 8d 4c 24 ff       	lea    -0x1(%r12),%rcx
    34804558:	31 d2                	xor    %edx,%edx
    3480455a:	66 0f 1f 44 00 00    	nopw   0x0(%rax,%rax,1)

0000000034804560 <.LBB14_33>:
    34804560:	48 8b b4 d7 d0 01 00 	mov    0x1d0(%rdi,%rdx,8),%rsi
    34804567:	00 
    34804568:	8b 36                	mov    (%rsi),%esi
    3480456a:	39 c6                	cmp    %eax,%esi
    3480456c:	0f 4d c6             	cmovge %esi,%eax
    3480456f:	48 ff c2             	inc    %rdx
    34804572:	48 39 d1             	cmp    %rdx,%rcx
    34804575:	0f 85 e5 ff ff ff    	jne    34804560 <.LBB14_33>

000000003480457b <.LBB14_34>:
    3480457b:	ff c0                	inc    %eax

000000003480457d <.LBB14_35>:
    3480457d:	49 ff c9             	dec    %r9
    34804580:	48 8b 9f 30 01 00 00 	mov    0x130(%rdi),%rbx
    34804587:	83 7f 38 00          	cmpl   $0x0,0x38(%rdi)
    3480458b:	4c 89 44 24 20       	mov    %r8,0x20(%rsp)
    34804590:	4c 89 4c 24 10       	mov    %r9,0x10(%rsp)
    34804595:	0f 8e 1c 00 00 00    	jle    348045b7 <.LBB14_39>
    3480459b:	31 c9                	xor    %ecx,%ecx
    3480459d:	0f 1f 00             	nopl   (%rax)

00000000348045a0 <.LBB14_37>:
    348045a0:	3b 03                	cmp    (%rbx),%eax
    348045a2:	0f 84 33 00 00 00    	je     348045db <.LBB14_40>
    348045a8:	ff c1                	inc    %ecx
    348045aa:	48 83 c3 60          	add    $0x60,%rbx
    348045ae:	3b 4f 38             	cmp    0x38(%rdi),%ecx
    348045b1:	0f 8c e9 ff ff ff    	jl     348045a0 <.LBB14_37>

00000000348045b7 <.LBB14_39>:
    348045b7:	48 8b 0f             	mov    (%rdi),%rcx
    348045ba:	c7 41 28 04 00 00 00 	movl   $0x4,0x28(%rcx)
    348045c1:	48 8b 0f             	mov    (%rdi),%rcx
    348045c4:	89 41 2c             	mov    %eax,0x2c(%rcx)
    348045c7:	48 8b 07             	mov    (%rdi),%rax
    348045ca:	48 8b 7c 24 08       	mov    0x8(%rsp),%rdi
    348045cf:	ff 10                	callq  *(%rax)
    348045d1:	4c 8b 4c 24 10       	mov    0x10(%rsp),%r9
    348045d6:	48 8b 7c 24 08       	mov    0x8(%rsp),%rdi

00000000348045db <.LBB14_40>:
    348045db:	4a 89 9c e7 c8 01 00 	mov    %rbx,0x1c8(%rdi,%r12,8)
    348045e2:	00 
    348045e3:	4d 85 c9             	test   %r9,%r9
    348045e6:	48 8b 54 24 20       	mov    0x20(%rsp),%rdx
    348045eb:	0f 84 0f 00 00 00    	je     34804600 <.LBB14_42>
